(lp1
(S'Purple'
p2
I12
(lp3
(cwx.core
Point
p4
(I34
I102
tRp5
g4
(I35
I102
tRp6
tp7
a(g6
g4
(I35
I103
tRp8
tp9
a(g8
g4
(I35
I104
tRp10
tp11
a(g10
g4
(I35
I106
tRp12
tp13
a(g12
g4
(I35
I109
tRp14
tp15
a(g14
g4
(I35
I110
tRp16
tp17
a(g16
g4
(I35
I113
tRp18
tp19
a(g18
g4
(I35
I114
tRp20
tp21
a(g20
g4
(I36
I116
tRp22
tp23
a(g22
g4
(I36
I117
tRp24
tp25
a(g24
g4
(I37
I119
tRp26
tp27
a(g26
g4
(I37
I120
tRp28
tp29
a(g28
g4
(I37
I122
tRp30
tp31
a(g30
g4
(I38
I126
tRp32
tp33
a(g32
g4
(I38
I127
tRp34
tp35
a(g34
g4
(I39
I130
tRp36
tp37
a(g36
g4
(I40
I135
tRp38
tp39
a(g38
g4
(I40
I135
tRp40
tp41
a(g40
g4
(I40
I135
tRp42
tp43
a(g42
g4
(I40
I136
tRp44
tp45
a(g44
g4
(I41
I138
tRp46
tp47
a(g46
g4
(I42
I140
tRp48
tp49
a(g48
g4
(I42
I142
tRp50
tp51
a(g50
g4
(I42
I143
tRp52
tp53
a(g52
g4
(I43
I144
tRp54
tp55
a(g54
g4
(I43
I146
tRp56
tp57
a(g56
g4
(I43
I147
tRp58
tp59
a(g58
g4
(I44
I148
tRp60
tp61
a(g60
g4
(I44
I149
tRp62
tp63
a(g62
g4
(I45
I150
tRp64
tp65
a(g64
g4
(I46
I151
tRp66
tp67
a(g66
g4
(I46
I153
tRp68
tp69
a(g68
g4
(I47
I154
tRp70
tp71
a(g70
g4
(I48
I155
tRp72
tp73
a(g72
g4
(I49
I156
tRp74
tp75
a(g74
g4
(I49
I157
tRp76
tp77
a(g76
g4
(I50
I158
tRp78
tp79
a(g78
g4
(I51
I159
tRp80
tp81
a(g80
g4
(I52
I160
tRp82
tp83
a(g82
g4
(I53
I161
tRp84
tp85
a(g84
g4
(I54
I161
tRp86
tp87
a(g86
g4
(I55
I162
tRp88
tp89
a(g88
g4
(I56
I162
tRp90
tp91
a(g90
g4
(I58
I163
tRp92
tp93
a(g92
g4
(I59
I163
tRp94
tp95
a(g94
g4
(I61
I163
tRp96
tp97
a(g96
g4
(I63
I163
tRp98
tp99
a(g98
g4
(I65
I163
tRp100
tp101
a(g100
g4
(I67
I162
tRp102
tp103
a(g102
g4
(I69
I162
tRp104
tp105
a(g104
g4
(I70
I161
tRp106
tp107
a(g106
g4
(I71
I160
tRp108
tp109
a(g108
g4
(I73
I159
tRp110
tp111
a(g110
g4
(I74
I158
tRp112
tp113
a(g112
g4
(I75
I157
tRp114
tp115
a(g114
g4
(I76
I156
tRp116
tp117
a(g116
g4
(I76
I154
tRp118
tp119
a(g118
g4
(I77
I153
tRp120
tp121
a(g120
g4
(I77
I152
tRp122
tp123
a(g122
g4
(I77
I151
tRp124
tp125
a(g124
g4
(I77
I149
tRp126
tp127
a(g126
g4
(I77
I148
tRp128
tp129
a(g128
g4
(I77
I147
tRp130
tp131
a(g130
g4
(I77
I145
tRp132
tp133
a(g132
g4
(I77
I144
tRp134
tp135
a(g134
g4
(I76
I143
tRp136
tp137
a(g136
g4
(I76
I142
tRp138
tp139
a(g138
g4
(I75
I141
tRp140
tp141
a(g140
g4
(I75
I140
tRp142
tp143
a(g142
g4
(I75
I139
tRp144
tp145
a(g144
g4
(I74
I138
tRp146
tp147
a(g146
g4
(I74
I137
tRp148
tp149
a(g148
g4
(I74
I136
tRp150
tp151
a(g150
g4
(I73
I136
tRp152
tp153
a(g152
g4
(I73
I135
tRp154
tp155
a(g154
g4
(I73
I134
tRp156
tp157
a(g156
g4
(I73
I135
tRp158
tp159
a(g158
g4
(I74
I136
tRp160
tp161
a(g160
g4
(I75
I137
tRp162
tp163
a(g162
g4
(I75
I138
tRp164
tp165
a(g164
g4
(I76
I139
tRp166
tp167
a(g166
g4
(I77
I140
tRp168
tp169
a(g168
g4
(I78
I141
tRp170
tp171
a(g170
g4
(I79
I143
tRp172
tp173
a(g172
g4
(I80
I144
tRp174
tp175
a(g174
g4
(I81
I145
tRp176
tp177
a(g176
g4
(I82
I146
tRp178
tp179
a(g178
g4
(I83
I147
tRp180
tp181
a(g180
g4
(I84
I148
tRp182
tp183
a(g182
g4
(I85
I149
tRp184
tp185
a(g184
g4
(I86
I150
tRp186
tp187
a(g186
g4
(I87
I150
tRp188
tp189
a(g188
g4
(I88
I151
tRp190
tp191
a(g190
g4
(I89
I152
tRp192
tp193
a(g192
g4
(I90
I152
tRp194
tp195
a(g194
g4
(I92
I153
tRp196
tp197
a(g196
g4
(I93
I154
tRp198
tp199
a(g198
g4
(I94
I154
tRp200
tp201
a(g200
g4
(I95
I155
tRp202
tp203
a(g202
g4
(I96
I155
tRp204
tp205
a(g204
g4
(I96
I156
tRp206
tp207
a(g206
g4
(I97
I156
tRp208
tp209
a(g208
g4
(I98
I156
tRp210
tp211
a(g210
g4
(I99
I156
tRp212
tp213
a(g212
g4
(I100
I156
tRp214
tp215
a(g214
g4
(I101
I155
tRp216
tp217
a(g216
g4
(I102
I155
tRp218
tp219
a(g218
g4
(I106
I151
tRp220
tp221
a(g220
g4
(I107
I151
tRp222
tp223
a(g222
g4
(I108
I150
tRp224
tp225
a(g224
g4
(I109
I148
tRp226
tp227
a(g226
g4
(I110
I147
tRp228
tp229
a(g228
g4
(I111
I145
tRp230
tp231
a(g230
g4
(I112
I144
tRp232
tp233
a(g232
g4
(I112
I143
tRp234
tp235
a(g234
g4
(I113
I141
tRp236
tp237
a(g236
g4
(I113
I139
tRp238
tp239
a(g238
g4
(I114
I137
tRp240
tp241
a(g240
g4
(I115
I135
tRp242
tp243
a(g242
g4
(I115
I133
tRp244
tp245
a(g244
g4
(I116
I131
tRp246
tp247
a(g246
g4
(I116
I129
tRp248
tp249
a(g248
g4
(I117
I127
tRp250
tp251
a(g250
g4
(I117
I125
tRp252
tp253
a(g252
g4
(I117
I124
tRp254
tp255
a(g254
g4
(I117
I122
tRp256
tp257
a(g256
g4
(I117
I121
tRp258
tp259
a(g258
g4
(I117
I119
tRp260
tp261
a(g260
g4
(I117
I118
tRp262
tp263
a(g262
g4
(I117
I116
tRp264
tp265
a(g264
g4
(I117
I115
tRp266
tp267
a(g266
g4
(I117
I114
tRp268
tp269
a(g268
g4
(I117
I113
tRp270
tp271
a(g270
g4
(I117
I112
tRp272
tp273
a(g272
g4
(I117
I111
tRp274
tp275
a(g274
g4
(I117
I110
tRp276
tp277
a(g276
g4
(I117
I109
tRp278
tp279
a(g278
g4
(I117
I108
tRp280
tp281
a(g280
g4
(I117
I107
tRp282
tp283
a(g282
g4
(I117
I106
tRp284
tp285
a(g284
g4
(I117
I105
tRp286
tp287
atp288
a(g2
I12
(lp289
(g4
(I140
I105
tRp290
g4
(I141
I105
tRp291
tp292
a(g291
g4
(I141
I106
tRp293
tp294
a(g293
g4
(I141
I107
tRp295
tp296
a(g295
g4
(I142
I107
tRp297
tp298
a(g297
g4
(I143
I108
tRp299
tp300
a(g299
g4
(I144
I110
tRp301
tp302
a(g301
g4
(I146
I111
tRp303
tp304
a(g303
g4
(I148
I112
tRp305
tp306
a(g305
g4
(I149
I114
tRp307
tp308
a(g307
g4
(I151
I115
tRp309
tp310
a(g309
g4
(I152
I117
tRp311
tp312
a(g311
g4
(I156
I121
tRp313
tp314
a(g313
g4
(I158
I122
tRp315
tp316
a(g315
g4
(I159
I124
tRp317
tp318
a(g317
g4
(I163
I128
tRp319
tp320
a(g319
g4
(I167
I132
tRp321
tp322
a(g321
g4
(I168
I133
tRp323
tp324
a(g323
g4
(I172
I137
tRp325
tp326
a(g325
g4
(I173
I138
tRp327
tp328
a(g327
g4
(I177
I142
tRp329
tp330
a(g329
g4
(I178
I143
tRp331
tp332
a(g331
g4
(I179
I144
tRp333
tp334
a(g333
g4
(I180
I145
tRp335
tp336
a(g335
g4
(I181
I146
tRp337
tp338
a(g337
g4
(I182
I148
tRp339
tp340
a(g339
g4
(I184
I149
tRp341
tp342
a(g341
g4
(I185
I150
tRp343
tp344
a(g343
g4
(I189
I154
tRp345
tp346
a(g345
g4
(I190
I155
tRp347
tp348
a(g347
g4
(I192
I156
tRp349
tp350
a(g349
g4
(I192
I157
tRp351
tp352
a(g351
g4
(I193
I158
tRp353
tp354
a(g353
g4
(I194
I159
tRp355
tp356
a(g355
g4
(I195
I160
tRp357
tp358
a(g357
g4
(I196
I160
tRp359
tp360
a(g359
g4
(I197
I161
tRp361
tp362
a(g361
g4
(I198
I161
tRp363
tp364
a(g363
g4
(I197
I160
tRp365
tp366
a(g365
g4
(I197
I159
tRp367
tp368
a(g367
g4
(I197
I158
tRp369
tp370
atp371
a(g2
I12
(lp372
(g4
(I194
I106
tRp373
g4
(I193
I106
tRp374
tp375
a(g374
g4
(I192
I107
tRp376
tp377
a(g376
g4
(I191
I107
tRp378
tp379
a(g378
g4
(I190
I107
tRp380
tp381
a(g380
g4
(I189
I108
tRp382
tp383
a(g382
g4
(I188
I108
tRp384
tp385
a(g384
g4
(I187
I108
tRp386
tp387
a(g386
g4
(I185
I109
tRp388
tp389
a(g388
g4
(I184
I109
tRp390
tp391
a(g390
g4
(I183
I110
tRp392
tp393
a(g392
g4
(I181
I110
tRp394
tp395
a(g394
g4
(I180
I111
tRp396
tp397
a(g396
g4
(I178
I112
tRp398
tp399
a(g398
g4
(I177
I113
tRp400
tp401
a(g400
g4
(I176
I113
tRp402
tp403
a(g402
g4
(I175
I114
tRp404
tp405
a(g404
g4
(I174
I115
tRp406
tp407
a(g406
g4
(I173
I116
tRp408
tp409
a(g408
g4
(I172
I116
tRp410
tp411
a(g410
g4
(I170
I117
tRp412
tp413
a(g412
g4
(I169
I118
tRp414
tp415
a(g414
g4
(I168
I119
tRp416
tp417
a(g416
g4
(I167
I120
tRp418
tp419
a(g418
g4
(I166
I121
tRp420
tp421
a(g420
g4
(I165
I122
tRp422
tp423
a(g422
g4
(I164
I122
tRp424
tp425
a(g424
g4
(I163
I123
tRp426
tp427
a(g426
g4
(I163
I124
tRp428
tp429
a(g428
g4
(I162
I125
tRp430
tp431
a(g430
g4
(I160
I126
tRp432
tp433
a(g432
g4
(I160
I127
tRp434
tp435
a(g434
g4
(I159
I127
tRp436
tp437
a(g436
g4
(I158
I128
tRp438
tp439
a(g438
g4
(I158
I129
tRp440
tp441
a(g440
g4
(I157
I129
tRp442
tp443
a(g442
g4
(I156
I130
tRp444
tp445
a(g444
g4
(I155
I131
tRp446
tp447
a(g446
g4
(I154
I132
tRp448
tp449
a(g448
g4
(I153
I133
tRp450
tp451
a(g450
g4
(I152
I134
tRp452
tp453
a(g452
g4
(I151
I135
tRp454
tp455
a(g454
g4
(I150
I136
tRp456
tp457
a(g456
g4
(I150
I137
tRp458
tp459
a(g458
g4
(I149
I137
tRp460
tp461
a(g460
g4
(I148
I138
tRp462
tp463
a(g462
g4
(I147
I139
tRp464
tp465
a(g464
g4
(I146
I140
tRp466
tp467
a(g466
g4
(I145
I141
tRp468
tp469
a(g468
g4
(I144
I142
tRp470
tp471
a(g470
g4
(I144
I143
tRp472
tp473
a(g472
g4
(I143
I144
tRp474
tp475
a(g474
g4
(I142
I145
tRp476
tp477
a(g476
g4
(I142
I146
tRp478
tp479
a(g478
g4
(I141
I146
tRp480
tp481
a(g480
g4
(I141
I147
tRp482
tp483
a(g482
g4
(I140
I148
tRp484
tp485
a(g484
g4
(I139
I149
tRp486
tp487
a(g486
g4
(I138
I150
tRp488
tp489
a(g488
g4
(I137
I151
tRp490
tp491
a(g490
g4
(I136
I152
tRp492
tp493
a(g492
g4
(I136
I153
tRp494
tp495
a(g494
g4
(I135
I154
tRp496
tp497
a(g496
g4
(I134
I155
tRp498
tp499
a(g498
g4
(I134
I156
tRp500
tp501
a(g500
g4
(I134
I157
tRp502
tp503
atp504
a(g2
I12
(lp505
(g4
(I221
I45
tRp506
g4
(I221
I46
tRp507
tp508
a(g507
g4
(I221
I47
tRp509
tp510
a(g509
g4
(I221
I48
tRp511
tp512
a(g511
g4
(I220
I49
tRp513
tp514
a(g513
g4
(I220
I50
tRp515
tp516
a(g515
g4
(I220
I51
tRp517
tp518
a(g517
g4
(I220
I53
tRp519
tp520
a(g519
g4
(I219
I55
tRp521
tp522
a(g521
g4
(I219
I56
tRp523
tp524
a(g523
g4
(I218
I57
tRp525
tp526
a(g525
g4
(I218
I59
tRp527
tp528
a(g527
g4
(I218
I60
tRp529
tp530
a(g529
g4
(I218
I62
tRp531
tp532
a(g531
g4
(I218
I64
tRp533
tp534
a(g533
g4
(I218
I66
tRp535
tp536
a(g535
g4
(I218
I68
tRp537
tp538
a(g537
g4
(I218
I70
tRp539
tp540
a(g539
g4
(I218
I72
tRp541
tp542
a(g541
g4
(I218
I74
tRp543
tp544
a(g543
g4
(I218
I76
tRp545
tp546
a(g545
g4
(I218
I78
tRp547
tp548
a(g547
g4
(I218
I80
tRp549
tp550
a(g549
g4
(I218
I81
tRp551
tp552
a(g551
g4
(I218
I83
tRp553
tp554
a(g553
g4
(I218
I84
tRp555
tp556
a(g555
g4
(I218
I86
tRp557
tp558
a(g557
g4
(I218
I89
tRp559
tp560
a(g559
g4
(I218
I91
tRp561
tp562
a(g561
g4
(I219
I93
tRp563
tp564
a(g563
g4
(I219
I95
tRp565
tp566
a(g565
g4
(I219
I97
tRp567
tp568
a(g567
g4
(I219
I99
tRp569
tp570
a(g569
g4
(I220
I101
tRp571
tp572
a(g571
g4
(I220
I103
tRp573
tp574
a(g573
g4
(I220
I105
tRp575
tp576
a(g575
g4
(I220
I107
tRp577
tp578
a(g577
g4
(I220
I109
tRp579
tp580
a(g579
g4
(I220
I110
tRp581
tp582
a(g581
g4
(I220
I112
tRp583
tp584
a(g583
g4
(I220
I114
tRp585
tp586
a(g585
g4
(I220
I116
tRp587
tp588
a(g587
g4
(I220
I118
tRp589
tp590
a(g589
g4
(I220
I120
tRp591
tp592
a(g591
g4
(I220
I122
tRp593
tp594
a(g593
g4
(I220
I124
tRp595
tp596
a(g595
g4
(I220
I126
tRp597
tp598
a(g597
g4
(I220
I127
tRp599
tp600
a(g599
g4
(I220
I129
tRp601
tp602
a(g601
g4
(I220
I131
tRp603
tp604
a(g603
g4
(I220
I133
tRp605
tp606
a(g605
g4
(I220
I135
tRp607
tp608
a(g607
g4
(I220
I137
tRp609
tp610
a(g609
g4
(I220
I138
tRp611
tp612
a(g611
g4
(I220
I140
tRp613
tp614
a(g613
g4
(I220
I142
tRp615
tp616
a(g615
g4
(I220
I143
tRp617
tp618
a(g617
g4
(I220
I144
tRp619
tp620
a(g619
g4
(I220
I146
tRp621
tp622
a(g621
g4
(I220
I147
tRp623
tp624
a(g623
g4
(I220
I149
tRp625
tp626
a(g625
g4
(I220
I151
tRp627
tp628
a(g627
g4
(I220
I152
tRp629
tp630
a(g629
g4
(I220
I154
tRp631
tp632
a(g631
g4
(I220
I155
tRp633
tp634
a(g633
g4
(I220
I157
tRp635
tp636
a(g635
g4
(I220
I158
tRp637
tp638
a(g637
g4
(I220
I160
tRp639
tp640
a(g639
g4
(I220
I161
tRp641
tp642
a(g641
g4
(I220
I162
tRp643
tp644
a(g643
g4
(I220
I163
tRp645
tp646
a(g645
g4
(I220
I164
tRp647
tp648
a(g647
g4
(I220
I165
tRp649
tp650
a(g649
g4
(I220
I166
tRp651
tp652
a(g651
g4
(I220
I167
tRp653
tp654
a(g653
g4
(I220
I168
tRp655
tp656
a(g655
g4
(I219
I168
tRp657
tp658
a(g657
g4
(I218
I167
tRp659
tp660
a(g659
g4
(I218
I165
tRp661
tp662
atp663
a(g2
I12
(lp664
(g4
(I223
I49
tRp665
g4
(I224
I48
tRp666
tp667
a(g666
g4
(I226
I48
tRp668
tp669
a(g668
g4
(I227
I47
tRp670
tp671
a(g670
g4
(I229
I47
tRp672
tp673
a(g672
g4
(I230
I46
tRp674
tp675
a(g674
g4
(I231
I46
tRp676
tp677
a(g676
g4
(I233
I46
tRp678
tp679
a(g678
g4
(I234
I45
tRp680
tp681
a(g680
g4
(I236
I45
tRp682
tp683
a(g682
g4
(I238
I45
tRp684
tp685
a(g684
g4
(I240
I45
tRp686
tp687
a(g686
g4
(I242
I45
tRp688
tp689
a(g688
g4
(I244
I45
tRp690
tp691
a(g690
g4
(I250
I47
tRp692
tp693
a(g692
g4
(I251
I47
tRp694
tp695
a(g694
g4
(I254
I47
tRp696
tp697
a(g696
g4
(I256
I47
tRp698
tp699
a(g698
g4
(I258
I48
tRp700
tp701
a(g700
g4
(I260
I48
tRp702
tp703
a(g702
g4
(I262
I48
tRp704
tp705
a(g704
g4
(I264
I48
tRp706
tp707
a(g706
g4
(I265
I48
tRp708
tp709
a(g708
g4
(I267
I49
tRp710
tp711
a(g710
g4
(I268
I50
tRp712
tp713
a(g712
g4
(I270
I50
tRp714
tp715
a(g714
g4
(I271
I51
tRp716
tp717
a(g716
g4
(I272
I52
tRp718
tp719
a(g718
g4
(I273
I53
tRp720
tp721
a(g720
g4
(I274
I54
tRp722
tp723
a(g722
g4
(I274
I55
tRp724
tp725
a(g724
g4
(I275
I56
tRp726
tp727
a(g726
g4
(I276
I57
tRp728
tp729
a(g728
g4
(I277
I58
tRp730
tp731
a(g730
g4
(I278
I59
tRp732
tp733
a(g732
g4
(I279
I60
tRp734
tp735
a(g734
g4
(I280
I61
tRp736
tp737
a(g736
g4
(I281
I62
tRp738
tp739
a(g738
g4
(I281
I64
tRp740
tp741
a(g740
g4
(I282
I65
tRp742
tp743
a(g742
g4
(I282
I66
tRp744
tp745
a(g744
g4
(I283
I67
tRp746
tp747
a(g746
g4
(I284
I68
tRp748
tp749
a(g748
g4
(I284
I69
tRp750
tp751
a(g750
g4
(I285
I70
tRp752
tp753
a(g752
g4
(I285
I71
tRp754
tp755
a(g754
g4
(I285
I72
tRp756
tp757
a(g756
g4
(I285
I73
tRp758
tp759
a(g758
g4
(I285
I75
tRp760
tp761
a(g760
g4
(I284
I76
tRp762
tp763
a(g762
g4
(I284
I77
tRp764
tp765
a(g764
g4
(I284
I78
tRp766
tp767
a(g766
g4
(I284
I79
tRp768
tp769
a(g768
g4
(I283
I81
tRp770
tp771
a(g770
g4
(I283
I82
tRp772
tp773
a(g772
g4
(I282
I83
tRp774
tp775
a(g774
g4
(I282
I84
tRp776
tp777
a(g776
g4
(I281
I85
tRp778
tp779
a(g778
g4
(I280
I86
tRp780
tp781
a(g780
g4
(I279
I87
tRp782
tp783
a(g782
g4
(I278
I87
tRp784
tp785
a(g784
g4
(I277
I88
tRp786
tp787
a(g786
g4
(I276
I88
tRp788
tp789
a(g788
g4
(I272
I92
tRp790
tp791
a(g790
g4
(I271
I93
tRp792
tp793
a(g792
g4
(I270
I94
tRp794
tp795
a(g794
g4
(I268
I95
tRp796
tp797
a(g796
g4
(I267
I96
tRp798
tp799
a(g798
g4
(I265
I97
tRp800
tp801
a(g800
g4
(I264
I97
tRp802
tp803
a(g802
g4
(I262
I98
tRp804
tp805
a(g804
g4
(I261
I98
tRp806
tp807
a(g806
g4
(I260
I99
tRp808
tp809
a(g808
g4
(I259
I99
tRp810
tp811
a(g810
g4
(I257
I99
tRp812
tp813
a(g812
g4
(I256
I99
tRp814
tp815
a(g814
g4
(I255
I99
tRp816
tp817
a(g816
g4
(I253
I99
tRp818
tp819
a(g818
g4
(I252
I99
tRp820
tp821
a(g820
g4
(I251
I99
tRp822
tp823
a(g822
g4
(I249
I99
tRp824
tp825
a(g824
g4
(I247
I99
tRp826
tp827
a(g826
g4
(I246
I99
tRp828
tp829
a(g828
g4
(I244
I99
tRp830
tp831
a(g830
g4
(I243
I99
tRp832
tp833
a(g832
g4
(I241
I99
tRp834
tp835
a(g834
g4
(I240
I99
tRp836
tp837
a(g836
g4
(I239
I99
tRp838
tp839
a(g838
g4
(I238
I99
tRp840
tp841
a(g840
g4
(I237
I99
tRp842
tp843
a(g842
g4
(I236
I99
tRp844
tp845
a(g844
g4
(I235
I99
tRp846
tp847
a(g846
g4
(I233
I99
tRp848
tp849
a(g848
g4
(I232
I99
tRp850
tp851
a(g850
g4
(I231
I99
tRp852
tp853
a(g852
g4
(I230
I99
tRp854
tp855
a(g854
g4
(I229
I99
tRp856
tp857
a(g856
g4
(I227
I98
tRp858
tp859
a(g858
g4
(I225
I98
tRp860
tp861
a(g860
g4
(I224
I98
tRp862
tp863
atp864
a(g2
I12
(lp865
(g4
(I290
I126
tRp866
g4
(I290
I127
tRp867
tp868
a(g867
g4
(I290
I128
tRp869
tp870
a(g869
g4
(I290
I129
tRp871
tp872
a(g871
g4
(I290
I130
tRp873
tp874
a(g873
g4
(I290
I131
tRp875
tp876
a(g875
g4
(I290
I132
tRp877
tp878
a(g877
g4
(I290
I133
tRp879
tp880
a(g879
g4
(I290
I134
tRp881
tp882
a(g881
g4
(I290
I135
tRp883
tp884
a(g883
g4
(I290
I136
tRp885
tp886
a(g885
g4
(I290
I138
tRp887
tp888
a(g887
g4
(I290
I139
tRp889
tp890
a(g889
g4
(I290
I140
tRp891
tp892
a(g891
g4
(I290
I141
tRp893
tp894
a(g893
g4
(I290
I142
tRp895
tp896
a(g895
g4
(I290
I143
tRp897
tp898
a(g897
g4
(I291
I144
tRp899
tp900
a(g899
g4
(I291
I146
tRp901
tp902
a(g901
g4
(I292
I147
tRp903
tp904
a(g903
g4
(I292
I148
tRp905
tp906
a(g905
g4
(I292
I149
tRp907
tp908
a(g907
g4
(I292
I150
tRp909
tp910
a(g909
g4
(I293
I151
tRp911
tp912
a(g911
g4
(I293
I153
tRp913
tp914
a(g913
g4
(I294
I154
tRp915
tp916
a(g915
g4
(I295
I155
tRp917
tp918
a(g917
g4
(I296
I156
tRp919
tp920
a(g919
g4
(I297
I157
tRp921
tp922
a(g921
g4
(I299
I157
tRp923
tp924
a(g923
g4
(I300
I158
tRp925
tp926
a(g925
g4
(I300
I159
tRp927
tp928
a(g927
g4
(I301
I159
tRp929
tp930
a(g929
g4
(I302
I160
tRp931
tp932
a(g931
g4
(I303
I160
tRp933
tp934
a(g933
g4
(I304
I160
tRp935
tp936
a(g935
g4
(I305
I160
tRp937
tp938
a(g937
g4
(I306
I160
tRp939
tp940
a(g939
g4
(I308
I160
tRp941
tp942
a(g941
g4
(I309
I160
tRp943
tp944
a(g943
g4
(I310
I161
tRp945
tp946
a(g945
g4
(I311
I161
tRp947
tp948
a(g947
g4
(I313
I161
tRp949
tp950
a(g949
g4
(I314
I161
tRp951
tp952
a(g951
g4
(I315
I161
tRp953
tp954
a(g953
g4
(I316
I161
tRp955
tp956
a(g955
g4
(I317
I161
tRp957
tp958
a(g957
g4
(I318
I161
tRp959
tp960
a(g959
g4
(I319
I161
tRp961
tp962
a(g961
g4
(I320
I161
tRp963
tp964
a(g963
g4
(I321
I161
tRp965
tp966
a(g965
g4
(I323
I160
tRp967
tp968
a(g967
g4
(I324
I159
tRp969
tp970
a(g969
g4
(I324
I158
tRp971
tp972
a(g971
g4
(I325
I158
tRp973
tp974
a(g973
g4
(I325
I157
tRp975
tp976
a(g975
g4
(I326
I155
tRp977
tp978
a(g977
g4
(I327
I154
tRp979
tp980
a(g979
g4
(I327
I153
tRp981
tp982
a(g981
g4
(I328
I152
tRp983
tp984
a(g983
g4
(I328
I151
tRp985
tp986
a(g985
g4
(I329
I150
tRp987
tp988
a(g987
g4
(I329
I149
tRp989
tp990
a(g989
g4
(I329
I147
tRp991
tp992
a(g991
g4
(I329
I146
tRp993
tp994
a(g993
g4
(I329
I145
tRp995
tp996
a(g995
g4
(I329
I144
tRp997
tp998
a(g997
g4
(I329
I143
tRp999
tp1000
a(g999
g4
(I329
I142
tRp1001
tp1002
a(g1001
g4
(I329
I141
tRp1003
tp1004
a(g1003
g4
(I329
I140
tRp1005
tp1006
a(g1005
g4
(I329
I138
tRp1007
tp1008
a(g1007
g4
(I329
I137
tRp1009
tp1010
a(g1009
g4
(I329
I136
tRp1011
tp1012
a(g1011
g4
(I329
I135
tRp1013
tp1014
a(g1013
g4
(I329
I134
tRp1015
tp1016
a(g1015
g4
(I329
I133
tRp1017
tp1018
atp1019
a(g2
I12
(lp1020
(g4
(I329
I138
tRp1021
g4
(I329
I139
tRp1022
tp1023
a(g1022
g4
(I330
I140
tRp1024
tp1025
a(g1024
g4
(I330
I141
tRp1026
tp1027
a(g1026
g4
(I331
I142
tRp1028
tp1029
a(g1028
g4
(I331
I143
tRp1030
tp1031
a(g1030
g4
(I331
I144
tRp1032
tp1033
a(g1032
g4
(I331
I145
tRp1034
tp1035
a(g1034
g4
(I331
I146
tRp1036
tp1037
a(g1036
g4
(I331
I148
tRp1038
tp1039
a(g1038
g4
(I331
I149
tRp1040
tp1041
a(g1040
g4
(I331
I150
tRp1042
tp1043
a(g1042
g4
(I331
I152
tRp1044
tp1045
a(g1044
g4
(I331
I153
tRp1046
tp1047
a(g1046
g4
(I331
I154
tRp1048
tp1049
a(g1048
g4
(I331
I156
tRp1050
tp1051
a(g1050
g4
(I331
I157
tRp1052
tp1053
a(g1052
g4
(I331
I159
tRp1054
tp1055
a(g1054
g4
(I331
I161
tRp1056
tp1057
a(g1056
g4
(I331
I162
tRp1058
tp1059
a(g1058
g4
(I331
I164
tRp1060
tp1061
a(g1060
g4
(I330
I166
tRp1062
tp1063
a(g1062
g4
(I330
I168
tRp1064
tp1065
a(g1064
g4
(I330
I169
tRp1066
tp1067
a(g1066
g4
(I330
I171
tRp1068
tp1069
a(g1068
g4
(I330
I173
tRp1070
tp1071
a(g1070
g4
(I329
I174
tRp1072
tp1073
a(g1072
g4
(I329
I176
tRp1074
tp1075
a(g1074
g4
(I328
I177
tRp1076
tp1077
a(g1076
g4
(I328
I179
tRp1078
tp1079
a(g1078
g4
(I327
I180
tRp1080
tp1081
a(g1080
g4
(I326
I182
tRp1082
tp1083
a(g1082
g4
(I325
I184
tRp1084
tp1085
a(g1084
g4
(I325
I186
tRp1086
tp1087
a(g1086
g4
(I324
I187
tRp1088
tp1089
a(g1088
g4
(I324
I189
tRp1090
tp1091
a(g1090
g4
(I323
I191
tRp1092
tp1093
a(g1092
g4
(I322
I192
tRp1094
tp1095
a(g1094
g4
(I321
I194
tRp1096
tp1097
a(g1096
g4
(I320
I196
tRp1098
tp1099
a(g1098
g4
(I319
I197
tRp1100
tp1101
a(g1100
g4
(I318
I198
tRp1102
tp1103
a(g1102
g4
(I317
I200
tRp1104
tp1105
a(g1104
g4
(I316
I201
tRp1106
tp1107
a(g1106
g4
(I315
I202
tRp1108
tp1109
a(g1108
g4
(I314
I203
tRp1110
tp1111
a(g1110
g4
(I313
I203
tRp1112
tp1113
a(g1112
g4
(I311
I204
tRp1114
tp1115
a(g1114
g4
(I310
I204
tRp1116
tp1117
a(g1116
g4
(I304
I206
tRp1118
tp1119
a(g1118
g4
(I302
I206
tRp1120
tp1121
a(g1120
g4
(I299
I206
tRp1122
tp1123
a(g1122
g4
(I293
I208
tRp1124
tp1125
a(g1124
g4
(I290
I208
tRp1126
tp1127
a(g1126
g4
(I288
I209
tRp1128
tp1129
a(g1128
g4
(I285
I209
tRp1130
tp1131
a(g1130
g4
(I283
I209
tRp1132
tp1133
a(g1132
g4
(I281
I209
tRp1134
tp1135
a(g1134
g4
(I278
I209
tRp1136
tp1137
a(g1136
g4
(I275
I209
tRp1138
tp1139
a(g1138
g4
(I272
I209
tRp1140
tp1141
a(g1140
g4
(I264
I209
tRp1142
tp1143
a(g1142
g4
(I261
I209
tRp1144
tp1145
a(g1144
g4
(I255
I207
tRp1146
tp1147
a(g1146
g4
(I252
I207
tRp1148
tp1149
a(g1148
g4
(I246
I205
tRp1150
tp1151
a(g1150
g4
(I244
I205
tRp1152
tp1153
a(g1152
g4
(I242
I204
tRp1154
tp1155
a(g1154
g4
(I240
I204
tRp1156
tp1157
a(g1156
g4
(I238
I203
tRp1158
tp1159
a(g1158
g4
(I236
I203
tRp1160
tp1161
a(g1160
g4
(I234
I203
tRp1162
tp1163
a(g1162
g4
(I232
I203
tRp1164
tp1165
a(g1164
g4
(I230
I203
tRp1166
tp1167
a(g1166
g4
(I228
I203
tRp1168
tp1169
a(g1168
g4
(I227
I204
tRp1170
tp1171
a(g1170
g4
(I225
I205
tRp1172
tp1173
a(g1172
g4
(I223
I205
tRp1174
tp1175
a(g1174
g4
(I222
I206
tRp1176
tp1177
a(g1176
g4
(I220
I207
tRp1178
tp1179
a(g1178
g4
(I218
I208
tRp1180
tp1181
a(g1180
g4
(I217
I209
tRp1182
tp1183
a(g1182
g4
(I215
I210
tRp1184
tp1185
a(g1184
g4
(I214
I211
tRp1186
tp1187
a(g1186
g4
(I213
I212
tRp1188
tp1189
a(g1188
g4
(I212
I213
tRp1190
tp1191
a(g1190
g4
(I211
I214
tRp1192
tp1193
a(g1192
g4
(I210
I214
tRp1194
tp1195
a(g1194
g4
(I209
I215
tRp1196
tp1197
a(g1196
g4
(I209
I216
tRp1198
tp1199
a(g1198
g4
(I208
I217
tRp1200
tp1201
a(g1200
g4
(I207
I218
tRp1202
tp1203
a(g1202
g4
(I206
I219
tRp1204
tp1205
a(g1204
g4
(I205
I220
tRp1206
tp1207
a(g1206
g4
(I204
I220
tRp1208
tp1209
a(g1208
g4
(I204
I221
tRp1210
tp1211
atp1212
a(g2
I12
(lp1213
(g4
(I351
I82
tRp1214
g4
(I352
I82
tRp1215
tp1216
a(g1215
g4
(I352
I83
tRp1217
tp1218
a(g1217
g4
(I352
I85
tRp1219
tp1220
a(g1219
g4
(I353
I86
tRp1221
tp1222
a(g1221
g4
(I353
I88
tRp1223
tp1224
a(g1223
g4
(I354
I90
tRp1225
tp1226
a(g1225
g4
(I354
I92
tRp1227
tp1228
a(g1227
g4
(I355
I94
tRp1229
tp1230
a(g1229
g4
(I355
I96
tRp1231
tp1232
a(g1231
g4
(I356
I98
tRp1233
tp1234
a(g1233
g4
(I356
I101
tRp1235
tp1236
a(g1235
g4
(I356
I103
tRp1237
tp1238
a(g1237
g4
(I356
I105
tRp1239
tp1240
a(g1239
g4
(I356
I107
tRp1241
tp1242
a(g1241
g4
(I356
I109
tRp1243
tp1244
a(g1243
g4
(I358
I115
tRp1245
tp1246
a(g1245
g4
(I358
I117
tRp1247
tp1248
a(g1247
g4
(I360
I123
tRp1249
tp1250
a(g1249
g4
(I360
I125
tRp1251
tp1252
a(g1251
g4
(I360
I127
tRp1253
tp1254
a(g1253
g4
(I360
I129
tRp1255
tp1256
a(g1255
g4
(I360
I130
tRp1257
tp1258
a(g1257
g4
(I360
I132
tRp1259
tp1260
a(g1259
g4
(I360
I134
tRp1261
tp1262
a(g1261
g4
(I360
I136
tRp1263
tp1264
a(g1263
g4
(I359
I137
tRp1265
tp1266
a(g1265
g4
(I359
I139
tRp1267
tp1268
a(g1267
g4
(I359
I141
tRp1269
tp1270
a(g1269
g4
(I358
I143
tRp1271
tp1272
a(g1271
g4
(I358
I145
tRp1273
tp1274
a(g1273
g4
(I358
I147
tRp1275
tp1276
a(g1275
g4
(I358
I149
tRp1277
tp1278
a(g1277
g4
(I358
I151
tRp1279
tp1280
a(g1279
g4
(I358
I153
tRp1281
tp1282
a(g1281
g4
(I357
I155
tRp1283
tp1284
a(g1283
g4
(I357
I156
tRp1285
tp1286
a(g1285
g4
(I357
I158
tRp1287
tp1288
a(g1287
g4
(I357
I159
tRp1289
tp1290
a(g1289
g4
(I357
I161
tRp1291
tp1292
a(g1291
g4
(I357
I162
tRp1293
tp1294
a(g1293
g4
(I357
I163
tRp1295
tp1296
a(g1295
g4
(I358
I164
tRp1297
tp1298
a(g1297
g4
(I358
I165
tRp1299
tp1300
a(g1299
g4
(I359
I166
tRp1301
tp1302
a(g1301
g4
(I360
I166
tRp1303
tp1304
a(g1303
g4
(I361
I167
tRp1305
tp1306
a(g1305
g4
(I362
I167
tRp1307
tp1308
a(g1307
g4
(I363
I168
tRp1309
tp1310
a(g1309
g4
(I365
I168
tRp1311
tp1312
a(g1311
g4
(I367
I168
tRp1313
tp1314
a(g1313
g4
(I373
I170
tRp1315
tp1316
a(g1315
g4
(I375
I170
tRp1317
tp1318
a(g1317
g4
(I378
I170
tRp1319
tp1320
a(g1319
g4
(I379
I170
tRp1321
tp1322
a(g1321
g4
(I380
I170
tRp1323
tp1324
a(g1323
g4
(I381
I170
tRp1325
tp1326
a(g1325
g4
(I380
I170
tRp1327
tp1328
a(g1327
g4
(I376
I164
tRp1329
tp1330
atp1331
a(g2
I12
(lp1332
(g4
(I346
I120
tRp1333
g4
(I347
I120
tRp1334
tp1335
a(g1334
g4
(I348
I120
tRp1336
tp1337
a(g1336
g4
(I351
I120
tRp1338
tp1339
a(g1338
g4
(I354
I120
tRp1340
tp1341
a(g1340
g4
(I362
I120
tRp1342
tp1343
a(g1342
g4
(I372
I122
tRp1344
tp1345
a(g1344
g4
(I384
I122
tRp1346
tp1347
a(g1346
g4
(I398
I122
tRp1348
tp1349
a(g1348
g4
(I410
I122
tRp1350
tp1351
a(g1350
g4
(I420
I122
tRp1352
tp1353
a(g1352
g4
(I426
I120
tRp1354
tp1355
a(g1354
g4
(I428
I120
tRp1356
tp1357
a(g1356
g4
(I428
I119
tRp1358
tp1359
atp1360
a(g2
I12
(lp1361
(g4
(I411
I61
tRp1362
g4
(I411
I62
tRp1363
tp1364
a(g1363
g4
(I411
I64
tRp1365
tp1366
a(g1365
g4
(I412
I66
tRp1367
tp1368
a(g1367
g4
(I412
I68
tRp1369
tp1370
a(g1369
g4
(I412
I70
tRp1371
tp1372
a(g1371
g4
(I414
I76
tRp1373
tp1374
a(g1373
g4
(I414
I79
tRp1375
tp1376
a(g1375
g4
(I415
I81
tRp1377
tp1378
a(g1377
g4
(I415
I84
tRp1379
tp1380
a(g1379
g4
(I415
I87
tRp1381
tp1382
a(g1381
g4
(I417
I93
tRp1383
tp1384
a(g1383
g4
(I417
I96
tRp1385
tp1386
a(g1385
g4
(I417
I99
tRp1387
tp1388
a(g1387
g4
(I419
I105
tRp1389
tp1390
a(g1389
g4
(I419
I108
tRp1391
tp1392
a(g1391
g4
(I419
I111
tRp1393
tp1394
a(g1393
g4
(I419
I114
tRp1395
tp1396
a(g1395
g4
(I419
I116
tRp1397
tp1398
a(g1397
g4
(I419
I119
tRp1399
tp1400
a(g1399
g4
(I419
I122
tRp1401
tp1402
a(g1401
g4
(I419
I124
tRp1403
tp1404
a(g1403
g4
(I419
I127
tRp1405
tp1406
a(g1405
g4
(I419
I129
tRp1407
tp1408
a(g1407
g4
(I419
I131
tRp1409
tp1410
a(g1409
g4
(I419
I133
tRp1411
tp1412
a(g1411
g4
(I419
I136
tRp1413
tp1414
a(g1413
g4
(I419
I138
tRp1415
tp1416
a(g1415
g4
(I419
I140
tRp1417
tp1418
a(g1417
g4
(I419
I142
tRp1419
tp1420
a(g1419
g4
(I419
I145
tRp1421
tp1422
a(g1421
g4
(I419
I146
tRp1423
tp1424
a(g1423
g4
(I419
I148
tRp1425
tp1426
a(g1425
g4
(I419
I150
tRp1427
tp1428
a(g1427
g4
(I419
I152
tRp1429
tp1430
a(g1429
g4
(I419
I153
tRp1431
tp1432
a(g1431
g4
(I419
I154
tRp1433
tp1434
a(g1433
g4
(I419
I155
tRp1435
tp1436
a(g1435
g4
(I419
I156
tRp1437
tp1438
a(g1437
g4
(I419
I157
tRp1439
tp1440
a(g1439
g4
(I420
I157
tRp1441
tp1442
a(g1441
g4
(I420
I158
tRp1443
tp1444
a(g1443
g4
(I420
I159
tRp1445
tp1446
a(g1445
g4
(I420
I160
tRp1447
tp1448
a(g1447
g4
(I420
I161
tRp1449
tp1450
a(g1449
g4
(I420
I162
tRp1451
tp1452
a(g1451
g4
(I420
I163
tRp1453
tp1454
a(g1453
g4
(I420
I164
tRp1455
tp1456
a(g1455
g4
(I420
I165
tRp1457
tp1458
a(g1457
g4
(I420
I166
tRp1459
tp1460
a(g1459
g4
(I420
I167
tRp1461
tp1462
a(g1461
g4
(I420
I168
tRp1463
tp1464
a(g1463
g4
(I420
I169
tRp1465
tp1466
a(g1465
g4
(I419
I171
tRp1467
tp1468
a(g1467
g4
(I419
I172
tRp1469
tp1470
a(g1469
g4
(I419
I173
tRp1471
tp1472
a(g1471
g4
(I417
I174
tRp1473
tp1474
a(g1473
g4
(I416
I174
tRp1475
tp1476
a(g1475
g4
(I415
I172
tRp1477
tp1478
a(g1477
g4
(I415
I171
tRp1479
tp1480
a(g1479
g4
(I415
I169
tRp1481
tp1482
a(g1481
g4
(I415
I168
tRp1483
tp1484
atp1485
a(g2
I12
(lp1486
(g4
(I426
I123
tRp1487
g4
(I427
I123
tRp1488
tp1489
a(g1488
g4
(I428
I123
tRp1490
tp1491
a(g1490
g4
(I430
I123
tRp1492
tp1493
a(g1492
g4
(I432
I122
tRp1494
tp1495
a(g1494
g4
(I438
I120
tRp1496
tp1497
a(g1496
g4
(I439
I120
tRp1498
tp1499
a(g1498
g4
(I440
I120
tRp1500
tp1501
a(g1500
g4
(I441
I120
tRp1502
tp1503
a(g1502
g4
(I442
I120
tRp1504
tp1505
a(g1504
g4
(I444
I120
tRp1506
tp1507
a(g1506
g4
(I446
I120
tRp1508
tp1509
a(g1508
g4
(I448
I121
tRp1510
tp1511
a(g1510
g4
(I450
I121
tRp1512
tp1513
a(g1512
g4
(I453
I121
tRp1514
tp1515
a(g1514
g4
(I455
I122
tRp1516
tp1517
a(g1516
g4
(I457
I122
tRp1518
tp1519
a(g1518
g4
(I459
I122
tRp1520
tp1521
a(g1520
g4
(I459
I123
tRp1522
tp1523
a(g1522
g4
(I461
I123
tRp1524
tp1525
a(g1524
g4
(I462
I123
tRp1526
tp1527
a(g1526
g4
(I462
I124
tRp1528
tp1529
a(g1528
g4
(I464
I124
tRp1530
tp1531
a(g1530
g4
(I465
I124
tRp1532
tp1533
a(g1532
g4
(I466
I124
tRp1534
tp1535
a(g1534
g4
(I467
I124
tRp1536
tp1537
a(g1536
g4
(I468
I124
tRp1538
tp1539
a(g1538
g4
(I469
I125
tRp1540
tp1541
a(g1540
g4
(I470
I126
tRp1542
tp1543
a(g1542
g4
(I471
I126
tRp1544
tp1545
a(g1544
g4
(I471
I127
tRp1546
tp1547
a(g1546
g4
(I471
I128
tRp1548
tp1549
a(g1548
g4
(I471
I129
tRp1550
tp1551
a(g1550
g4
(I472
I130
tRp1552
tp1553
a(g1552
g4
(I472
I131
tRp1554
tp1555
a(g1554
g4
(I472
I132
tRp1556
tp1557
a(g1556
g4
(I472
I133
tRp1558
tp1559
a(g1558
g4
(I472
I134
tRp1560
tp1561
a(g1560
g4
(I472
I135
tRp1562
tp1563
a(g1562
g4
(I472
I137
tRp1564
tp1565
a(g1564
g4
(I472
I138
tRp1566
tp1567
a(g1566
g4
(I471
I140
tRp1568
tp1569
a(g1568
g4
(I471
I141
tRp1570
tp1571
a(g1570
g4
(I470
I142
tRp1572
tp1573
a(g1572
g4
(I470
I143
tRp1574
tp1575
a(g1574
g4
(I469
I145
tRp1576
tp1577
a(g1576
g4
(I468
I146
tRp1578
tp1579
a(g1578
g4
(I467
I148
tRp1580
tp1581
a(g1580
g4
(I467
I149
tRp1582
tp1583
a(g1582
g4
(I467
I150
tRp1584
tp1585
a(g1584
g4
(I466
I152
tRp1586
tp1587
a(g1586
g4
(I466
I153
tRp1588
tp1589
a(g1588
g4
(I465
I154
tRp1590
tp1591
a(g1590
g4
(I465
I155
tRp1592
tp1593
a(g1592
g4
(I465
I156
tRp1594
tp1595
a(g1594
g4
(I465
I157
tRp1596
tp1597
a(g1596
g4
(I465
I158
tRp1598
tp1599
a(g1598
g4
(I466
I159
tRp1600
tp1601
a(g1600
g4
(I466
I160
tRp1602
tp1603
a(g1602
g4
(I466
I161
tRp1604
tp1605
a(g1604
g4
(I467
I162
tRp1606
tp1607
a(g1606
g4
(I467
I163
tRp1608
tp1609
a(g1608
g4
(I467
I164
tRp1610
tp1611
a(g1610
g4
(I467
I165
tRp1612
tp1613
a(g1612
g4
(I467
I166
tRp1614
tp1615
a(g1614
g4
(I468
I167
tRp1616
tp1617
a(g1616
g4
(I468
I168
tRp1618
tp1619
a(g1618
g4
(I469
I168
tRp1620
tp1621
a(g1620
g4
(I469
I169
tRp1622
tp1623
a(g1622
g4
(I469
I170
tRp1624
tp1625
a(g1624
g4
(I470
I171
tRp1626
tp1627
a(g1626
g4
(I470
I172
tRp1628
tp1629
a(g1628
g4
(I470
I173
tRp1630
tp1631
a(g1630
g4
(I471
I173
tRp1632
tp1633
a(g1632
g4
(I471
I174
tRp1634
tp1635
a(g1634
g4
(I471
I175
tRp1636
tp1637
atp1638
a(g2
I12
(lp1639
(g4
(I510
I122
tRp1640
g4
(I509
I122
tRp1641
tp1642
a(g1641
g4
(I508
I123
tRp1643
tp1644
a(g1643
g4
(I506
I124
tRp1645
tp1646
a(g1645
g4
(I505
I125
tRp1647
tp1648
a(g1647
g4
(I503
I126
tRp1649
tp1650
a(g1649
g4
(I502
I127
tRp1651
tp1652
a(g1651
g4
(I501
I128
tRp1653
tp1654
a(g1653
g4
(I500
I129
tRp1655
tp1656
a(g1655
g4
(I496
I133
tRp1657
tp1658
a(g1657
g4
(I495
I134
tRp1659
tp1660
a(g1659
g4
(I494
I136
tRp1661
tp1662
a(g1661
g4
(I494
I137
tRp1663
tp1664
a(g1663
g4
(I493
I138
tRp1665
tp1666
a(g1665
g4
(I493
I139
tRp1667
tp1668
a(g1667
g4
(I493
I140
tRp1669
tp1670
a(g1669
g4
(I492
I142
tRp1671
tp1672
a(g1671
g4
(I492
I143
tRp1673
tp1674
a(g1673
g4
(I491
I144
tRp1675
tp1676
a(g1675
g4
(I491
I146
tRp1677
tp1678
a(g1677
g4
(I490
I147
tRp1679
tp1680
a(g1679
g4
(I490
I149
tRp1681
tp1682
a(g1681
g4
(I490
I151
tRp1683
tp1684
a(g1683
g4
(I490
I152
tRp1685
tp1686
a(g1685
g4
(I490
I154
tRp1687
tp1688
a(g1687
g4
(I490
I156
tRp1689
tp1690
a(g1689
g4
(I490
I158
tRp1691
tp1692
a(g1691
g4
(I490
I159
tRp1693
tp1694
a(g1693
g4
(I494
I163
tRp1695
tp1696
a(g1695
g4
(I494
I164
tRp1697
tp1698
a(g1697
g4
(I495
I166
tRp1699
tp1700
a(g1699
g4
(I496
I167
tRp1701
tp1702
a(g1701
g4
(I497
I168
tRp1703
tp1704
a(g1703
g4
(I498
I169
tRp1705
tp1706
a(g1705
g4
(I499
I170
tRp1707
tp1708
a(g1707
g4
(I500
I171
tRp1709
tp1710
a(g1709
g4
(I501
I172
tRp1711
tp1712
a(g1711
g4
(I503
I173
tRp1713
tp1714
a(g1713
g4
(I505
I174
tRp1715
tp1716
a(g1715
g4
(I507
I175
tRp1717
tp1718
a(g1717
g4
(I509
I175
tRp1719
tp1720
a(g1719
g4
(I515
I177
tRp1721
tp1722
a(g1721
g4
(I518
I177
tRp1723
tp1724
a(g1723
g4
(I521
I177
tRp1725
tp1726
a(g1725
g4
(I523
I177
tRp1727
tp1728
a(g1727
g4
(I525
I177
tRp1729
tp1730
a(g1729
g4
(I527
I177
tRp1731
tp1732
a(g1731
g4
(I529
I177
tRp1733
tp1734
a(g1733
g4
(I531
I177
tRp1735
tp1736
a(g1735
g4
(I532
I177
tRp1737
tp1738
a(g1737
g4
(I534
I177
tRp1739
tp1740
a(g1739
g4
(I540
I175
tRp1741
tp1742
a(g1741
g4
(I541
I174
tRp1743
tp1744
a(g1743
g4
(I542
I173
tRp1745
tp1746
a(g1745
g4
(I543
I171
tRp1747
tp1748
a(g1747
g4
(I544
I170
tRp1749
tp1750
a(g1749
g4
(I545
I168
tRp1751
tp1752
a(g1751
g4
(I546
I167
tRp1753
tp1754
a(g1753
g4
(I547
I166
tRp1755
tp1756
a(g1755
g4
(I547
I165
tRp1757
tp1758
a(g1757
g4
(I548
I163
tRp1759
tp1760
a(g1759
g4
(I549
I162
tRp1761
tp1762
a(g1761
g4
(I549
I161
tRp1763
tp1764
a(g1763
g4
(I549
I160
tRp1765
tp1766
a(g1765
g4
(I549
I159
tRp1767
tp1768
a(g1767
g4
(I548
I158
tRp1769
tp1770
a(g1769
g4
(I548
I156
tRp1771
tp1772
a(g1771
g4
(I547
I155
tRp1773
tp1774
a(g1773
g4
(I546
I153
tRp1775
tp1776
a(g1775
g4
(I545
I151
tRp1777
tp1778
a(g1777
g4
(I545
I149
tRp1779
tp1780
a(g1779
g4
(I544
I147
tRp1781
tp1782
a(g1781
g4
(I544
I145
tRp1783
tp1784
a(g1783
g4
(I543
I144
tRp1785
tp1786
a(g1785
g4
(I543
I143
tRp1787
tp1788
a(g1787
g4
(I539
I139
tRp1789
tp1790
a(g1789
g4
(I538
I138
tRp1791
tp1792
a(g1791
g4
(I537
I137
tRp1793
tp1794
a(g1793
g4
(I536
I136
tRp1795
tp1796
a(g1795
g4
(I535
I136
tRp1797
tp1798
a(g1797
g4
(I534
I135
tRp1799
tp1800
a(g1799
g4
(I534
I134
tRp1801
tp1802
a(g1801
g4
(I533
I134
tRp1803
tp1804
a(g1803
g4
(I532
I133
tRp1805
tp1806
a(g1805
g4
(I531
I133
tRp1807
tp1808
a(g1807
g4
(I530
I132
tRp1809
tp1810
a(g1809
g4
(I529
I132
tRp1811
tp1812
a(g1811
g4
(I527
I132
tRp1813
tp1814
a(g1813
g4
(I526
I131
tRp1815
tp1816
a(g1815
g4
(I525
I131
tRp1817
tp1818
a(g1817
g4
(I523
I130
tRp1819
tp1820
a(g1819
g4
(I522
I130
tRp1821
tp1822
a(g1821
g4
(I519
I130
tRp1823
tp1824
a(g1823
g4
(I518
I130
tRp1825
tp1826
a(g1825
g4
(I517
I130
tRp1827
tp1828
a(g1827
g4
(I515
I130
tRp1829
tp1830
a(g1829
g4
(I512
I130
tRp1831
tp1832
a(g1831
g4
(I511
I130
tRp1833
tp1834
atp1835
a(g2
I12
(lp1836
(g4
(I564
I124
tRp1837
g4
(I565
I125
tRp1838
tp1839
a(g1838
g4
(I566
I127
tRp1840
tp1841
a(g1840
g4
(I566
I129
tRp1842
tp1843
a(g1842
g4
(I567
I131
tRp1844
tp1845
a(g1844
g4
(I567
I134
tRp1846
tp1847
a(g1846
g4
(I568
I136
tRp1848
tp1849
a(g1848
g4
(I568
I138
tRp1850
tp1851
a(g1850
g4
(I568
I140
tRp1852
tp1853
a(g1852
g4
(I568
I142
tRp1854
tp1855
a(g1854
g4
(I568
I143
tRp1856
tp1857
a(g1856
g4
(I568
I145
tRp1858
tp1859
a(g1858
g4
(I568
I147
tRp1860
tp1861
a(g1860
g4
(I568
I149
tRp1862
tp1863
a(g1862
g4
(I568
I151
tRp1864
tp1865
a(g1864
g4
(I568
I152
tRp1866
tp1867
a(g1866
g4
(I568
I154
tRp1868
tp1869
a(g1868
g4
(I568
I156
tRp1870
tp1871
a(g1870
g4
(I568
I158
tRp1872
tp1873
a(g1872
g4
(I568
I159
tRp1874
tp1875
a(g1874
g4
(I568
I160
tRp1876
tp1877
a(g1876
g4
(I567
I161
tRp1878
tp1879
a(g1878
g4
(I567
I162
tRp1880
tp1881
a(g1880
g4
(I567
I163
tRp1882
tp1883
a(g1882
g4
(I567
I164
tRp1884
tp1885
a(g1884
g4
(I567
I166
tRp1886
tp1887
a(g1886
g4
(I567
I167
tRp1888
tp1889
a(g1888
g4
(I567
I168
tRp1890
tp1891
a(g1890
g4
(I567
I170
tRp1892
tp1893
a(g1892
g4
(I567
I171
tRp1894
tp1895
a(g1894
g4
(I567
I173
tRp1896
tp1897
a(g1896
g4
(I567
I174
tRp1898
tp1899
a(g1898
g4
(I567
I175
tRp1900
tp1901
a(g1900
g4
(I567
I176
tRp1902
tp1903
a(g1902
g4
(I566
I177
tRp1904
tp1905
a(g1904
g4
(I566
I178
tRp1906
tp1907
a(g1906
g4
(I566
I179
tRp1908
tp1909
a(g1908
g4
(I566
I180
tRp1910
tp1911
a(g1910
g4
(I566
I181
tRp1912
tp1913
a(g1912
g4
(I566
I182
tRp1914
tp1915
a(g1914
g4
(I567
I183
tRp1916
tp1917
a(g1916
g4
(I567
I184
tRp1918
tp1919
a(g1918
g4
(I568
I184
tRp1920
tp1921
a(g1920
g4
(I568
I183
tRp1922
tp1923
a(g1922
g4
(I568
I182
tRp1924
tp1925
a(g1924
g4
(I568
I181
tRp1926
tp1927
a(g1926
g4
(I568
I180
tRp1928
tp1929
a(g1928
g4
(I568
I179
tRp1930
tp1931
atp1932
a(g2
I12
(lp1933
(g4
(I570
I137
tRp1934
g4
(I571
I136
tRp1935
tp1936
a(g1935
g4
(I572
I136
tRp1937
tp1938
a(g1937
g4
(I572
I135
tRp1939
tp1940
a(g1939
g4
(I573
I135
tRp1941
tp1942
a(g1941
g4
(I574
I134
tRp1943
tp1944
a(g1943
g4
(I575
I133
tRp1945
tp1946
a(g1945
g4
(I576
I132
tRp1947
tp1948
a(g1947
g4
(I577
I131
tRp1949
tp1950
a(g1949
g4
(I578
I130
tRp1951
tp1952
a(g1951
g4
(I579
I130
tRp1953
tp1954
a(g1953
g4
(I580
I129
tRp1955
tp1956
a(g1955
g4
(I582
I128
tRp1957
tp1958
a(g1957
g4
(I583
I128
tRp1959
tp1960
a(g1959
g4
(I584
I127
tRp1961
tp1962
a(g1961
g4
(I586
I127
tRp1963
tp1964
a(g1963
g4
(I586
I126
tRp1965
tp1966
a(g1965
g4
(I587
I126
tRp1967
tp1968
a(g1967
g4
(I588
I125
tRp1969
tp1970
a(g1969
g4
(I589
I125
tRp1971
tp1972
a(g1971
g4
(I590
I125
tRp1973
tp1974
a(g1973
g4
(I592
I125
tRp1975
tp1976
a(g1975
g4
(I593
I126
tRp1977
tp1978
a(g1977
g4
(I593
I127
tRp1979
tp1980
a(g1979
g4
(I595
I128
tRp1981
tp1982
a(g1981
g4
(I596
I129
tRp1983
tp1984
a(g1983
g4
(I597
I130
tRp1985
tp1986
a(g1985
g4
(I598
I131
tRp1987
tp1988
a(g1987
g4
(I599
I132
tRp1989
tp1990
a(g1989
g4
(I600
I133
tRp1991
tp1992
a(g1991
g4
(I600
I135
tRp1993
tp1994
a(g1993
g4
(I601
I136
tRp1995
tp1996
a(g1995
g4
(I602
I137
tRp1997
tp1998
a(g1997
g4
(I602
I138
tRp1999
tp2000
a(g1999
g4
(I603
I140
tRp2001
tp2002
a(g2001
g4
(I603
I141
tRp2003
tp2004
a(g2003
g4
(I604
I142
tRp2005
tp2006
a(g2005
g4
(I604
I143
tRp2007
tp2008
a(g2007
g4
(I605
I144
tRp2009
tp2010
a(g2009
g4
(I605
I145
tRp2011
tp2012
a(g2011
g4
(I605
I147
tRp2013
tp2014
a(g2013
g4
(I606
I148
tRp2015
tp2016
a(g2015
g4
(I606
I150
tRp2017
tp2018
a(g2017
g4
(I606
I151
tRp2019
tp2020
a(g2019
g4
(I606
I152
tRp2021
tp2022
a(g2021
g4
(I607
I153
tRp2023
tp2024
a(g2023
g4
(I608
I155
tRp2025
tp2026
a(g2025
g4
(I608
I156
tRp2027
tp2028
a(g2027
g4
(I608
I157
tRp2029
tp2030
a(g2029
g4
(I608
I158
tRp2031
tp2032
a(g2031
g4
(I609
I158
tRp2033
tp2034
a(g2033
g4
(I609
I159
tRp2035
tp2036
a(g2035
g4
(I609
I160
tRp2037
tp2038
a(g2037
g4
(I609
I161
tRp2039
tp2040
a(g2039
g4
(I609
I163
tRp2041
tp2042
a(g2041
g4
(I609
I164
tRp2043
tp2044
a(g2043
g4
(I610
I165
tRp2045
tp2046
a(g2045
g4
(I610
I166
tRp2047
tp2048
a(g2047
g4
(I610
I167
tRp2049
tp2050
a(g2049
g4
(I610
I169
tRp2051
tp2052
a(g2051
g4
(I611
I170
tRp2053
tp2054
a(g2053
g4
(I611
I171
tRp2055
tp2056
a(g2055
g4
(I612
I172
tRp2057
tp2058
a(g2057
g4
(I612
I173
tRp2059
tp2060
a(g2059
g4
(I613
I174
tRp2061
tp2062
a(g2061
g4
(I613
I176
tRp2063
tp2064
a(g2063
g4
(I614
I177
tRp2065
tp2066
a(g2065
g4
(I614
I178
tRp2067
tp2068
a(g2067
g4
(I615
I179
tRp2069
tp2070
a(g2069
g4
(I615
I180
tRp2071
tp2072
a(g2071
g4
(I616
I181
tRp2073
tp2074
a(g2073
g4
(I616
I183
tRp2075
tp2076
a(g2075
g4
(I617
I183
tRp2077
tp2078
a(g2077
g4
(I617
I184
tRp2079
tp2080
a(g2079
g4
(I617
I185
tRp2081
tp2082
a(g2081
g4
(I617
I186
tRp2083
tp2084
a(g2083
g4
(I617
I187
tRp2085
tp2086
a(g2085
g4
(I616
I186
tRp2087
tp2088
atp2089
a(S'Navy'
p2090
I12
(lp2091
(g4
(I127
I281
tRp2092
g4
(I127
I282
tRp2093
tp2094
a(g2093
g4
(I127
I284
tRp2095
tp2096
a(g2095
g4
(I126
I286
tRp2097
tp2098
a(g2097
g4
(I126
I288
tRp2099
tp2100
a(g2099
g4
(I126
I290
tRp2101
tp2102
a(g2101
g4
(I126
I292
tRp2103
tp2104
a(g2103
g4
(I126
I295
tRp2105
tp2106
a(g2105
g4
(I126
I297
tRp2107
tp2108
a(g2107
g4
(I126
I300
tRp2109
tp2110
a(g2109
g4
(I126
I303
tRp2111
tp2112
a(g2111
g4
(I128
I309
tRp2113
tp2114
a(g2113
g4
(I128
I312
tRp2115
tp2116
a(g2115
g4
(I128
I315
tRp2117
tp2118
a(g2117
g4
(I130
I321
tRp2119
tp2120
a(g2119
g4
(I130
I324
tRp2121
tp2122
a(g2121
g4
(I130
I327
tRp2123
tp2124
a(g2123
g4
(I130
I329
tRp2125
tp2126
a(g2125
g4
(I132
I335
tRp2127
tp2128
a(g2127
g4
(I132
I338
tRp2129
tp2130
a(g2129
g4
(I133
I340
tRp2131
tp2132
a(g2131
g4
(I133
I343
tRp2133
tp2134
a(g2133
g4
(I135
I349
tRp2135
tp2136
a(g2135
g4
(I135
I352
tRp2137
tp2138
a(g2137
g4
(I135
I355
tRp2139
tp2140
a(g2139
g4
(I135
I357
tRp2141
tp2142
a(g2141
g4
(I135
I359
tRp2143
tp2144
a(g2143
g4
(I135
I360
tRp2145
tp2146
a(g2145
g4
(I135
I361
tRp2147
tp2148
a(g2147
g4
(I136
I361
tRp2149
tp2150
a(g2149
g4
(I136
I363
tRp2151
tp2152
a(g2151
g4
(I137
I364
tRp2153
tp2154
a(g2153
g4
(I137
I365
tRp2155
tp2156
a(g2155
g4
(I137
I367
tRp2157
tp2158
a(g2157
g4
(I137
I368
tRp2159
tp2160
a(g2159
g4
(I138
I369
tRp2161
tp2162
a(g2161
g4
(I138
I370
tRp2163
tp2164
a(g2163
g4
(I138
I371
tRp2165
tp2166
a(g2165
g4
(I137
I371
tRp2167
tp2168
atp2169
a(g2090
I12
(lp2170
(g4
(I129
I282
tRp2171
g4
(I130
I282
tRp2172
tp2173
a(g2172
g4
(I132
I282
tRp2174
tp2175
a(g2174
g4
(I134
I282
tRp2176
tp2177
a(g2176
g4
(I137
I282
tRp2178
tp2179
a(g2178
g4
(I143
I280
tRp2180
tp2181
a(g2180
g4
(I153
I276
tRp2182
tp2183
a(g2182
g4
(I159
I274
tRp2184
tp2185
a(g2184
g4
(I165
I272
tRp2186
tp2187
a(g2186
g4
(I171
I268
tRp2188
tp2189
a(g2188
g4
(I173
I267
tRp2190
tp2191
a(g2190
g4
(I174
I267
tRp2192
tp2193
a(g2192
g4
(I175
I266
tRp2194
tp2195
a(g2194
g4
(I176
I266
tRp2196
tp2197
a(g2196
g4
(I177
I266
tRp2198
tp2199
a(g2198
g4
(I178
I266
tRp2200
tp2201
a(g2200
g4
(I180
I266
tRp2202
tp2203
a(g2202
g4
(I181
I266
tRp2204
tp2205
a(g2204
g4
(I183
I266
tRp2206
tp2207
a(g2206
g4
(I185
I266
tRp2208
tp2209
a(g2208
g4
(I187
I267
tRp2210
tp2211
a(g2210
g4
(I188
I267
tRp2212
tp2213
a(g2212
g4
(I190
I268
tRp2214
tp2215
a(g2214
g4
(I192
I268
tRp2216
tp2217
a(g2216
g4
(I192
I269
tRp2218
tp2219
a(g2218
g4
(I193
I270
tRp2220
tp2221
a(g2220
g4
(I194
I271
tRp2222
tp2223
a(g2222
g4
(I195
I272
tRp2224
tp2225
a(g2224
g4
(I196
I273
tRp2226
tp2227
a(g2226
g4
(I197
I274
tRp2228
tp2229
a(g2228
g4
(I197
I275
tRp2230
tp2231
a(g2230
g4
(I198
I276
tRp2232
tp2233
a(g2232
g4
(I198
I277
tRp2234
tp2235
a(g2234
g4
(I198
I279
tRp2236
tp2237
a(g2236
g4
(I199
I280
tRp2238
tp2239
a(g2238
g4
(I199
I282
tRp2240
tp2241
a(g2240
g4
(I199
I283
tRp2242
tp2243
a(g2242
g4
(I199
I284
tRp2244
tp2245
a(g2244
g4
(I199
I285
tRp2246
tp2247
a(g2246
g4
(I198
I287
tRp2248
tp2249
a(g2248
g4
(I198
I288
tRp2250
tp2251
a(g2250
g4
(I197
I290
tRp2252
tp2253
a(g2252
g4
(I196
I291
tRp2254
tp2255
a(g2254
g4
(I196
I292
tRp2256
tp2257
a(g2256
g4
(I195
I293
tRp2258
tp2259
a(g2258
g4
(I194
I295
tRp2260
tp2261
a(g2260
g4
(I193
I296
tRp2262
tp2263
a(g2262
g4
(I192
I296
tRp2264
tp2265
a(g2264
g4
(I191
I297
tRp2266
tp2267
a(g2266
g4
(I190
I297
tRp2268
tp2269
a(g2268
g4
(I188
I298
tRp2270
tp2271
a(g2270
g4
(I186
I299
tRp2272
tp2273
a(g2272
g4
(I184
I299
tRp2274
tp2275
a(g2274
g4
(I182
I300
tRp2276
tp2277
a(g2276
g4
(I176
I302
tRp2278
tp2279
a(g2278
g4
(I174
I303
tRp2280
tp2281
a(g2280
g4
(I172
I304
tRp2282
tp2283
a(g2282
g4
(I170
I304
tRp2284
tp2285
a(g2284
g4
(I169
I305
tRp2286
tp2287
a(g2286
g4
(I167
I306
tRp2288
tp2289
a(g2288
g4
(I166
I307
tRp2290
tp2291
a(g2290
g4
(I164
I307
tRp2292
tp2293
a(g2292
g4
(I163
I308
tRp2294
tp2295
a(g2294
g4
(I161
I308
tRp2296
tp2297
a(g2296
g4
(I160
I309
tRp2298
tp2299
a(g2298
g4
(I158
I310
tRp2300
tp2301
a(g2300
g4
(I156
I310
tRp2302
tp2303
a(g2302
g4
(I154
I311
tRp2304
tp2305
a(g2304
g4
(I152
I312
tRp2306
tp2307
a(g2306
g4
(I151
I313
tRp2308
tp2309
a(g2308
g4
(I149
I314
tRp2310
tp2311
a(g2310
g4
(I147
I314
tRp2312
tp2313
a(g2312
g4
(I146
I315
tRp2314
tp2315
a(g2314
g4
(I145
I316
tRp2316
tp2317
a(g2316
g4
(I144
I316
tRp2318
tp2319
a(g2318
g4
(I144
I317
tRp2320
tp2321
a(g2320
g4
(I143
I318
tRp2322
tp2323
a(g2322
g4
(I142
I319
tRp2324
tp2325
a(g2324
g4
(I141
I320
tRp2326
tp2327
a(g2326
g4
(I141
I321
tRp2328
tp2329
a(g2328
g4
(I140
I322
tRp2330
tp2331
a(g2330
g4
(I140
I323
tRp2332
tp2333
a(g2332
g4
(I141
I323
tRp2334
tp2335
atp2336
a(g2090
I12
(lp2337
(g4
(I147
I318
tRp2338
g4
(I148
I318
tRp2339
tp2340
a(g2339
g4
(I154
I320
tRp2341
tp2342
a(g2341
g4
(I157
I320
tRp2343
tp2344
a(g2343
g4
(I159
I321
tRp2345
tp2346
a(g2345
g4
(I162
I321
tRp2347
tp2348
a(g2347
g4
(I168
I323
tRp2349
tp2350
a(g2349
g4
(I171
I323
tRp2351
tp2352
a(g2351
g4
(I173
I324
tRp2353
tp2354
a(g2353
g4
(I175
I325
tRp2355
tp2356
a(g2355
g4
(I177
I325
tRp2357
tp2358
a(g2357
g4
(I179
I326
tRp2359
tp2360
a(g2359
g4
(I181
I326
tRp2361
tp2362
a(g2361
g4
(I183
I327
tRp2363
tp2364
a(g2363
g4
(I189
I329
tRp2365
tp2366
a(g2365
g4
(I191
I329
tRp2367
tp2368
a(g2367
g4
(I193
I330
tRp2369
tp2370
a(g2369
g4
(I197
I334
tRp2371
tp2372
a(g2371
g4
(I199
I335
tRp2373
tp2374
a(g2373
g4
(I205
I337
tRp2375
tp2376
a(g2375
g4
(I209
I341
tRp2377
tp2378
a(g2377
g4
(I210
I342
tRp2379
tp2380
a(g2379
g4
(I211
I343
tRp2381
tp2382
a(g2381
g4
(I212
I344
tRp2383
tp2384
a(g2383
g4
(I213
I346
tRp2385
tp2386
a(g2385
g4
(I214
I347
tRp2387
tp2388
a(g2387
g4
(I215
I348
tRp2389
tp2390
a(g2389
g4
(I216
I350
tRp2391
tp2392
a(g2391
g4
(I217
I351
tRp2393
tp2394
a(g2393
g4
(I218
I352
tRp2395
tp2396
a(g2395
g4
(I219
I353
tRp2397
tp2398
a(g2397
g4
(I220
I354
tRp2399
tp2400
a(g2399
g4
(I220
I355
tRp2401
tp2402
a(g2401
g4
(I221
I356
tRp2403
tp2404
a(g2403
g4
(I222
I358
tRp2405
tp2406
a(g2405
g4
(I222
I359
tRp2407
tp2408
a(g2407
g4
(I223
I360
tRp2409
tp2410
a(g2409
g4
(I223
I362
tRp2411
tp2412
a(g2411
g4
(I224
I363
tRp2413
tp2414
a(g2413
g4
(I224
I365
tRp2415
tp2416
a(g2415
g4
(I225
I366
tRp2417
tp2418
a(g2417
g4
(I225
I367
tRp2419
tp2420
a(g2419
g4
(I226
I368
tRp2421
tp2422
a(g2421
g4
(I227
I369
tRp2423
tp2424
a(g2423
g4
(I227
I370
tRp2425
tp2426
a(g2425
g4
(I228
I370
tRp2427
tp2428
a(g2427
g4
(I228
I369
tRp2429
tp2430
a(g2429
g4
(I229
I368
tRp2431
tp2432
a(g2431
g4
(I230
I368
tRp2433
tp2434
atp2435
a(g2090
I12
(lp2436
(g4
(I255
I333
tRp2437
g4
(I255
I334
tRp2438
tp2439
a(g2438
g4
(I253
I335
tRp2440
tp2441
a(g2440
g4
(I252
I336
tRp2442
tp2443
a(g2442
g4
(I251
I338
tRp2444
tp2445
a(g2444
g4
(I250
I340
tRp2446
tp2447
a(g2446
g4
(I249
I342
tRp2448
tp2449
a(g2448
g4
(I249
I344
tRp2450
tp2451
a(g2450
g4
(I249
I346
tRp2452
tp2453
a(g2452
g4
(I249
I348
tRp2454
tp2455
a(g2454
g4
(I249
I351
tRp2456
tp2457
a(g2456
g4
(I249
I352
tRp2458
tp2459
a(g2458
g4
(I250
I354
tRp2460
tp2461
a(g2460
g4
(I251
I356
tRp2462
tp2463
a(g2462
g4
(I251
I357
tRp2464
tp2465
a(g2464
g4
(I252
I358
tRp2466
tp2467
a(g2466
g4
(I252
I359
tRp2468
tp2469
a(g2468
g4
(I253
I360
tRp2470
tp2471
a(g2470
g4
(I254
I361
tRp2472
tp2473
a(g2472
g4
(I256
I362
tRp2474
tp2475
a(g2474
g4
(I257
I362
tRp2476
tp2477
a(g2476
g4
(I259
I362
tRp2478
tp2479
a(g2478
g4
(I260
I362
tRp2480
tp2481
a(g2480
g4
(I262
I362
tRp2482
tp2483
a(g2482
g4
(I264
I362
tRp2484
tp2485
a(g2484
g4
(I266
I362
tRp2486
tp2487
a(g2486
g4
(I268
I362
tRp2488
tp2489
a(g2488
g4
(I274
I360
tRp2490
tp2491
a(g2490
g4
(I276
I359
tRp2492
tp2493
a(g2492
g4
(I278
I359
tRp2494
tp2495
a(g2494
g4
(I280
I358
tRp2496
tp2497
a(g2496
g4
(I282
I357
tRp2498
tp2499
a(g2498
g4
(I284
I356
tRp2500
tp2501
a(g2500
g4
(I286
I355
tRp2502
tp2503
a(g2502
g4
(I288
I354
tRp2504
tp2505
a(g2504
g4
(I288
I353
tRp2506
tp2507
a(g2506
g4
(I289
I352
tRp2508
tp2509
a(g2508
g4
(I289
I351
tRp2510
tp2511
a(g2510
g4
(I289
I350
tRp2512
tp2513
a(g2512
g4
(I289
I348
tRp2514
tp2515
a(g2514
g4
(I289
I347
tRp2516
tp2517
a(g2516
g4
(I289
I346
tRp2518
tp2519
a(g2518
g4
(I288
I345
tRp2520
tp2521
a(g2520
g4
(I288
I344
tRp2522
tp2523
a(g2522
g4
(I287
I343
tRp2524
tp2525
a(g2524
g4
(I286
I343
tRp2526
tp2527
a(g2526
g4
(I284
I342
tRp2528
tp2529
a(g2528
g4
(I283
I341
tRp2530
tp2531
a(g2530
g4
(I281
I341
tRp2532
tp2533
a(g2532
g4
(I280
I339
tRp2534
tp2535
a(g2534
g4
(I278
I338
tRp2536
tp2537
a(g2536
g4
(I276
I337
tRp2538
tp2539
a(g2538
g4
(I274
I336
tRp2540
tp2541
a(g2540
g4
(I272
I335
tRp2542
tp2543
a(g2542
g4
(I270
I334
tRp2544
tp2545
a(g2544
g4
(I268
I334
tRp2546
tp2547
a(g2546
g4
(I266
I333
tRp2548
tp2549
a(g2548
g4
(I265
I333
tRp2550
tp2551
a(g2550
g4
(I264
I333
tRp2552
tp2553
a(g2552
g4
(I263
I333
tRp2554
tp2555
a(g2554
g4
(I262
I333
tRp2556
tp2557
a(g2556
g4
(I261
I333
tRp2558
tp2559
a(g2558
g4
(I260
I333
tRp2560
tp2561
a(g2560
g4
(I259
I333
tRp2562
tp2563
atp2564
a(g2090
I12
(lp2565
(g4
(I327
I336
tRp2566
g4
(I326
I336
tRp2567
tp2568
a(g2567
g4
(I326
I334
tRp2569
tp2570
a(g2569
g4
(I325
I334
tRp2571
tp2572
a(g2571
g4
(I325
I332
tRp2573
tp2574
a(g2573
g4
(I324
I332
tRp2575
tp2576
a(g2575
g4
(I324
I331
tRp2577
tp2578
a(g2577
g4
(I323
I331
tRp2579
tp2580
a(g2579
g4
(I322
I331
tRp2581
tp2582
a(g2581
g4
(I321
I331
tRp2583
tp2584
a(g2583
g4
(I319
I331
tRp2585
tp2586
a(g2585
g4
(I318
I331
tRp2587
tp2588
a(g2587
g4
(I316
I331
tRp2589
tp2590
a(g2589
g4
(I316
I332
tRp2591
tp2592
a(g2591
g4
(I315
I332
tRp2593
tp2594
a(g2593
g4
(I315
I333
tRp2595
tp2596
a(g2595
g4
(I314
I334
tRp2597
tp2598
a(g2597
g4
(I314
I335
tRp2599
tp2600
a(g2599
g4
(I313
I336
tRp2601
tp2602
a(g2601
g4
(I312
I337
tRp2603
tp2604
a(g2603
g4
(I312
I338
tRp2605
tp2606
a(g2605
g4
(I311
I339
tRp2607
tp2608
a(g2607
g4
(I311
I340
tRp2609
tp2610
a(g2609
g4
(I311
I341
tRp2611
tp2612
a(g2611
g4
(I311
I342
tRp2613
tp2614
a(g2613
g4
(I311
I343
tRp2615
tp2616
a(g2615
g4
(I311
I344
tRp2617
tp2618
a(g2617
g4
(I311
I346
tRp2619
tp2620
a(g2619
g4
(I311
I347
tRp2621
tp2622
a(g2621
g4
(I311
I349
tRp2623
tp2624
a(g2623
g4
(I311
I350
tRp2625
tp2626
a(g2625
g4
(I311
I351
tRp2627
tp2628
a(g2627
g4
(I312
I352
tRp2629
tp2630
a(g2629
g4
(I313
I353
tRp2631
tp2632
a(g2631
g4
(I314
I354
tRp2633
tp2634
a(g2633
g4
(I314
I355
tRp2635
tp2636
a(g2635
g4
(I315
I355
tRp2637
tp2638
a(g2637
g4
(I316
I356
tRp2639
tp2640
a(g2639
g4
(I317
I357
tRp2641
tp2642
a(g2641
g4
(I318
I358
tRp2643
tp2644
a(g2643
g4
(I319
I359
tRp2645
tp2646
a(g2645
g4
(I320
I360
tRp2647
tp2648
a(g2647
g4
(I321
I361
tRp2649
tp2650
a(g2649
g4
(I323
I361
tRp2651
tp2652
a(g2651
g4
(I325
I362
tRp2653
tp2654
a(g2653
g4
(I327
I362
tRp2655
tp2656
a(g2655
g4
(I329
I363
tRp2657
tp2658
a(g2657
g4
(I331
I363
tRp2659
tp2660
a(g2659
g4
(I333
I363
tRp2661
tp2662
a(g2661
g4
(I334
I363
tRp2663
tp2664
a(g2663
g4
(I336
I363
tRp2665
tp2666
a(g2665
g4
(I337
I363
tRp2667
tp2668
a(g2667
g4
(I338
I363
tRp2669
tp2670
a(g2669
g4
(I340
I362
tRp2671
tp2672
a(g2671
g4
(I342
I362
tRp2673
tp2674
a(g2673
g4
(I344
I361
tRp2675
tp2676
a(g2675
g4
(I346
I361
tRp2677
tp2678
a(g2677
g4
(I347
I360
tRp2679
tp2680
a(g2679
g4
(I348
I360
tRp2681
tp2682
a(g2681
g4
(I349
I360
tRp2683
tp2684
atp2685
a(g2090
I12
(lp2686
(g4
(I354
I286
tRp2687
g4
(I354
I287
tRp2688
tp2689
a(g2688
g4
(I354
I290
tRp2690
tp2691
a(g2690
g4
(I354
I292
tRp2692
tp2693
a(g2692
g4
(I354
I295
tRp2694
tp2695
a(g2694
g4
(I355
I297
tRp2696
tp2697
a(g2696
g4
(I355
I299
tRp2698
tp2699
a(g2698
g4
(I356
I301
tRp2700
tp2701
a(g2700
g4
(I357
I303
tRp2702
tp2703
a(g2702
g4
(I358
I305
tRp2704
tp2705
a(g2704
g4
(I359
I307
tRp2706
tp2707
a(g2706
g4
(I359
I309
tRp2708
tp2709
a(g2708
g4
(I360
I310
tRp2710
tp2711
a(g2710
g4
(I361
I312
tRp2712
tp2713
a(g2712
g4
(I361
I314
tRp2714
tp2715
a(g2714
g4
(I362
I316
tRp2716
tp2717
a(g2716
g4
(I363
I317
tRp2718
tp2719
a(g2718
g4
(I365
I323
tRp2720
tp2721
a(g2720
g4
(I366
I325
tRp2722
tp2723
a(g2722
g4
(I367
I327
tRp2724
tp2725
a(g2724
g4
(I367
I329
tRp2726
tp2727
a(g2726
g4
(I369
I335
tRp2728
tp2729
a(g2728
g4
(I369
I337
tRp2730
tp2731
a(g2730
g4
(I370
I339
tRp2732
tp2733
a(g2732
g4
(I370
I341
tRp2734
tp2735
a(g2734
g4
(I370
I342
tRp2736
tp2737
a(g2736
g4
(I370
I344
tRp2738
tp2739
a(g2738
g4
(I371
I345
tRp2740
tp2741
a(g2740
g4
(I371
I346
tRp2742
tp2743
a(g2742
g4
(I371
I347
tRp2744
tp2745
a(g2744
g4
(I372
I348
tRp2746
tp2747
a(g2746
g4
(I372
I350
tRp2748
tp2749
a(g2748
g4
(I372
I351
tRp2750
tp2751
a(g2750
g4
(I372
I353
tRp2752
tp2753
a(g2752
g4
(I373
I354
tRp2754
tp2755
a(g2754
g4
(I373
I355
tRp2756
tp2757
a(g2756
g4
(I373
I357
tRp2758
tp2759
a(g2758
g4
(I373
I359
tRp2760
tp2761
a(g2760
g4
(I373
I360
tRp2762
tp2763
a(g2762
g4
(I373
I361
tRp2764
tp2765
a(g2764
g4
(I374
I362
tRp2766
tp2767
a(g2766
g4
(I374
I363
tRp2768
tp2769
a(g2768
g4
(I374
I364
tRp2770
tp2771
a(g2770
g4
(I374
I363
tRp2772
tp2773
a(g2772
g4
(I374
I360
tRp2774
tp2775
a(g2774
g4
(I374
I359
tRp2776
tp2777
atp2778
a(g2090
I12
(lp2779
(g4
(I372
I340
tRp2780
g4
(I372
I339
tRp2781
tp2782
a(g2781
g4
(I372
I338
tRp2783
tp2784
a(g2783
g4
(I373
I337
tRp2785
tp2786
a(g2785
g4
(I374
I336
tRp2787
tp2788
a(g2787
g4
(I374
I335
tRp2789
tp2790
a(g2789
g4
(I375
I334
tRp2791
tp2792
a(g2791
g4
(I376
I333
tRp2793
tp2794
a(g2793
g4
(I376
I332
tRp2795
tp2796
a(g2795
g4
(I377
I331
tRp2797
tp2798
a(g2797
g4
(I378
I330
tRp2799
tp2800
a(g2799
g4
(I378
I329
tRp2801
tp2802
a(g2801
g4
(I378
I328
tRp2803
tp2804
a(g2803
g4
(I379
I328
tRp2805
tp2806
a(g2805
g4
(I379
I327
tRp2807
tp2808
a(g2807
g4
(I379
I326
tRp2809
tp2810
a(g2809
g4
(I380
I325
tRp2811
tp2812
a(g2811
g4
(I380
I324
tRp2813
tp2814
a(g2813
g4
(I381
I323
tRp2815
tp2816
a(g2815
g4
(I381
I322
tRp2817
tp2818
a(g2817
g4
(I381
I321
tRp2819
tp2820
a(g2819
g4
(I382
I321
tRp2821
tp2822
a(g2821
g4
(I382
I320
tRp2823
tp2824
a(g2823
g4
(I382
I319
tRp2825
tp2826
a(g2825
g4
(I383
I319
tRp2827
tp2828
a(g2827
g4
(I383
I318
tRp2829
tp2830
a(g2829
g4
(I384
I317
tRp2831
tp2832
a(g2831
g4
(I384
I316
tRp2833
tp2834
a(g2833
g4
(I385
I316
tRp2835
tp2836
a(g2835
g4
(I385
I315
tRp2837
tp2838
a(g2837
g4
(I386
I314
tRp2839
tp2840
a(g2839
g4
(I387
I313
tRp2841
tp2842
atp2843
a(g2090
I12
(lp2844
(g4
(I385
I334
tRp2845
g4
(I386
I335
tRp2846
tp2847
a(g2846
g4
(I387
I336
tRp2848
tp2849
a(g2848
g4
(I388
I338
tRp2850
tp2851
a(g2850
g4
(I389
I339
tRp2852
tp2853
a(g2852
g4
(I390
I340
tRp2854
tp2855
a(g2854
g4
(I391
I342
tRp2856
tp2857
a(g2856
g4
(I392
I343
tRp2858
tp2859
a(g2858
g4
(I392
I344
tRp2860
tp2861
a(g2860
g4
(I393
I345
tRp2862
tp2863
a(g2862
g4
(I394
I346
tRp2864
tp2865
a(g2864
g4
(I395
I347
tRp2866
tp2867
a(g2866
g4
(I396
I348
tRp2868
tp2869
a(g2868
g4
(I396
I349
tRp2870
tp2871
a(g2870
g4
(I397
I350
tRp2872
tp2873
a(g2872
g4
(I398
I350
tRp2874
tp2875
a(g2874
g4
(I399
I351
tRp2876
tp2877
a(g2876
g4
(I400
I352
tRp2878
tp2879
a(g2878
g4
(I401
I353
tRp2880
tp2881
a(g2880
g4
(I402
I354
tRp2882
tp2883
a(g2882
g4
(I402
I355
tRp2884
tp2885
a(g2884
g4
(I404
I356
tRp2886
tp2887
a(g2886
g4
(I405
I357
tRp2888
tp2889
a(g2888
g4
(I405
I358
tRp2890
tp2891
a(g2890
g4
(I406
I358
tRp2892
tp2893
a(g2892
g4
(I406
I359
tRp2894
tp2895
a(g2894
g4
(I407
I360
tRp2896
tp2897
a(g2896
g4
(I408
I360
tRp2898
tp2899
a(g2898
g4
(I408
I361
tRp2900
tp2901
a(g2900
g4
(I409
I361
tRp2902
tp2903
a(g2902
g4
(I409
I360
tRp2904
tp2905
a(g2904
g4
(I409
I359
tRp2906
tp2907
a(g2906
g4
(I409
I357
tRp2908
tp2909
a(g2908
g4
(I409
I356
tRp2910
tp2911
a(g2910
g4
(I408
I355
tRp2912
tp2913
atp2914
a(g2090
I12
(lp2915
(g4
(I448
I311
tRp2916
g4
(I448
I310
tRp2917
tp2918
a(g2917
g4
(I446
I310
tRp2919
tp2920
a(g2919
g4
(I445
I309
tRp2921
tp2922
a(g2921
g4
(I444
I309
tRp2923
tp2924
a(g2923
g4
(I443
I309
tRp2925
tp2926
a(g2925
g4
(I442
I308
tRp2927
tp2928
a(g2927
g4
(I441
I308
tRp2929
tp2930
a(g2929
g4
(I440
I308
tRp2931
tp2932
a(g2931
g4
(I439
I308
tRp2933
tp2934
a(g2933
g4
(I438
I308
tRp2935
tp2936
a(g2935
g4
(I437
I308
tRp2937
tp2938
a(g2937
g4
(I436
I308
tRp2939
tp2940
a(g2939
g4
(I435
I308
tRp2941
tp2942
a(g2941
g4
(I434
I308
tRp2943
tp2944
a(g2943
g4
(I433
I308
tRp2945
tp2946
a(g2945
g4
(I432
I308
tRp2947
tp2948
a(g2947
g4
(I431
I308
tRp2949
tp2950
a(g2949
g4
(I430
I308
tRp2951
tp2952
a(g2951
g4
(I429
I309
tRp2953
tp2954
a(g2953
g4
(I428
I309
tRp2955
tp2956
a(g2955
g4
(I427
I310
tRp2957
tp2958
a(g2957
g4
(I426
I311
tRp2959
tp2960
a(g2959
g4
(I426
I312
tRp2961
tp2962
a(g2961
g4
(I425
I312
tRp2963
tp2964
a(g2963
g4
(I425
I313
tRp2965
tp2966
a(g2965
g4
(I425
I314
tRp2967
tp2968
a(g2967
g4
(I424
I315
tRp2969
tp2970
a(g2969
g4
(I424
I316
tRp2971
tp2972
a(g2971
g4
(I424
I317
tRp2973
tp2974
a(g2973
g4
(I423
I318
tRp2975
tp2976
a(g2975
g4
(I423
I319
tRp2977
tp2978
a(g2977
g4
(I423
I320
tRp2979
tp2980
a(g2979
g4
(I423
I321
tRp2981
tp2982
a(g2981
g4
(I423
I322
tRp2983
tp2984
a(g2983
g4
(I424
I322
tRp2985
tp2986
a(g2985
g4
(I425
I324
tRp2987
tp2988
a(g2987
g4
(I425
I325
tRp2989
tp2990
a(g2989
g4
(I426
I326
tRp2991
tp2992
a(g2991
g4
(I427
I327
tRp2993
tp2994
a(g2993
g4
(I427
I328
tRp2995
tp2996
a(g2995
g4
(I428
I329
tRp2997
tp2998
a(g2997
g4
(I429
I330
tRp2999
tp3000
a(g2999
g4
(I430
I331
tRp3001
tp3002
a(g3001
g4
(I430
I332
tRp3003
tp3004
a(g3003
g4
(I431
I332
tRp3005
tp3006
a(g3005
g4
(I433
I333
tRp3007
tp3008
a(g3007
g4
(I434
I334
tRp3009
tp3010
a(g3009
g4
(I435
I335
tRp3011
tp3012
a(g3011
g4
(I437
I336
tRp3013
tp3014
a(g3013
g4
(I438
I336
tRp3015
tp3016
a(g3015
g4
(I439
I336
tRp3017
tp3018
a(g3017
g4
(I440
I337
tRp3019
tp3020
a(g3019
g4
(I441
I337
tRp3021
tp3022
a(g3021
g4
(I442
I338
tRp3023
tp3024
a(g3023
g4
(I443
I338
tRp3025
tp3026
a(g3025
g4
(I444
I338
tRp3027
tp3028
a(g3027
g4
(I445
I339
tRp3029
tp3030
a(g3029
g4
(I446
I339
tRp3031
tp3032
a(g3031
g4
(I447
I339
tRp3033
tp3034
a(g3033
g4
(I448
I339
tRp3035
tp3036
a(g3035
g4
(I448
I340
tRp3037
tp3038
a(g3037
g4
(I449
I340
tRp3039
tp3040
a(g3039
g4
(I450
I340
tRp3041
tp3042
a(g3041
g4
(I451
I340
tRp3043
tp3044
a(g3043
g4
(I451
I341
tRp3045
tp3046
a(g3045
g4
(I452
I341
tRp3047
tp3048
a(g3047
g4
(I453
I342
tRp3049
tp3050
a(g3049
g4
(I454
I342
tRp3051
tp3052
a(g3051
g4
(I455
I343
tRp3053
tp3054
a(g3053
g4
(I455
I344
tRp3055
tp3056
a(g3055
g4
(I456
I344
tRp3057
tp3058
a(g3057
g4
(I456
I345
tRp3059
tp3060
a(g3059
g4
(I456
I346
tRp3061
tp3062
a(g3061
g4
(I457
I346
tRp3063
tp3064
a(g3063
g4
(I457
I347
tRp3065
tp3066
a(g3065
g4
(I457
I348
tRp3067
tp3068
a(g3067
g4
(I458
I348
tRp3069
tp3070
a(g3069
g4
(I458
I349
tRp3071
tp3072
a(g3071
g4
(I459
I349
tRp3073
tp3074
a(g3073
g4
(I459
I350
tRp3075
tp3076
a(g3075
g4
(I459
I351
tRp3077
tp3078
a(g3077
g4
(I459
I352
tRp3079
tp3080
a(g3079
g4
(I459
I353
tRp3081
tp3082
a(g3081
g4
(I459
I354
tRp3083
tp3084
a(g3083
g4
(I459
I355
tRp3085
tp3086
a(g3085
g4
(I459
I356
tRp3087
tp3088
a(g3087
g4
(I459
I357
tRp3089
tp3090
a(g3089
g4
(I458
I357
tRp3091
tp3092
a(g3091
g4
(I457
I358
tRp3093
tp3094
a(g3093
g4
(I456
I358
tRp3095
tp3096
a(g3095
g4
(I455
I359
tRp3097
tp3098
a(g3097
g4
(I454
I359
tRp3099
tp3100
a(g3099
g4
(I452
I359
tRp3101
tp3102
a(g3101
g4
(I450
I359
tRp3103
tp3104
a(g3103
g4
(I448
I359
tRp3105
tp3106
a(g3105
g4
(I447
I359
tRp3107
tp3108
a(g3107
g4
(I445
I359
tRp3109
tp3110
a(g3109
g4
(I444
I359
tRp3111
tp3112
a(g3111
g4
(I443
I359
tRp3113
tp3114
a(g3113
g4
(I442
I360
tRp3115
tp3116
a(g3115
g4
(I441
I360
tRp3117
tp3118
a(g3117
g4
(I441
I361
tRp3119
tp3120
a(g3119
g4
(I440
I361
tRp3121
tp3122
a(g3121
g4
(I439
I362
tRp3123
tp3124
a(g3123
g4
(I438
I363
tRp3125
tp3126
a(g3125
g4
(I437
I363
tRp3127
tp3128
a(g3127
g4
(I436
I363
tRp3129
tp3130
atp3131
a(g2090
I12
(lp3132
(g4
(I486
I256
tRp3133
g4
(I486
I257
tRp3134
tp3135
a(g3134
g4
(I486
I259
tRp3136
tp3137
a(g3136
g4
(I486
I260
tRp3138
tp3139
a(g3138
g4
(I486
I262
tRp3140
tp3141
a(g3140
g4
(I486
I263
tRp3142
tp3143
a(g3142
g4
(I486
I266
tRp3144
tp3145
a(g3144
g4
(I487
I267
tRp3146
tp3147
a(g3146
g4
(I487
I269
tRp3148
tp3149
a(g3148
g4
(I488
I271
tRp3150
tp3151
a(g3150
g4
(I488
I273
tRp3152
tp3153
a(g3152
g4
(I489
I274
tRp3154
tp3155
a(g3154
g4
(I489
I276
tRp3156
tp3157
a(g3156
g4
(I490
I278
tRp3158
tp3159
a(g3158
g4
(I490
I280
tRp3160
tp3161
a(g3160
g4
(I491
I281
tRp3162
tp3163
a(g3162
g4
(I491
I284
tRp3164
tp3165
a(g3164
g4
(I492
I286
tRp3166
tp3167
a(g3166
g4
(I492
I288
tRp3168
tp3169
a(g3168
g4
(I492
I291
tRp3170
tp3171
a(g3170
g4
(I493
I293
tRp3172
tp3173
a(g3172
g4
(I494
I295
tRp3174
tp3175
a(g3174
g4
(I494
I297
tRp3176
tp3177
a(g3176
g4
(I494
I298
tRp3178
tp3179
a(g3178
g4
(I494
I300
tRp3180
tp3181
a(g3180
g4
(I494
I302
tRp3182
tp3183
a(g3182
g4
(I494
I304
tRp3184
tp3185
a(g3184
g4
(I494
I306
tRp3186
tp3187
a(g3186
g4
(I495
I308
tRp3188
tp3189
a(g3188
g4
(I495
I310
tRp3190
tp3191
a(g3190
g4
(I496
I312
tRp3192
tp3193
a(g3192
g4
(I496
I314
tRp3194
tp3195
a(g3194
g4
(I497
I316
tRp3196
tp3197
a(g3196
g4
(I497
I318
tRp3198
tp3199
a(g3198
g4
(I498
I319
tRp3200
tp3201
a(g3200
g4
(I498
I321
tRp3202
tp3203
a(g3202
g4
(I498
I322
tRp3204
tp3205
a(g3204
g4
(I498
I323
tRp3206
tp3207
a(g3206
g4
(I498
I325
tRp3208
tp3209
a(g3208
g4
(I498
I327
tRp3210
tp3211
a(g3210
g4
(I497
I328
tRp3212
tp3213
a(g3212
g4
(I497
I330
tRp3214
tp3215
a(g3214
g4
(I497
I332
tRp3216
tp3217
a(g3216
g4
(I497
I334
tRp3218
tp3219
a(g3218
g4
(I497
I336
tRp3220
tp3221
a(g3220
g4
(I497
I338
tRp3222
tp3223
a(g3222
g4
(I497
I340
tRp3224
tp3225
a(g3224
g4
(I497
I341
tRp3226
tp3227
a(g3226
g4
(I497
I343
tRp3228
tp3229
a(g3228
g4
(I497
I344
tRp3230
tp3231
a(g3230
g4
(I498
I345
tRp3232
tp3233
a(g3232
g4
(I498
I346
tRp3234
tp3235
a(g3234
g4
(I498
I348
tRp3236
tp3237
a(g3236
g4
(I498
I349
tRp3238
tp3239
a(g3238
g4
(I499
I351
tRp3240
tp3241
a(g3240
g4
(I499
I352
tRp3242
tp3243
a(g3242
g4
(I500
I353
tRp3244
tp3245
a(g3244
g4
(I500
I354
tRp3246
tp3247
a(g3246
g4
(I500
I355
tRp3248
tp3249
a(g3248
g4
(I500
I357
tRp3250
tp3251
a(g3250
g4
(I500
I358
tRp3252
tp3253
a(g3252
g4
(I500
I359
tRp3254
tp3255
a(g3254
g4
(I501
I359
tRp3256
tp3257
a(g3256
g4
(I501
I360
tRp3258
tp3259
a(g3258
g4
(I502
I361
tRp3260
tp3261
atp3262
a(g2090
I12
(lp3263
(g4
(I505
I388
tRp3264
g4
(I505
I389
tRp3265
tp3266
a(g3265
g4
(I504
I389
tRp3267
tp3268
a(g3267
g4
(I503
I389
tRp3269
tp3270
a(g3269
g4
(I502
I389
tRp3271
tp3272
a(g3271
g4
(I501
I388
tRp3273
tp3274
a(g3273
g4
(I500
I388
tRp3275
tp3276
a(g3275
g4
(I500
I387
tRp3277
tp3278
a(g3277
g4
(I501
I387
tRp3279
tp3280
a(g3279
g4
(I502
I387
tRp3281
tp3282
a(g3281
g4
(I502
I388
tRp3283
tp3284
a(g3283
g4
(I503
I388
tRp3285
tp3286
a(g3285
g4
(I503
I389
tRp3287
tp3288
atp3289
a(S'Forest Green'
p3290
I12
(lp3291
(g4
(I122
I435
tRp3292
g4
(I123
I435
tRp3293
tp3294
a(g3293
g4
(I124
I434
tRp3295
tp3296
a(g3295
g4
(I126
I434
tRp3297
tp3298
a(g3297
g4
(I132
I432
tRp3299
tp3300
a(g3299
g4
(I135
I432
tRp3301
tp3302
a(g3301
g4
(I143
I430
tRp3303
tp3304
a(g3303
g4
(I155
I430
tRp3305
tp3306
a(g3305
g4
(I167
I430
tRp3307
tp3308
a(g3307
g4
(I183
I430
tRp3309
tp3310
a(g3309
g4
(I199
I430
tRp3311
tp3312
a(g3311
g4
(I217
I430
tRp3313
tp3314
a(g3313
g4
(I237
I430
tRp3315
tp3316
a(g3315
g4
(I257
I430
tRp3317
tp3318
a(g3317
g4
(I275
I430
tRp3319
tp3320
a(g3319
g4
(I293
I430
tRp3321
tp3322
a(g3321
g4
(I313
I430
tRp3323
tp3324
a(g3323
g4
(I335
I430
tRp3325
tp3326
a(g3325
g4
(I359
I430
tRp3327
tp3328
a(g3327
g4
(I383
I430
tRp3329
tp3330
a(g3329
g4
(I407
I430
tRp3331
tp3332
a(g3331
g4
(I445
I430
tRp3333
tp3334
a(g3333
g4
(I461
I430
tRp3335
tp3336
a(g3335
g4
(I475
I430
tRp3337
tp3338
a(g3337
g4
(I487
I432
tRp3339
tp3340
a(g3339
g4
(I497
I434
tRp3341
tp3342
a(g3341
g4
(I503
I436
tRp3343
tp3344
a(g3343
g4
(I505
I437
tRp3345
tp3346
a(g3345
g4
(I505
I438
tRp3347
tp3348
a(g3347
g4
(I505
I439
tRp3349
tp3350
a(g3349
g4
(I505
I440
tRp3351
tp3352
a(g3351
g4
(I504
I441
tRp3353
tp3354
a(g3353
g4
(I502
I442
tRp3355
tp3356
a(g3355
g4
(I496
I444
tRp3357
tp3358
a(g3357
g4
(I488
I448
tRp3359
tp3360
a(g3359
g4
(I480
I450
tRp3361
tp3362
a(g3361
g4
(I464
I454
tRp3363
tp3364
a(g3363
g4
(I452
I456
tRp3365
tp3366
a(g3365
g4
(I438
I462
tRp3367
tp3368
a(g3367
g4
(I420
I466
tRp3369
tp3370
a(g3369
g4
(I408
I468
tRp3371
tp3372
a(g3371
g4
(I394
I472
tRp3373
tp3374
a(g3373
g4
(I380
I474
tRp3375
tp3376
a(g3375
g4
(I366
I474
tRp3377
tp3378
a(g3377
g4
(I354
I476
tRp3379
tp3380
a(g3379
g4
(I340
I478
tRp3381
tp3382
a(g3381
g4
(I326
I480
tRp3383
tp3384
a(g3383
g4
(I314
I482
tRp3385
tp3386
a(g3385
g4
(I302
I484
tRp3387
tp3388
a(g3387
g4
(I290
I486
tRp3389
tp3390
a(g3389
g4
(I284
I488
tRp3391
tp3392
a(g3391
g4
(I281
I488
tRp3393
tp3394
a(g3393
g4
(I277
I492
tRp3395
tp3396
a(g3395
g4
(I276
I493
tRp3397
tp3398
a(g3397
g4
(I276
I494
tRp3399
tp3400
a(g3399
g4
(I276
I495
tRp3401
tp3402
a(g3401
g4
(I278
I496
tRp3403
tp3404
a(g3403
g4
(I280
I497
tRp3405
tp3406
a(g3405
g4
(I283
I497
tRp3407
tp3408
a(g3407
g4
(I291
I499
tRp3409
tp3410
a(g3409
g4
(I301
I499
tRp3411
tp3412
a(g3411
g4
(I313
I499
tRp3413
tp3414
a(g3413
g4
(I321
I499
tRp3415
tp3416
a(g3415
g4
(I333
I501
tRp3417
tp3418
a(g3417
g4
(I343
I501
tRp3419
tp3420
a(g3419
g4
(I353
I503
tRp3421
tp3422
a(g3421
g4
(I365
I503
tRp3423
tp3424
a(g3423
g4
(I373
I505
tRp3425
tp3426
a(g3425
g4
(I381
I507
tRp3427
tp3428
a(g3427
g4
(I383
I507
tRp3429
tp3430
a(g3429
g4
(I384
I507
tRp3431
tp3432
a(g3431
g4
(I384
I508
tRp3433
tp3434
a(g3433
g4
(I384
I509
tRp3435
tp3436
a(g3435
g4
(I382
I509
tRp3437
tp3438
a(g3437
g4
(I381
I510
tRp3439
tp3440
a(g3439
g4
(I379
I511
tRp3441
tp3442
a(g3441
g4
(I378
I513
tRp3443
tp3444
a(g3443
g4
(I376
I514
tRp3445
tp3446
a(g3445
g4
(I372
I518
tRp3447
tp3448
a(g3447
g4
(I366
I520
tRp3449
tp3450
a(g3449
g4
(I358
I524
tRp3451
tp3452
a(g3451
g4
(I352
I530
tRp3453
tp3454
a(g3453
g4
(I342
I532
tRp3455
tp3456
a(g3455
g4
(I334
I536
tRp3457
tp3458
a(g3457
g4
(I330
I540
tRp3459
tp3460
a(g3459
g4
(I326
I544
tRp3461
tp3462
a(g3461
g4
(I325
I546
tRp3463
tp3464
a(g3463
g4
(I325
I547
tRp3465
tp3466
a(g3465
g4
(I325
I548
tRp3467
tp3468
a(g3467
g4
(I326
I551
tRp3469
tp3470
a(g3469
g4
(I326
I552
tRp3471
tp3472
a(g3471
g4
(I326
I553
tRp3473
tp3474
a(g3473
g4
(I326
I554
tRp3475
tp3476
a(g3475
g4
(I327
I555
tRp3477
tp3478
a(g3477
g4
(I328
I555
tRp3479
tp3480
a(g3479
g4
(I330
I556
tRp3481
tp3482
a(g3481
g4
(I331
I556
tRp3483
tp3484
a(g3483
g4
(I332
I556
tRp3485
tp3486
a(g3485
g4
(I333
I556
tRp3487
tp3488
a(g3487
g4
(I334
I556
tRp3489
tp3490
atp3491
a.