(lp1
(S'Purple'
p2
I16
(lp3
(I14
I110
I15
I110
ta(I15
I110
I16
I110
ta(I16
I110
I17
I110
ta(I17
I110
I19
I110
ta(I19
I110
I22
I110
ta(I22
I110
I24
I110
ta(I24
I110
I25
I110
ta(I25
I110
I27
I109
ta(I27
I109
I29
I108
ta(I29
I108
I32
I107
ta(I32
I107
I35
I106
ta(I35
I106
I39
I104
ta(I39
I104
I42
I103
ta(I42
I103
I45
I101
ta(I45
I101
I47
I100
ta(I47
I100
I48
I99
ta(I48
I99
I48
I100
ta(I48
I100
I48
I102
ta(I48
I102
I47
I104
ta(I47
I104
I47
I105
ta(I47
I105
I46
I107
ta(I46
I107
I45
I110
ta(I45
I110
I44
I113
ta(I44
I113
I43
I115
ta(I43
I115
I43
I118
ta(I43
I118
I42
I121
ta(I42
I121
I41
I125
ta(I41
I125
I40
I128
ta(I40
I128
I40
I132
ta(I40
I132
I40
I136
ta(I40
I136
I40
I140
ta(I40
I140
I40
I144
ta(I40
I144
I40
I147
ta(I40
I147
I40
I149
ta(I40
I149
I41
I151
ta(I41
I151
I42
I154
ta(I42
I154
I43
I157
ta(I43
I157
I45
I159
ta(I45
I159
I46
I160
ta(I46
I160
I47
I161
ta(I47
I161
I48
I162
ta(I48
I162
I49
I163
ta(I49
I163
I52
I163
ta(I52
I163
I55
I162
ta(I55
I162
I59
I159
ta(I59
I159
I62
I157
ta(I62
I157
I64
I156
ta(I64
I156
I65
I155
ta(I65
I155
I67
I152
ta(I67
I152
I68
I150
ta(I68
I150
I69
I148
ta(I69
I148
I71
I145
ta(I71
I145
I71
I143
ta(I71
I143
I71
I140
ta(I71
I140
I72
I139
ta(I72
I139
I72
I138
ta(I72
I138
I72
I139
ta(I72
I139
I72
I142
ta(I72
I142
I72
I146
ta(I72
I146
I72
I149
ta(I72
I149
I72
I151
ta(I72
I151
I73
I151
ta(I73
I151
I73
I153
ta(I73
I153
I74
I155
ta(I74
I155
I75
I156
ta(I75
I156
I75
I157
ta(I75
I157
I75
I158
ta(I75
I158
I76
I159
ta(I76
I159
I77
I160
ta(I77
I160
I80
I160
ta(I80
I160
I83
I160
ta(I83
I160
I86
I160
ta(I86
I160
I88
I159
ta(I88
I159
I91
I158
ta(I91
I158
I94
I157
ta(I94
I157
I95
I156
ta(I95
I156
I96
I155
ta(I96
I155
I98
I154
ta(I98
I154
I100
I151
ta(I100
I151
I101
I148
ta(I101
I148
I102
I146
ta(I102
I146
I104
I143
ta(I104
I143
I105
I139
ta(I105
I139
I106
I136
ta(I106
I136
I107
I133
ta(I107
I133
I107
I129
ta(I107
I129
I108
I125
ta(I108
I125
I108
I120
ta(I108
I120
I108
I116
ta(I108
I116
I108
I112
ta(I108
I112
I108
I109
ta(I108
I109
I108
I107
ta(I108
I107
I108
I105
ta(I108
I105
I107
I103
ta(I107
I103
I107
I102
ta(I107
I102
I107
I101
tatp4
a(g2
I16
(lp5
(I137
I101
I138
I101
ta(I138
I101
I140
I104
ta(I140
I104
I143
I106
ta(I143
I106
I145
I108
ta(I145
I108
I147
I110
ta(I147
I110
I149
I111
ta(I149
I111
I150
I113
ta(I150
I113
I152
I116
ta(I152
I116
I154
I118
ta(I154
I118
I157
I120
ta(I157
I120
I161
I124
ta(I161
I124
I165
I128
ta(I165
I128
I168
I131
ta(I168
I131
I171
I134
ta(I171
I134
I173
I136
ta(I173
I136
I176
I139
ta(I176
I139
I178
I141
ta(I178
I141
I180
I143
ta(I180
I143
I181
I145
ta(I181
I145
I183
I146
ta(I183
I146
I184
I148
ta(I184
I148
I187
I150
ta(I187
I150
I187
I151
tatp6
a(g2
I16
(lp7
(I183
I96
I182
I96
ta(I182
I96
I180
I97
ta(I180
I97
I177
I99
ta(I177
I99
I175
I102
ta(I175
I102
I174
I104
ta(I174
I104
I171
I106
ta(I171
I106
I169
I109
ta(I169
I109
I168
I112
ta(I168
I112
I166
I116
ta(I166
I116
I165
I119
ta(I165
I119
I164
I122
ta(I164
I122
I163
I125
ta(I163
I125
I162
I128
ta(I162
I128
I161
I130
ta(I161
I130
I159
I133
ta(I159
I133
I158
I136
ta(I158
I136
I156
I139
ta(I156
I139
I154
I141
ta(I154
I141
I153
I143
ta(I153
I143
I151
I145
ta(I151
I145
I150
I148
ta(I150
I148
I149
I149
ta(I149
I149
I148
I150
ta(I148
I150
I148
I151
ta(I148
I151
I147
I153
ta(I147
I153
I146
I154
ta(I146
I154
I145
I154
ta(I145
I154
I144
I155
ta(I144
I155
I144
I156
ta(I144
I156
I143
I156
ta(I143
I156
I142
I157
ta(I142
I157
I140
I158
ta(I140
I158
I140
I159
ta(I140
I159
I139
I159
ta(I139
I159
I138
I159
tatp8
a(g2
I16
(lp9
(I203
I43
I203
I44
ta(I203
I44
I205
I47
ta(I205
I47
I206
I50
ta(I206
I50
I206
I55
ta(I206
I55
I208
I59
ta(I208
I59
I209
I65
ta(I209
I65
I211
I70
ta(I211
I70
I212
I75
ta(I212
I75
I214
I79
ta(I214
I79
I215
I84
ta(I215
I84
I217
I89
ta(I217
I89
I218
I94
ta(I218
I94
I220
I98
ta(I220
I98
I221
I103
ta(I221
I103
I223
I107
ta(I223
I107
I224
I111
ta(I224
I111
I225
I116
ta(I225
I116
I226
I120
ta(I226
I120
I227
I124
ta(I227
I124
I229
I127
ta(I229
I127
I229
I131
ta(I229
I131
I230
I133
ta(I230
I133
I231
I136
ta(I231
I136
I232
I139
ta(I232
I139
I233
I142
ta(I233
I142
I233
I144
ta(I233
I144
I233
I145
ta(I233
I145
I234
I148
ta(I234
I148
I234
I150
tatp10
a(g2
I16
(lp11
(I206
I40
I207
I40
ta(I207
I40
I211
I39
ta(I211
I39
I225
I38
ta(I225
I38
I231
I38
ta(I231
I38
I235
I37
ta(I235
I37
I239
I37
ta(I239
I37
I243
I37
ta(I243
I37
I247
I36
ta(I247
I36
I250
I36
ta(I250
I36
I252
I37
ta(I252
I37
I257
I38
ta(I257
I38
I262
I40
ta(I262
I40
I267
I41
ta(I267
I41
I270
I43
ta(I270
I43
I272
I44
ta(I272
I44
I274
I46
ta(I274
I46
I276
I48
ta(I276
I48
I277
I50
ta(I277
I50
I278
I52
ta(I278
I52
I279
I55
ta(I279
I55
I279
I58
ta(I279
I58
I279
I60
ta(I279
I60
I279
I62
ta(I279
I62
I278
I65
ta(I278
I65
I276
I67
ta(I276
I67
I274
I69
ta(I274
I69
I270
I72
ta(I270
I72
I267
I74
ta(I267
I74
I264
I76
ta(I264
I76
I260
I78
ta(I260
I78
I257
I80
ta(I257
I80
I254
I81
ta(I254
I81
I251
I83
ta(I251
I83
I249
I84
ta(I249
I84
I247
I85
ta(I247
I85
I244
I87
ta(I244
I87
I242
I88
ta(I242
I88
I239
I88
ta(I239
I88
I237
I89
ta(I237
I89
I236
I90
ta(I236
I90
I234
I91
ta(I234
I91
I232
I93
ta(I232
I93
I230
I94
ta(I230
I94
I229
I95
ta(I229
I95
I228
I95
ta(I228
I95
I228
I96
tatp12
a(g2
I16
(lp13
(I283
I103
I283
I104
ta(I283
I104
I285
I106
ta(I285
I106
I287
I109
ta(I287
I109
I288
I113
ta(I288
I113
I289
I116
ta(I289
I116
I291
I118
ta(I291
I118
I292
I119
ta(I292
I119
I294
I122
ta(I294
I122
I295
I124
ta(I295
I124
I296
I126
ta(I296
I126
I297
I127
ta(I297
I127
I299
I129
ta(I299
I129
I301
I131
ta(I301
I131
I303
I133
ta(I303
I133
I306
I134
ta(I306
I134
I310
I135
ta(I310
I135
I313
I136
ta(I313
I136
I317
I137
ta(I317
I137
I320
I138
ta(I320
I138
I323
I138
ta(I323
I138
I327
I138
ta(I327
I138
I330
I137
ta(I330
I137
I332
I136
ta(I332
I136
I334
I135
ta(I334
I135
I335
I133
ta(I335
I133
I337
I130
ta(I337
I130
I338
I127
ta(I338
I127
I338
I124
ta(I338
I124
I339
I122
ta(I339
I122
I339
I120
ta(I339
I120
I339
I118
ta(I339
I118
I338
I116
ta(I338
I116
I337
I114
ta(I337
I114
I336
I112
ta(I336
I112
I334
I109
ta(I334
I109
I333
I107
ta(I333
I107
I333
I106
ta(I333
I106
I332
I105
ta(I332
I105
I332
I104
ta(I332
I104
I332
I102
ta(I332
I102
I331
I101
ta(I331
I101
I331
I100
ta(I331
I100
I330
I100
ta(I330
I100
I330
I99
ta(I330
I99
I330
I98
ta(I330
I98
I329
I97
ta(I329
I97
I329
I96
ta(I329
I96
I328
I95
ta(I328
I95
I328
I94
ta(I328
I94
I328
I93
ta(I328
I93
I328
I92
tatp14
a(g2
I16
(lp15
(I339
I117
I340
I118
ta(I340
I118
I340
I120
ta(I340
I120
I341
I122
ta(I341
I122
I341
I124
ta(I341
I124
I342
I126
ta(I342
I126
I342
I128
ta(I342
I128
I342
I131
ta(I342
I131
I342
I133
ta(I342
I133
I342
I137
ta(I342
I137
I342
I141
ta(I342
I141
I342
I145
ta(I342
I145
I341
I150
ta(I341
I150
I341
I155
ta(I341
I155
I340
I160
ta(I340
I160
I339
I166
ta(I339
I166
I336
I180
ta(I336
I180
I334
I186
ta(I334
I186
I333
I190
ta(I333
I190
I332
I193
ta(I332
I193
I331
I197
ta(I331
I197
I329
I199
ta(I329
I199
I326
I203
ta(I326
I203
I322
I206
ta(I322
I206
I318
I209
ta(I318
I209
I313
I211
ta(I313
I211
I309
I212
ta(I309
I212
I304
I212
ta(I304
I212
I299
I212
ta(I299
I212
I295
I212
ta(I295
I212
I292
I212
ta(I292
I212
I287
I211
ta(I287
I211
I282
I211
ta(I282
I211
I278
I211
ta(I278
I211
I273
I210
ta(I273
I210
I259
I211
ta(I259
I211
I253
I212
ta(I253
I212
I247
I213
ta(I247
I213
I241
I213
ta(I241
I213
I227
I214
ta(I227
I214
I223
I215
ta(I223
I215
I219
I216
ta(I219
I216
I215
I217
ta(I215
I217
I211
I219
ta(I211
I219
I209
I219
ta(I209
I219
I208
I219
ta(I208
I219
I207
I220
tatp16
a(g2
I16
(lp17
(I364
I54
I364
I55
ta(I364
I55
I364
I57
ta(I364
I57
I364
I60
ta(I364
I60
I364
I64
ta(I364
I64
I364
I67
ta(I364
I67
I364
I71
ta(I364
I71
I364
I74
ta(I364
I74
I365
I77
ta(I365
I77
I365
I82
ta(I365
I82
I366
I85
ta(I366
I85
I366
I89
ta(I366
I89
I366
I94
ta(I366
I94
I366
I99
ta(I366
I99
I366
I102
ta(I366
I102
I366
I104
ta(I366
I104
I366
I106
ta(I366
I106
I367
I109
ta(I367
I109
I367
I112
ta(I367
I112
I367
I114
ta(I367
I114
I368
I116
ta(I368
I116
I368
I119
ta(I368
I119
I369
I122
ta(I369
I122
I369
I125
ta(I369
I125
I369
I130
ta(I369
I130
I370
I133
ta(I370
I133
I371
I138
ta(I371
I138
I372
I141
ta(I372
I141
I373
I143
ta(I373
I143
I374
I145
ta(I374
I145
I375
I146
ta(I375
I146
I377
I146
ta(I377
I146
I379
I148
ta(I379
I148
I381
I148
ta(I381
I148
I383
I149
ta(I383
I149
I386
I150
ta(I386
I150
I388
I151
ta(I388
I151
I389
I152
ta(I389
I152
I390
I153
ta(I390
I153
I391
I154
ta(I391
I154
I392
I155
ta(I392
I155
I392
I154
ta(I392
I154
I392
I152
tatp18
a(g2
I16
(lp19
(I346
I78
I347
I78
ta(I347
I78
I350
I79
ta(I350
I79
I353
I79
ta(I353
I79
I356
I80
ta(I356
I80
I359
I81
ta(I359
I81
I362
I81
ta(I362
I81
I364
I81
ta(I364
I81
I367
I81
ta(I367
I81
I372
I82
ta(I372
I82
I376
I83
ta(I376
I83
I378
I83
ta(I378
I83
I380
I83
ta(I380
I83
I383
I83
ta(I383
I83
I385
I83
ta(I385
I83
I386
I83
ta(I386
I83
I387
I84
ta(I387
I84
I388
I84
ta(I388
I84
I389
I84
ta(I389
I84
I391
I84
ta(I391
I84
I392
I85
tatp20
a(g2
I16
(lp21
(I414
I37
I414
I38
ta(I414
I38
I414
I40
ta(I414
I40
I415
I44
ta(I415
I44
I416
I47
ta(I416
I47
I417
I52
ta(I417
I52
I417
I58
ta(I417
I58
I418
I64
ta(I418
I64
I419
I69
ta(I419
I69
I419
I73
ta(I419
I73
I420
I77
ta(I420
I77
I420
I82
ta(I420
I82
I420
I88
ta(I420
I88
I420
I93
ta(I420
I93
I421
I96
ta(I421
I96
I422
I100
ta(I422
I100
I422
I104
ta(I422
I104
I422
I109
ta(I422
I109
I423
I113
ta(I423
I113
I424
I117
ta(I424
I117
I424
I120
ta(I424
I120
I424
I124
ta(I424
I124
I424
I128
ta(I424
I128
I424
I132
ta(I424
I132
I424
I136
ta(I424
I136
I424
I140
ta(I424
I140
I424
I143
ta(I424
I143
I424
I145
ta(I424
I145
I424
I146
ta(I424
I146
I424
I147
ta(I424
I147
I424
I149
ta(I424
I149
I424
I151
ta(I424
I151
I424
I152
ta(I424
I152
I424
I153
ta(I424
I153
I424
I152
ta(I424
I152
I424
I149
tatp22
a(g2
I16
(lp23
(I424
I105
I424
I104
ta(I424
I104
I425
I103
ta(I425
I103
I425
I100
ta(I425
I100
I426
I98
ta(I426
I98
I427
I96
ta(I427
I96
I427
I94
ta(I427
I94
I428
I92
ta(I428
I92
I429
I90
ta(I429
I90
I430
I88
ta(I430
I88
I431
I87
ta(I431
I87
I433
I85
ta(I433
I85
I434
I84
ta(I434
I84
I437
I83
ta(I437
I83
I440
I82
ta(I440
I82
I443
I81
ta(I443
I81
I445
I81
ta(I445
I81
I448
I81
ta(I448
I81
I452
I81
ta(I452
I81
I455
I81
ta(I455
I81
I456
I82
ta(I456
I82
I457
I82
ta(I457
I82
I460
I84
ta(I460
I84
I463
I86
ta(I463
I86
I465
I88
ta(I465
I88
I466
I90
ta(I466
I90
I467
I92
ta(I467
I92
I468
I95
ta(I468
I95
I469
I98
ta(I469
I98
I469
I100
ta(I469
I100
I469
I102
ta(I469
I102
I469
I105
ta(I469
I105
I469
I108
ta(I469
I108
I469
I111
ta(I469
I111
I468
I113
ta(I468
I113
I468
I116
ta(I468
I116
I468
I118
ta(I468
I118
I468
I121
ta(I468
I121
I468
I123
ta(I468
I123
I468
I125
ta(I468
I125
I468
I129
ta(I468
I129
I468
I132
ta(I468
I132
I468
I134
ta(I468
I134
I469
I136
ta(I469
I136
I470
I139
ta(I470
I139
I471
I142
ta(I471
I142
I472
I145
ta(I472
I145
I472
I146
ta(I472
I146
I473
I147
ta(I473
I147
I474
I148
ta(I474
I148
I474
I149
ta(I474
I149
I475
I150
ta(I475
I150
I475
I151
ta(I475
I151
I477
I152
ta(I477
I152
I478
I153
tatp24
a(g2
I16
(lp25
(I523
I87
I522
I87
ta(I522
I87
I521
I87
ta(I521
I87
I517
I88
ta(I517
I88
I513
I90
ta(I513
I90
I511
I92
ta(I511
I92
I509
I94
ta(I509
I94
I507
I96
ta(I507
I96
I506
I99
ta(I506
I99
I505
I103
ta(I505
I103
I505
I107
ta(I505
I107
I505
I111
ta(I505
I111
I505
I114
ta(I505
I114
I505
I118
ta(I505
I118
I505
I122
ta(I505
I122
I506
I125
ta(I506
I125
I506
I128
ta(I506
I128
I508
I131
ta(I508
I131
I510
I134
ta(I510
I134
I512
I137
ta(I512
I137
I515
I139
ta(I515
I139
I519
I140
ta(I519
I140
I523
I141
ta(I523
I141
I527
I142
ta(I527
I142
I530
I142
ta(I530
I142
I534
I142
ta(I534
I142
I538
I142
ta(I538
I142
I540
I142
ta(I540
I142
I542
I141
ta(I542
I141
I544
I140
ta(I544
I140
I548
I137
ta(I548
I137
I550
I135
ta(I550
I135
I553
I131
ta(I553
I131
I554
I128
ta(I554
I128
I554
I123
ta(I554
I123
I554
I118
ta(I554
I118
I554
I113
ta(I554
I113
I553
I109
ta(I553
I109
I551
I105
ta(I551
I105
I548
I102
ta(I548
I102
I546
I99
ta(I546
I99
I542
I96
ta(I542
I96
I538
I94
ta(I538
I94
I536
I93
ta(I536
I93
I535
I93
ta(I535
I93
I532
I92
ta(I532
I92
I529
I91
ta(I529
I91
I527
I91
tatp26
a(g2
I16
(lp27
(I569
I80
I569
I81
ta(I569
I81
I570
I84
ta(I570
I84
I571
I89
ta(I571
I89
I572
I93
ta(I572
I93
I573
I97
ta(I573
I97
I574
I101
ta(I574
I101
I575
I104
ta(I575
I104
I575
I108
ta(I575
I108
I576
I111
ta(I576
I111
I577
I113
ta(I577
I113
I577
I115
ta(I577
I115
I578
I117
ta(I578
I117
I579
I120
ta(I579
I120
I579
I121
ta(I579
I121
I579
I123
ta(I579
I123
I579
I126
ta(I579
I126
I580
I128
ta(I580
I128
I580
I131
ta(I580
I131
I580
I133
ta(I580
I133
I580
I135
ta(I580
I135
I580
I137
ta(I580
I137
I580
I140
ta(I580
I140
I580
I142
ta(I580
I142
I580
I144
ta(I580
I144
I580
I145
ta(I580
I145
I580
I147
ta(I580
I147
I580
I149
tatp28
a(g2
I16
(lp29
(I578
I94
I578
I93
ta(I578
I93
I578
I92
ta(I578
I92
I578
I91
ta(I578
I91
I578
I89
ta(I578
I89
I578
I87
ta(I578
I87
I579
I85
ta(I579
I85
I580
I84
ta(I580
I84
I582
I82
ta(I582
I82
I584
I80
ta(I584
I80
I586
I79
ta(I586
I79
I589
I77
ta(I589
I77
I591
I77
ta(I591
I77
I593
I76
ta(I593
I76
I597
I76
ta(I597
I76
I601
I76
ta(I601
I76
I604
I76
ta(I604
I76
I607
I77
ta(I607
I77
I609
I79
ta(I609
I79
I611
I80
ta(I611
I80
I613
I82
ta(I613
I82
I615
I83
ta(I615
I83
I615
I85
ta(I615
I85
I616
I87
ta(I616
I87
I617
I90
ta(I617
I90
I617
I93
ta(I617
I93
I618
I96
ta(I618
I96
I618
I98
ta(I618
I98
I618
I101
ta(I618
I101
I618
I104
ta(I618
I104
I618
I107
ta(I618
I107
I618
I110
ta(I618
I110
I619
I112
ta(I619
I112
I619
I114
ta(I619
I114
I619
I118
ta(I619
I118
I620
I120
ta(I620
I120
I621
I123
ta(I621
I123
I621
I126
ta(I621
I126
I622
I129
ta(I622
I129
I623
I132
ta(I623
I132
I624
I134
ta(I624
I134
I625
I136
ta(I625
I136
I625
I137
ta(I625
I137
I626
I139
ta(I626
I139
I627
I141
ta(I627
I141
I628
I142
ta(I628
I142
I630
I144
ta(I630
I144
I631
I145
ta(I631
I145
I632
I146
ta(I632
I146
I633
I146
ta(I633
I146
I634
I147
ta(I634
I147
I635
I147
ta(I635
I147
I636
I147
tatp30
a(S'Navy'
p31
I16
(lp32
(I122
I284
I122
I285
ta(I122
I285
I122
I288
ta(I122
I288
I122
I291
ta(I122
I291
I122
I294
ta(I122
I294
I123
I298
ta(I123
I298
I125
I303
ta(I125
I303
I126
I307
ta(I126
I307
I127
I312
ta(I127
I312
I127
I318
ta(I127
I318
I128
I324
ta(I128
I324
I129
I329
ta(I129
I329
I129
I335
ta(I129
I335
I129
I349
ta(I129
I349
I129
I365
ta(I129
I365
I129
I379
ta(I129
I379
I129
I393
ta(I129
I393
I129
I409
ta(I129
I409
I130
I415
ta(I130
I415
I130
I421
ta(I130
I421
I130
I427
ta(I130
I427
I130
I433
ta(I130
I433
I130
I437
ta(I130
I437
I130
I440
ta(I130
I440
I130
I441
ta(I130
I441
I130
I440
tatp33
a(g31
I16
(lp34
(I125
I288
I125
I287
ta(I125
I287
I125
I286
ta(I125
I286
I127
I284
ta(I127
I284
I130
I282
ta(I130
I282
I135
I281
ta(I135
I281
I139
I279
ta(I139
I279
I143
I278
ta(I143
I278
I145
I278
ta(I145
I278
I150
I277
ta(I150
I277
I156
I276
ta(I156
I276
I161
I276
ta(I161
I276
I165
I276
ta(I165
I276
I169
I278
ta(I169
I278
I174
I281
ta(I174
I281
I178
I283
ta(I178
I283
I180
I285
ta(I180
I285
I183
I287
ta(I183
I287
I185
I290
ta(I185
I290
I187
I293
ta(I187
I293
I188
I296
ta(I188
I296
I189
I299
ta(I189
I299
I189
I302
ta(I189
I302
I189
I305
ta(I189
I305
I189
I309
ta(I189
I309
I188
I314
ta(I188
I314
I188
I318
ta(I188
I318
I187
I321
ta(I187
I321
I186
I324
ta(I186
I324
I185
I328
ta(I185
I328
I183
I332
ta(I183
I332
I182
I335
ta(I182
I335
I181
I340
ta(I181
I340
I178
I344
ta(I178
I344
I176
I347
ta(I176
I347
I174
I350
ta(I174
I350
I171
I353
ta(I171
I353
I169
I356
ta(I169
I356
I166
I359
ta(I166
I359
I162
I361
ta(I162
I361
I159
I364
ta(I159
I364
I155
I367
ta(I155
I367
I152
I370
ta(I152
I370
I148
I372
ta(I148
I372
I145
I374
ta(I145
I374
I143
I376
ta(I143
I376
I140
I378
ta(I140
I378
I138
I379
tatp35
a(g31
I16
(lp36
(I152
I373
I152
I374
ta(I152
I374
I155
I376
ta(I155
I376
I158
I379
ta(I158
I379
I162
I383
ta(I162
I383
I166
I387
ta(I166
I387
I170
I391
ta(I170
I391
I173
I395
ta(I173
I395
I177
I398
ta(I177
I398
I181
I402
ta(I181
I402
I185
I406
ta(I185
I406
I188
I411
ta(I188
I411
I192
I416
ta(I192
I416
I196
I420
ta(I196
I420
I199
I423
ta(I199
I423
I201
I425
ta(I201
I425
I203
I426
ta(I203
I426
I204
I427
ta(I204
I427
I206
I428
ta(I206
I428
I208
I429
ta(I208
I429
I208
I430
ta(I208
I430
I210
I431
ta(I210
I431
I214
I433
ta(I214
I433
I217
I435
ta(I217
I435
I217
I436
ta(I217
I436
I218
I436
ta(I218
I436
I218
I435
ta(I218
I435
I219
I433
tatp37
a(g31
I16
(lp38
(I233
I393
I233
I394
ta(I233
I394
I233
I396
ta(I233
I396
I232
I402
ta(I232
I402
I231
I406
ta(I231
I406
I231
I411
ta(I231
I411
I231
I414
ta(I231
I414
I231
I418
ta(I231
I418
I231
I421
ta(I231
I421
I231
I424
ta(I231
I424
I231
I427
ta(I231
I427
I233
I429
ta(I233
I429
I235
I432
ta(I235
I432
I240
I435
ta(I240
I435
I246
I438
ta(I246
I438
I251
I440
ta(I251
I440
I257
I440
ta(I257
I440
I262
I440
ta(I262
I440
I266
I440
ta(I266
I440
I269
I438
ta(I269
I438
I272
I432
ta(I272
I432
I273
I427
ta(I273
I427
I273
I422
ta(I273
I422
I271
I417
ta(I271
I417
I269
I412
ta(I269
I412
I267
I408
ta(I267
I408
I263
I403
ta(I263
I403
I260
I398
ta(I260
I398
I257
I394
ta(I257
I394
I254
I391
ta(I254
I391
I253
I391
ta(I253
I391
I251
I389
ta(I251
I389
I249
I387
ta(I249
I387
I248
I387
ta(I248
I387
I247
I387
ta(I247
I387
I246
I387
ta(I246
I387
I243
I388
ta(I243
I388
I241
I389
ta(I241
I389
I240
I390
ta(I240
I390
I239
I391
ta(I239
I391
I237
I392
ta(I237
I392
I236
I393
tatp39
a(g31
I16
(lp40
(I308
I384
I307
I383
ta(I307
I383
I306
I382
ta(I306
I382
I304
I380
ta(I304
I380
I302
I378
ta(I302
I378
I299
I376
ta(I299
I376
I296
I375
ta(I296
I375
I295
I375
ta(I295
I375
I294
I375
ta(I294
I375
I291
I378
ta(I291
I378
I289
I381
ta(I289
I381
I287
I385
ta(I287
I385
I287
I388
ta(I287
I388
I286
I392
ta(I286
I392
I286
I397
ta(I286
I397
I286
I402
ta(I286
I402
I287
I406
ta(I287
I406
I288
I409
ta(I288
I409
I289
I412
ta(I289
I412
I291
I416
ta(I291
I416
I293
I420
ta(I293
I420
I296
I422
ta(I296
I422
I298
I424
ta(I298
I424
I300
I424
ta(I300
I424
I303
I425
ta(I303
I425
I306
I426
ta(I306
I426
I311
I427
ta(I311
I427
I317
I428
ta(I317
I428
I322
I429
ta(I322
I429
I325
I428
ta(I325
I428
I329
I425
ta(I329
I425
I331
I423
ta(I331
I423
I333
I422
ta(I333
I422
I334
I420
ta(I334
I420
I336
I418
ta(I336
I418
I336
I417
ta(I336
I417
I337
I415
tatp41
a(g31
I16
(lp42
(I326
I294
I326
I296
ta(I326
I296
I327
I300
ta(I327
I300
I329
I314
ta(I329
I314
I332
I330
ta(I332
I330
I334
I336
ta(I334
I336
I337
I341
ta(I337
I341
I339
I346
ta(I339
I346
I341
I351
ta(I341
I351
I342
I355
ta(I342
I355
I343
I360
ta(I343
I360
I344
I365
ta(I344
I365
I345
I370
ta(I345
I370
I346
I374
ta(I346
I374
I346
I379
ta(I346
I379
I347
I384
ta(I347
I384
I347
I389
ta(I347
I389
I348
I392
ta(I348
I392
I349
I395
ta(I349
I395
I350
I397
ta(I350
I397
I350
I400
ta(I350
I400
I351
I403
ta(I351
I403
I352
I404
ta(I352
I404
I352
I407
ta(I352
I407
I353
I409
ta(I353
I409
I354
I411
ta(I354
I411
I354
I414
ta(I354
I414
I354
I417
ta(I354
I417
I354
I418
ta(I354
I418
I355
I420
ta(I355
I420
I355
I422
ta(I355
I422
I355
I423
tatp43
a(g31
I16
(lp44
(I347
I374
I347
I373
ta(I347
I373
I347
I371
ta(I347
I371
I348
I369
ta(I348
I369
I348
I367
ta(I348
I367
I349
I364
ta(I349
I364
I350
I362
ta(I350
I362
I351
I361
ta(I351
I361
I352
I358
ta(I352
I358
I353
I356
ta(I353
I356
I354
I354
ta(I354
I354
I355
I352
ta(I355
I352
I357
I350
ta(I357
I350
I358
I347
ta(I358
I347
I359
I346
ta(I359
I346
I361
I343
ta(I361
I343
I362
I341
ta(I362
I341
I363
I339
ta(I363
I339
I364
I338
ta(I364
I338
I364
I337
ta(I364
I337
I365
I336
ta(I365
I336
I366
I335
ta(I366
I335
I368
I334
ta(I368
I334
I369
I333
ta(I369
I333
I370
I332
ta(I370
I332
I371
I331
ta(I371
I331
I372
I330
tatp45
a(g31
I16
(lp46
(I360
I359
I360
I360
ta(I360
I360
I361
I364
ta(I361
I364
I363
I368
ta(I363
I368
I364
I371
ta(I364
I371
I366
I374
ta(I366
I374
I368
I376
ta(I368
I376
I369
I379
ta(I369
I379
I370
I382
ta(I370
I382
I372
I385
ta(I372
I385
I374
I387
ta(I374
I387
I375
I389
ta(I375
I389
I376
I392
ta(I376
I392
I377
I396
ta(I377
I396
I379
I399
ta(I379
I399
I381
I404
ta(I381
I404
I383
I407
ta(I383
I407
I383
I409
ta(I383
I409
I385
I411
ta(I385
I411
I386
I413
ta(I386
I413
I387
I415
ta(I387
I415
I388
I415
ta(I388
I415
I388
I416
ta(I388
I416
I389
I417
ta(I389
I417
I390
I418
ta(I390
I418
I391
I418
tatp47
a(g31
I16
(lp48
(I440
I331
I439
I330
ta(I439
I330
I438
I330
ta(I438
I330
I435
I330
ta(I435
I330
I432
I330
ta(I432
I330
I430
I330
ta(I430
I330
I429
I330
ta(I429
I330
I428
I330
ta(I428
I330
I427
I330
ta(I427
I330
I425
I330
ta(I425
I330
I421
I330
ta(I421
I330
I419
I331
ta(I419
I331
I418
I331
ta(I418
I331
I416
I332
ta(I416
I332
I414
I334
ta(I414
I334
I412
I336
ta(I412
I336
I410
I338
ta(I410
I338
I409
I339
ta(I409
I339
I409
I341
ta(I409
I341
I408
I344
ta(I408
I344
I408
I348
ta(I408
I348
I407
I350
ta(I407
I350
I407
I353
ta(I407
I353
I408
I355
ta(I408
I355
I409
I359
ta(I409
I359
I412
I361
ta(I412
I361
I414
I362
ta(I414
I362
I418
I363
ta(I418
I363
I423
I364
ta(I423
I364
I428
I364
ta(I428
I364
I432
I364
ta(I432
I364
I435
I364
ta(I435
I364
I437
I364
ta(I437
I364
I439
I365
ta(I439
I365
I443
I365
ta(I443
I365
I446
I366
ta(I446
I366
I449
I368
ta(I449
I368
I452
I370
ta(I452
I370
I455
I373
ta(I455
I373
I457
I376
ta(I457
I376
I459
I379
ta(I459
I379
I460
I382
ta(I460
I382
I461
I385
ta(I461
I385
I461
I388
ta(I461
I388
I461
I391
ta(I461
I391
I461
I393
ta(I461
I393
I461
I395
ta(I461
I395
I460
I397
ta(I460
I397
I459
I398
ta(I459
I398
I457
I399
ta(I457
I399
I455
I401
ta(I455
I401
I452
I402
ta(I452
I402
I450
I403
ta(I450
I403
I447
I404
ta(I447
I404
I442
I405
ta(I442
I405
I438
I406
ta(I438
I406
I436
I406
ta(I436
I406
I433
I406
ta(I433
I406
I429
I406
ta(I429
I406
I427
I407
ta(I427
I407
I426
I408
ta(I426
I408
I425
I408
ta(I425
I408
I424
I409
ta(I424
I409
I422
I410
ta(I422
I410
I421
I410
tatp49
a(g31
I16
(lp50
(I478
I288
I478
I289
ta(I478
I289
I478
I293
ta(I478
I293
I479
I298
ta(I479
I298
I479
I303
ta(I479
I303
I480
I306
ta(I480
I306
I481
I308
ta(I481
I308
I483
I314
ta(I483
I314
I484
I320
ta(I484
I320
I485
I324
ta(I485
I324
I486
I329
ta(I486
I329
I487
I334
ta(I487
I334
I489
I340
ta(I489
I340
I489
I346
ta(I489
I346
I489
I351
ta(I489
I351
I489
I356
ta(I489
I356
I490
I361
ta(I490
I361
I491
I366
ta(I491
I366
I491
I370
ta(I491
I370
I492
I374
ta(I492
I374
I494
I378
ta(I494
I378
I494
I381
ta(I494
I381
I494
I383
ta(I494
I383
I495
I385
ta(I495
I385
I495
I386
ta(I495
I386
I495
I387
ta(I495
I387
I495
I389
ta(I495
I389
I496
I393
tatp51
a(g31
I16
(ltp52
a(g31
I16
(lp53
(I500
I415
I500
I416
ta(I500
I416
I499
I417
ta(I499
I417
I499
I418
ta(I499
I418
I499
I419
ta(I499
I419
I499
I420
ta(I499
I420
I499
I421
tatp54
a(g31
I16
(lp55
(I103
I493
I104
I493
ta(I104
I493
I122
I491
ta(I122
I491
I152
I490
ta(I152
I490
I182
I488
ta(I182
I488
I208
I485
ta(I208
I485
I240
I481
ta(I240
I481
I280
I478
ta(I280
I478
I328
I475
ta(I328
I475
I372
I473
ta(I372
I473
I426
I473
ta(I426
I473
I476
I470
ta(I476
I470
I518
I469
ta(I518
I469
I554
I469
ta(I554
I469
I576
I470
ta(I576
I470
I592
I471
ta(I592
I471
I598
I472
ta(I598
I472
I599
I473
tatp56
a.