__bss_start
CompareCharsetItems
ConvertFromIeeeExtended
ConvertToIeeeExtended
_edata
_end
_fini
g_wxZipClassFactory
_init
WX_2.8
WX_2.8.1
WX_2.8.2
WX_2.8.4
WX_2.8.5
WX_2.8.7
WX_2.8.8
wx_comparestrings
wxConvCurrent
wxConvFileName
wxConvISO8859_1
wxConvLibc
wxConvLocal
wxConvUI
wxConvUTF32BE
wxConvUTF32LE
wxConvUTF7
wxConvUTF8
wxDefaultDateTime
wxDefaultDateTimeFormat
wxDefaultListKey
wxDefaultTimeSpanFormat
wxEmptyString
wxEVT_END_PROCESS
wxEVT_FIRST
wxEVT_IDLE
wxEVT_NULL
wxEVT_SOCKET
wxEVT_USER_FIRST
wxFalse
wxFatalSignalHandler
wxInvalidSize
wxNullVariant
wxPendingEvents
wxPendingEventsLocker
wxPthreadCleanup
wxPthreadStart
wxStringCompareFunction
wxTheMimeTypesManager
_Z10wxCopyFileRK8wxStringS1_b
_Z10wxDecToHexi
_Z10wxDecToHexiPc
_Z10wxDoGetCwdPci
_Z10wxHexToDecRK8wxString
_Z10wxLogErrorPKcz
_Z10wxNextWDayRN10wxDateTime7WeekDayE
_Z10wxPathOnlyPc
_Z10wxPathOnlyRK8wxString
_Z10wxPrevWDayRN10wxDateTime7WeekDayE
_Z10wxRealPathPc
_Z10wxRealPathRK8wxString
_Z10wxShutdown15wxShutdownFlags
_Z10wxVLogInfoPKcPc
_Z11wxDirExistsPKc
_Z11wxGetLocalev
_Z11wxGetUserIdPci
_Z11wxGetUserIdv
_Z11wxLogStatusPKcz
_Z11wxMatchWildRK8wxStringS1_b
_Z11wxNextMonthRN10wxDateTime5MonthE
_Z11wxPrevMonthRN10wxDateTime5MonthE
_Z11wxSnprintf_PcjPKcz
_Z11wxSplitPathPKcP8wxStringS2_S2_
_Z11wxSplitPathR13wxArrayStringPKc
_Z11wxVLogErrorPKcPc
_Z12wxEntryStartRiPPc
_Z12wxExpandPathPcPKc
_Z12wxFileExistsRK8wxString
_Z12wxGetDataDirv
_Z12wxGetHomeDirP8wxString
_Z12wxGetHomeDirv
_Z12wxGetUTCTimev
_Z12wxInitializeiPPc
_Z12wxIsReadableRK8wxString
_Z12wxIsWritableRK8wxString
_Z12wxLogGenericmPKcz
_Z12wxLogMessagePKcz
_Z12wxLogVerbosePKcz
_Z12wxLogWarningPKcz
_Z12wxMicroSleepm
_Z12wxMilliSleepm
_Z12wxRemoveFileRK8wxString
_Z12wxRenameFileRK8wxStringS1_b
_Z12wxStartTimerv
_Z12wxVLogStatusPKcPc
_Z12wxWakeUpIdlev
_Z13wxConcatFilesRK8wxStringS1_S1_
_Z13wxGetFileKindi
_Z13wxGetFileKindP8_IO_FILE
_Z13wxGetHostNamePci
_Z13wxGetHostNamev
_Z13wxGetUserHomeRK8wxString
_Z13wxGetUserNamePci
_Z13wxGetUserNamev
_Z13wxLogSysErrorlPKcz
_Z13wxLogSysErrorPKcz
_Z13wxSysErrorMsgm
_Z13wxVLogGenericmPKcPc
_Z13wxVLogMessagePKcPc
_Z13wxVLogVerbosePKcPc
_Z13wxVLogWarningPKcPc
_Z14wxContractPathRK8wxStringS1_S1_
_Z14wxEntryCleanupv
_Z14wxFindNextFilev
_Z14wxGetDiskSpaceRK8wxStringP16wxLongLongNativeS3_
_Z14wxGetLocalTimev
_Z14wxGetOsVersionPiS_
_Z14wxGetPowerTypev
_Z14wxGetProcessIdv
_Z14wxIsExecutableRK8wxString
_Z14wxNewEventTypev
_Z14wxSysErrorCodev
_Z14wxUninitializev
_Z14wxVLogSysErrorlPKcPc
_Z14wxVLogSysErrorPKcPc
_Z15wxExpandEnvVarsRK8wxString
_Z15wxFindFirstFilePKci
_Z15wxGetFreeMemoryv
_Z15wxLogFatalErrorPKcz
_Z15wxMutexGuiEnterv
_Z15wxMutexGuiLeavev
_Z15wxYieldIfNeededv
_Z16wxCreateTempFileRK8wxStringP6wxFilePS_
_Z16wxCreateTempFileRK8wxStringP7wxFFilePS_
_Z16wxFindFileInPathP8wxStringPKcS2_
_Z16wxGetElapsedTimeb
_Z16wxGetOSDirectoryv
_Z16wxIsAbsolutePathRK8wxString
_Z16wxStringTokenizeRK8wxStringS1_21wxStringTokenizerMode
_Z16wxStripExtensionPc
_Z16wxStripExtensionR8wxString
_Z16wxVLogFatalErrorPKcPc
_Z17wxGetBatteryStatev
_Z17wxGetEmailAddressPci
_Z17wxGetEmailAddressv
_Z17wxGetFullHostNamePci
_Z17wxGetFullHostNamev
_Z17wxGetTempFileNameRK8wxStringPc
_Z17wxGetTempFileNameRK8wxStringRS_
_Z17wxIsPlatform64Bitv
_Z17wxSafeShowMessageRK8wxStringS1_
_Z17wxStringToIntTypeIlPFlPKcPPciEEbS1_PT_iT0_
_Z17wxStringToIntTypeImPFmPKcPPciEEbS1_PT_iT0_
_Z17wxStringToIntTypeIxPFxPKcPPciEEbS1_PT_iT0_
_Z17wxStringToIntTypeIyPFyPKcPPciEEbS1_PT_iT0_
_Z18new_wxMBConv_iconvPKc
_Z18new_wxMBConv_wxwinPKc
_Z18wxCopyAbsolutePathRK8wxString
_Z18wxDos2UnixFilenamePc
_Z18wxFileNameFromPathPc
_Z18wxFileNameFromPathRK8wxString
_Z18wxGetInstallPrefixv
_Z18wxGetOsDescriptionv
_Z18wxUnix2DosFilenamePc
_Z18wxUseFilterClassesv
_Z19wxUseArchiveClassesv
_Z20wxCreateTempFileNameRK8wxStringP6wxFilePb
_Z20wxCreateTempFileNameRK8wxStringP7wxFFilePb
_Z20wxGetLocalTimeMillisv
_Z21wxCreateDynamicObjectPKc
_Z21wxGetWorkingDirectoryPci
_Z21wxSetWorkingDirectoryRK8wxString
_Z21wxStringSortAscendingP8wxStringS0_
_Z22wxFileModificationTimeRK8wxString
_Z22wxLaunchDefaultBrowserRK8wxStringi
_Z22wxStringSortDescendingP8wxStringS0_
_Z23wxEndsWithPathSeparatorPKc
_Z23wxHandleFatalExceptionsb
_Z24wxIsPlatformLittleEndianv
_Z26wxHandleProcessTerminationP16wxEndProcessData
_Z26wxParseCommonDialogsFilterRK8wxStringR13wxArrayStringS3_
_Z29wxSetLaunchDefaultBrowserImplPFbRK8wxStringiE
_Z4endlR18wxTextOutputStream
_Z5wxNowv
_Z6wxEndLR14wxOutputStream
_Z6wxExitv
_Z6wxKilll8wxSignalP11wxKillErrori
_Z7wxEntryRiPPc
_Z7wxMB2WCPwPKcj
_Z7wxMkdirRK8wxStringi
_Z7wxRmdirRK8wxStringi
_Z7wxShellRK8wxString
_Z7wxShellRK8wxStringR13wxArrayString
_Z7wxSleepi
_Z7wxWC2MBPcPKwj
_Z7wxYieldv
_Z8wxGetCwdv
_Z8wxGetEnvRK8wxStringPS_
_Z8wxIsWildRK8wxString
_Z8wxOKlibcv
_Z8wxSetEnvRK8wxStringPKc
_Z8wxUsleepm
_Z9wxExecutePPciP9wxProcess
_Z9wxExecuteRK8wxStringiP9wxProcess
_Z9wxExecuteRK8wxStringR13wxArrayStringi
_Z9wxExecuteRK8wxStringR13wxArrayStringS3_i
_Z9wxLogInfoPKcz
_Z9wxStrdupWPKw
_ZlsR18wxTextOutputStreamRK16wxLongLongNative
_ZlsR18wxTextOutputStreamRK17wxULongLongNative
_ZlsR18wxTextOutputStreamx
_ZlsR18wxTextOutputStreamy
_ZlsR8wxStringRK16wxLongLongNative
_ZlsR8wxStringRK17wxULongLongNative
_ZlsRSoRK16wxLongLongNative
_ZlsRSoRK17wxULongLongNative
_ZlsRSoRK8wxString
_ZmliRK10wxDateSpan
_ZmliRK10wxTimeSpan
_ZN10wxConvAuto11InitFromBOMENS_7BOMTypeE
_ZN10wxConvAuto13InitFromInputEPPKcPj
_ZN10wxConvAuto9DetectBOMEPKcj
_ZN10wxConvAutoD0Ev
_ZN10wxConvAutoD1Ev
_ZN10wxDateTime10GetCenturyEi
_ZN10wxDateTime10GetCountryEv
_ZN10wxDateTime10IsLeapYearEiNS_8CalendarE
_ZN10wxDateTime10ms_countryE
_ZN10wxDateTime10SetCountryENS_7CountryE
_ZN10wxDateTime10SetFromDOSEm
_ZN10wxDateTime11GetBeginDSTEiNS_7CountryE
_ZN10wxDateTime11ParseFormatEPKcS1_RKS_
_ZN10wxDateTime12GetMonthNameENS_5MonthENS_9NameFlagsE
_ZN10wxDateTime12MakeTimezoneERKNS_8TimeZoneEb
_ZN10wxDateTime12SetToTheWeekEtNS_7WeekDayENS_9WeekFlagsE
_ZN10wxDateTime12SetToWeekDayENS_7WeekDayEiNS_5MonthEi
_ZN10wxDateTime12SetToYearDayEt
_ZN10wxDateTime13ParseDateTimeEPKc
_ZN10wxDateTime13TIME_T_FACTORE
_ZN10wxDateTime14GetAmPmStringsEP8wxStringS1_
_ZN10wxDateTime14GetCurrentYearENS_8CalendarE
_ZN10wxDateTime14GetWeekDayNameENS_7WeekDayENS_9NameFlagsE
_ZN10wxDateTime14SetMillisecondEt
_ZN10wxDateTime15ConvertYearToBCEi
_ZN10wxDateTime15GetCurrentMonthENS_8CalendarE
_ZN10wxDateTime15GetNumberOfDaysEiNS_8CalendarE
_ZN10wxDateTime15GetNumberOfDaysENS_5MonthEiNS_8CalendarE
_ZN10wxDateTime15IsDSTApplicableEiNS_7CountryE
_ZN10wxDateTime15ParseRfc822DateEPKc
_ZN10wxDateTime15SetToWeekOfYearEitNS_7WeekDayE
_ZN10wxDateTime16MakeFromTimezoneERKNS_8TimeZoneEb
_ZN10wxDateTime16SetToNextWeekDayENS_7WeekDayE
_ZN10wxDateTime16SetToPrevWeekDayENS_7WeekDayE
_ZN10wxDateTime17SetToLastMonthDayENS_5MonthEi
_ZN10wxDateTime21IsWestEuropeanCountryENS_7CountryE
_ZN10wxDateTime22SetToWeekDayInSameWeekENS_7WeekDayENS_9WeekFlagsE
_ZN10wxDateTime2Tm14ComputeWeekDayEv
_ZN10wxDateTime2Tm7AddDaysEi
_ZN10wxDateTime2Tm9AddMonthsEi
_ZN10wxDateTime2TmC1ERK2tmRKNS_8TimeZoneE
_ZN10wxDateTime2TmC1Ev
_ZN10wxDateTime2TmC2ERK2tmRKNS_8TimeZoneE
_ZN10wxDateTime2TmC2Ev
_ZN10wxDateTime3AddERK10wxDateSpan
_ZN10wxDateTime3SetEd
_ZN10wxDateTime3SetERK2tm
_ZN10wxDateTime3SetEtNS_5MonthEitttt
_ZN10wxDateTime3SetEtttt
_ZN10wxDateTime4UNowEv
_ZN10wxDateTime6SetDayEt
_ZN10wxDateTime7SetHourEt
_ZN10wxDateTime7SetYearEi
_ZN10wxDateTime8GetTmNowEP2tm
_ZN10wxDateTime8SetMonthENS_5MonthE
_ZN10wxDateTime8TimeZoneC1ENS_2TZE
_ZN10wxDateTime8TimeZoneC2ENS_2TZE
_ZN10wxDateTime9GetEndDSTEiNS_7CountryE
_ZN10wxDateTime9ParseDateEPKc
_ZN10wxDateTime9ParseTimeEPKc
_ZN10wxDateTime9ResetTimeEv
_ZN10wxDateTime9SetMinuteEt
_ZN10wxDateTime9SetSecondEt
_ZN10wxEventPtrD1Ev
_ZN10wxEventPtrD2Ev
_ZN10wxFileName10FileExistsERK8wxString
_ZN10wxFileName10GetHomeDirEv
_ZN10wxFileName10GetTempDirEv
_ZN10wxFileName10PrependDirERK8wxString
_ZN10wxFileName11SetFullNameERK8wxString
_ZN10wxFileName11SplitVolumeERK8wxStringPS0_S3_12wxPathFormat
_ZN10wxFileName13AssignHomeDirEv
_ZN10wxFileName14MakeRelativeToERK8wxString12wxPathFormat
_ZN10wxFileName15IsCaseSensitiveE12wxPathFormat
_ZN10wxFileName15IsPathSeparatorEc12wxPathFormat
_ZN10wxFileName17GetForbiddenCharsE12wxPathFormat
_ZN10wxFileName17GetPathSeparatorsE12wxPathFormat
_ZN10wxFileName18AssignTempFileNameERK8wxString
_ZN10wxFileName18AssignTempFileNameERK8wxStringP6wxFile
_ZN10wxFileName18AssignTempFileNameERK8wxStringP7wxFFile
_ZN10wxFileName18CreateTempFileNameERK8wxString
_ZN10wxFileName18CreateTempFileNameERK8wxStringP6wxFile
_ZN10wxFileName18CreateTempFileNameERK8wxStringP7wxFFile
_ZN10wxFileName18GetPathTerminatorsE12wxPathFormat
_ZN10wxFileName18GetVolumeSeparatorE12wxPathFormat
_ZN10wxFileName19IsValidDirComponentERK8wxString
_ZN10wxFileName20GetHumanReadableSizeERK17wxULongLongNativeRK8wxStringi
_ZN10wxFileName5ClearEv
_ZN10wxFileName5MkdirEii
_ZN10wxFileName5MkdirERK8wxStringii
_ZN10wxFileName5RmdirERK8wxString
_ZN10wxFileName5RmdirEv
_ZN10wxFileName5TouchEv
_ZN10wxFileName6AssignERK8wxString12wxPathFormat
_ZN10wxFileName6AssignERK8wxStringS2_12wxPathFormat
_ZN10wxFileName6AssignERK8wxStringS2_S2_12wxPathFormat
_ZN10wxFileName6AssignERK8wxStringS2_S2_S2_b12wxPathFormat
_ZN10wxFileName6AssignERKS_
_ZN10wxFileName6GetCwdERK8wxString
_ZN10wxFileName6SetCwdERK8wxString
_ZN10wxFileName6SetCwdEv
_ZN10wxFileName7DirNameERK8wxString12wxPathFormat
_ZN10wxFileName7GetSizeERK8wxString
_ZN10wxFileName7SetPathERK8wxString12wxPathFormat
_ZN10wxFileName8FileNameERK8wxString12wxPathFormat
_ZN10wxFileName8SetTimesEPK10wxDateTimeS2_S2_
_ZN10wxFileName9AppendDirERK8wxString
_ZN10wxFileName9AssignCwdERK8wxString
_ZN10wxFileName9AssignDirERK8wxString12wxPathFormat
_ZN10wxFileName9DirExistsERK8wxString
_ZN10wxFileName9GetFormatE12wxPathFormat
_ZN10wxFileName9InsertDirEjRK8wxString
_ZN10wxFileName9NormalizeEiRK8wxString12wxPathFormat
_ZN10wxFileName9RemoveDirEj
_ZN10wxFileName9SplitPathERK8wxStringPS0_S3_S3_12wxPathFormat
_ZN10wxFileName9SplitPathERK8wxStringPS0_S3_S3_S3_Pb12wxPathFormat
_ZN10wxFileNameD1Ev
_ZN10wxFileType10SetCommandERK8wxStringS2_b
_ZN10wxFileType11UnassociateEv
_ZN10wxFileType13ExpandCommandERK8wxStringRKNS_17MessageParametersE
_ZN10wxFileType13GetExtensionsER13wxArrayString
_ZN10wxFileType14SetDefaultIconERK8wxStringi
_ZN10wxFileType17MessageParametersD0Ev
_ZN10wxFileType17MessageParametersD1Ev
_ZN10wxFileTypeC1ERK14wxFileTypeInfo
_ZN10wxFileTypeC1Ev
_ZN10wxFileTypeC2ERK14wxFileTypeInfo
_ZN10wxFileTypeC2Ev
_ZN10wxFileTypeD1Ev
_ZN10wxFileTypeD2Ev
_ZN10wxListBase10DeleteNodeEP10wxNodeBase
_ZN10wxListBase10DetachNodeEP10wxNodeBase
_ZN10wxListBase11DeleteNodesEP10wxNodeBaseS1_
_ZN10wxListBase12AppendCommonEP10wxNodeBase
_ZN10wxListBase12DeleteObjectEPv
_ZN10wxListBase12DoDeleteNodeEP10wxNodeBase
_ZN10wxListBase4InitE9wxKeyType
_ZN10wxListBase4SortEPFiPKvS1_E
_ZN10wxListBase5ClearEv
_ZN10wxListBase6AppendElPv
_ZN10wxListBase6AppendEPKcPv
_ZN10wxListBase6AppendEPv
_ZN10wxListBase6DoCopyERKS_
_ZN10wxListBase6InsertEP10wxNodeBasePv
_ZN10wxListBase7ForEachEPFiPvE
_ZN10wxListBase7ReverseEv
_ZN10wxListBase8LastThatEPFiPvE
_ZN10wxListBase9FirstThatEPFiPvE
_ZN10wxListBaseC1EjPPv
_ZN10wxListBaseC2EjPPv
_ZN10wxListBaseD0Ev
_ZN10wxListBaseD1Ev
_ZN10wxListBaseD2Ev
_ZN10wxLogChain5DoLogEmPKcl
_ZN10wxLogChain5FlushEv
_ZN10wxLogChain6SetLogEP5wxLog
_ZN10wxLogChainC1EP5wxLog
_ZN10wxLogChainC2EP5wxLog
_ZN10wxLogChainD0Ev
_ZN10wxLogChainD1Ev
_ZN10wxLogChainD2Ev
_ZN10wxNodeBase10DeleteDataEv
_ZN10wxNodeBaseC1EP10wxListBasePS_S2_PvRK9wxListKey
_ZN10wxNodeBaseC2EP10wxListBasePS_S2_PvRK9wxListKey
_ZN10wxNodeBaseD0Ev
_ZN10wxNodeBaseD1Ev
_ZN10wxNodeBaseD2Ev
_ZN10wxPathList10AddEnvListERK8wxString
_ZN10wxPathList20EnsureFileAccessibleERK8wxString
_ZN10wxPathList3AddERK13wxArrayString
_ZN10wxPathList3AddERK8wxString
_ZN10wxPlatform11AddPlatformEi
_ZN10wxPlatform14ClearPlatformsEv
_ZN10wxPlatform18sm_customPlatformsE
_ZN10wxPlatform2IfEid
_ZN10wxPlatform2IfEil
_ZN10wxPlatform2IfEiRK8wxString
_ZN10wxPlatform2IsEi
_ZN10wxPlatform4CopyERKS_
_ZN10wxPlatform4ElseEd
_ZN10wxPlatform4ElseEl
_ZN10wxPlatform4ElseERK8wxString
_ZN10wxPlatform5IfNotEid
_ZN10wxPlatform5IfNotEil
_ZN10wxPlatform5IfNotEiRK8wxString
_ZN10wxPlatform6ElseIfEid
_ZN10wxPlatform6ElseIfEil
_ZN10wxPlatform6ElseIfEiRK8wxString
_ZN10wxPlatform9ElseIfNotEid
_ZN10wxPlatform9ElseIfNotEil
_ZN10wxPlatform9ElseIfNotEiRK8wxString
_ZN10wxTarEntry11SetDateTimeERK10wxDateTime
_ZN10wxTarEntry12ms_classInfoE
_ZN10wxTarEntry13SetIsReadOnlyEb
_ZN10wxTarEntry14wxCreateObjectEv
_ZN10wxTarEntry15GetInternalNameERK8wxString12wxPathFormatPb
_ZN10wxTarEntry7SetModeEi
_ZN10wxTarEntry7SetNameERK8wxString12wxPathFormat
_ZN10wxTarEntry7SetSizeEx
_ZN10wxTarEntry8SetIsDirEb
_ZN10wxTarEntry9SetOffsetEx
_ZN10wxTarEntryaSERKS_
_ZN10wxTarEntryC1ERK8wxStringRK10wxDateTimex
_ZN10wxTarEntryC1ERKS_
_ZN10wxTarEntryC2ERK8wxStringRK10wxDateTimex
_ZN10wxTarEntryC2ERKS_
_ZN10wxTarEntryD0Ev
_ZN10wxTarEntryD1Ev
_ZN10wxTarEntryD2Ev
_ZN10wxTempFile4OpenERK8wxString
_ZN10wxTempFile6CommitEv
_ZN10wxTempFile7DiscardEv
_ZN10wxTempFileC1ERK8wxString
_ZN10wxTempFileC2ERK8wxString
_ZN10wxTempFileD1Ev
_ZN10wxTempFileD2Ev
_ZN10wxTextFile6OnOpenERK8wxStringN12wxTextBuffer20wxTextBufferOpenModeE
_ZN10wxTextFile6OnReadERK8wxMBConv
_ZN10wxTextFile7OnCloseEv
_ZN10wxTextFile7OnWriteE14wxTextFileTypeRK8wxMBConv
_ZN10wxTextFileC1ERK8wxString
_ZN10wxTextFileC2ERK8wxString
_ZN10wxTextFileD0Ev
_ZN10wxTextFileD1Ev
_ZN10wxZipEntry11ReadCentralER13wxInputStreamR8wxMBConv
_ZN10wxZipEntry11SetDateTimeERK10wxDateTime
_ZN10wxZipEntry11SetNotifierER13wxZipNotifier
_ZN10wxZipEntry12ms_classInfoE
_ZN10wxZipEntry13SetIsReadOnlyEb
_ZN10wxZipEntry13SetLocalExtraEPKcj
_ZN10wxZipEntry13UnsetNotifierEv
_ZN10wxZipEntry14ReadDescriptorER13wxInputStream
_ZN10wxZipEntry14wxCreateObjectEv
_ZN10wxZipEntry15GetInternalNameERK8wxString12wxPathFormatPb
_ZN10wxZipEntry15SetSystemMadeByEi
_ZN10wxZipEntry15WriteDescriptorER14wxOutputStreamjxx
_ZN10wxZipEntry6NotifyEv
_ZN10wxZipEntry7SetModeEi
_ZN10wxZipEntry7SetNameERK8wxString12wxPathFormat
_ZN10wxZipEntry7SetSizeEx
_ZN10wxZipEntry8SetExtraEPKcj
_ZN10wxZipEntry8SetIsDirEb
_ZN10wxZipEntry9ReadLocalER13wxInputStreamR8wxMBConv
_ZN10wxZipEntry9SetOffsetEx
_ZN10wxZipEntryaSERKS_
_ZN10wxZipEntryC1ERK8wxStringRK10wxDateTimex
_ZN10wxZipEntryC1ERKS_
_ZN10wxZipEntryC2ERK8wxStringRK10wxDateTimex
_ZN10wxZipEntryC2ERKS_
_ZN10wxZipEntryD0Ev
_ZN10wxZipEntryD1Ev
_ZN10wxZipEntryD2Ev
_ZN11wxAppTraitsD0Ev
_ZN11wxAppTraitsD1Ev
_ZN11wxClassInfo10UnregisterEv
_ZN11wxClassInfo13sm_classTableE
_ZN11wxClassInfo8RegisterEv
_ZN11wxClassInfo8sm_firstE
_ZN11wxClassInfo9FindClassEPKc
_ZN11wxClassInfoD1Ev
_ZN11wxClassInfoD2Ev
_ZN11wxCondition11WaitTimeoutEm
_ZN11wxCondition4WaitEv
_ZN11wxCondition6SignalEv
_ZN11wxCondition9BroadcastEv
_ZN11wxConditionC1ER7wxMutex
_ZN11wxConditionC2ER7wxMutex
_ZN11wxConditionD1Ev
_ZN11wxConditionD2Ev
_ZN11wxFSFilePtrD1Ev
_ZN11wxFSFilePtrD2Ev
_ZN11wxHashTable11GetNextNodeEj
_ZN11wxHashTable16DoDeleteContentsEP20wxHashTableBase_Node
_ZN11wxHashTable4NextEv
_ZN11wxHashTable6DoCopyERKS_
_ZN11wxHashTableaSERKS_
_ZN11wxHashTableC1ERKS_
_ZN11wxHashTableC2ERKS_
_ZN11wxHashTableD0Ev
_ZN11wxHashTableD1Ev
_ZN11wxLogBuffer11DoLogStringEPKcl
_ZN11wxLogBuffer5DoLogEmPKcl
_ZN11wxLogBuffer5FlushEv
_ZN11wxLogBufferD0Ev
_ZN11wxLogBufferD1Ev
_ZN11wxLogStderr11DoLogStringEPKcl
_ZN11wxLogStderrC1EP8_IO_FILE
_ZN11wxLogStderrC2EP8_IO_FILE
_ZN11wxLogStderrD0Ev
_ZN11wxLogStderrD1Ev
_ZN11wxLogStream11DoLogStringEPKcl
_ZN11wxLogStreamC1EPSo
_ZN11wxLogStreamC2EPSo
_ZN11wxLogStreamD0Ev
_ZN11wxLogStreamD1Ev
_ZN11wxRegExImpl7CompileERK8wxStringi
_ZN11wxRegExImplC1Ev
_ZN11wxRegExImplC2Ev
_ZN11wxRegExImplD1Ev
_ZN11wxRegExImplD2Ev
_ZN11wxSemaphore11WaitTimeoutEm
_ZN11wxSemaphore4PostEv
_ZN11wxSemaphore4WaitEv
_ZN11wxSemaphore7TryWaitEv
_ZN11wxSemaphoreC1Eii
_ZN11wxSemaphoreC2Eii
_ZN11wxSemaphoreD1Ev
_ZN11wxSemaphoreD2Ev
_ZN11wxStopWatch5StartEl
_ZN11wxZipEndRec4ReadER13wxInputStreamR8wxMBConv
_ZN11wxZipEndRecC1Ev
_ZN11wxZipEndRecC2Ev
_ZN11wxZipHeaderC1ER13wxInputStreamj
_ZN11wxZipHeaderC2ER13wxInputStreamj
_ZN11wxZipMemory6UniqueEj
_ZN12MemFSHashObjD0Ev
_ZN12MemFSHashObjD1Ev
_ZN12wxAppConsole10CallOnInitEv
_ZN12wxAppConsole10InitializeERiPPc
_ZN12wxAppConsole10WakeUpIdleEv
_ZN12wxAppConsole11FilterEventER7wxEvent
_ZN12wxAppConsole12CreateTraitsEv
_ZN12wxAppConsole12ms_appInitFnE
_ZN12wxAppConsole13OnCmdLineHelpER15wxCmdLineParser
_ZN12wxAppConsole13OnInitCmdLineER15wxCmdLineParser
_ZN12wxAppConsole14ms_appInstanceE
_ZN12wxAppConsole14OnCmdLineErrorER15wxCmdLineParser
_ZN12wxAppConsole15OnCmdLineParsedER15wxCmdLineParser
_ZN12wxAppConsole16OnFatalExceptionEv
_ZN12wxAppConsole17CheckBuildOptionsEPKcS1_
_ZN12wxAppConsole20OnUnhandledExceptionEv
_ZN12wxAppConsole20ProcessPendingEventsEv
_ZN12wxAppConsole4ExitEv
_ZN12wxAppConsole5YieldEb
_ZN12wxAppConsole6OnExitEv
_ZN12wxAppConsole6OnInitEv
_ZN12wxAppConsole7CleanUpEv
_ZN12wxAppConsole9GetTraitsEv
_ZN12wxAppConsole9OnInitGuiEv
_ZN12wxAppConsoleC1Ev
_ZN12wxAppConsoleC2Ev
_ZN12wxAppConsoleD0Ev
_ZN12wxAppConsoleD1Ev
_ZN12wxAppConsoleD2Ev
_ZN12wxAppPtrBaseD1Ev
_ZN12wxAppPtrBaseD2Ev
_ZN12wxClientBase12ms_classInfoE
_ZN12wxClientBaseD0Ev
_ZN12wxClientBaseD1Ev
_ZN12wxConfigBase10DoWriteIntERK8wxStringi
_ZN12wxConfigBase10ms_pConfigE
_ZN12wxConfigBase11DoWriteBoolERK8wxStringb
_ZN12wxConfigBase13DoWriteDoubleERK8wxStringd
_ZN12wxConfigBase14ms_bAutoCreateE
_ZN12wxConfigBase23RemoveTrailingSeparatorERK8wxString
_ZN12wxConfigBase3SetEPS_
_ZN12wxConfigBase6CreateEv
_ZN12wxConfigBaseC1ERK8wxStringS2_S2_S2_l
_ZN12wxConfigBaseC2ERK8wxStringS2_S2_S2_l
_ZN12wxConfigBaseD0Ev
_ZN12wxConfigBaseD1Ev
_ZN12wxConfigBaseD2Ev
_ZN12wxEvtHandler10DisconnectEiiiM8wxObjectFvR7wxEventEPS0_PS_
_ZN12wxEvtHandler12ms_classInfoE
_ZN12wxEvtHandler12ProcessEventER7wxEvent
_ZN12wxEvtHandler12TryValidatorER7wxEvent
_ZN12wxEvtHandler13sm_eventTableE
_ZN12wxEvtHandler14wxCreateObjectEv
_ZN12wxEvtHandler15AddPendingEventER7wxEvent
_ZN12wxEvtHandler15DoSetClientDataEPv
_ZN12wxEvtHandler16ClearEventLockerEv
_ZN12wxEvtHandler16SearchEventTableER12wxEventTableR7wxEvent
_ZN12wxEvtHandler17DoSetClientObjectEP12wxClientData
_ZN12wxEvtHandler17sm_eventHashTableE
_ZN12wxEvtHandler18ProcessThreadEventER7wxEvent
_ZN12wxEvtHandler20ProcessPendingEventsEv
_ZN12wxEvtHandler20sm_eventTableEntriesE
_ZN12wxEvtHandler21ProcessEventIfMatchesERK21wxEventTableEntryBasePS_R7wxEvent
_ZN12wxEvtHandler23SearchDynamicEventTableER7wxEvent
_ZN12wxEvtHandler7ConnectEiiiM8wxObjectFvR7wxEventEPS0_PS_
_ZN12wxEvtHandler9TryParentER7wxEvent
_ZN12wxEvtHandlerC1Ev
_ZN12wxEvtHandlerC2Ev
_ZN12wxEvtHandlerD0Ev
_ZN12wxEvtHandlerD1Ev
_ZN12wxEvtHandlerD2Ev
_ZN12wxFileConfig11DeleteEntryERK8wxStringb
_ZN12wxFileConfig11DeleteGroupERK8wxString
_ZN12wxFileConfig11DoWriteLongERK8wxStringl
_ZN12wxFileConfig11GetLocalDirEv
_ZN12wxFileConfig11RenameEntryERK8wxStringS2_
_ZN12wxFileConfig11RenameGroupERK8wxStringS2_
_ZN12wxFileConfig11SetRootPathEv
_ZN12wxFileConfig12GetGlobalDirEv
_ZN12wxFileConfig13DoWriteStringERK8wxStringS2_
_ZN12wxFileConfig14LineListAppendERK8wxString
_ZN12wxFileConfig14LineListInsertERK8wxStringP20wxFileConfigLineList
_ZN12wxFileConfig14LineListRemoveEP20wxFileConfigLineList
_ZN12wxFileConfig15LineListIsEmptyEv
_ZN12wxFileConfig16GetLocalFileNameEPKc
_ZN12wxFileConfig17GetGlobalFileNameEPKc
_ZN12wxFileConfig4InitEv
_ZN12wxFileConfig4SaveER14wxOutputStreamRK8wxMBConv
_ZN12wxFileConfig5FlushEb
_ZN12wxFileConfig5ParseERK12wxTextBufferb
_ZN12wxFileConfig7CleanUpEv
_ZN12wxFileConfig7SetPathERK8wxString
_ZN12wxFileConfig9DeleteAllEv
_ZN12wxFileConfig9DoSetPathERK8wxStringb
_ZN12wxFileConfigC1ER13wxInputStreamRK8wxMBConv
_ZN12wxFileConfigC1ERK8wxStringS2_S2_S2_lRK8wxMBConv
_ZN12wxFileConfigC2ER13wxInputStreamRK8wxMBConv
_ZN12wxFileConfigC2ERK8wxStringS2_S2_S2_lRK8wxMBConv
_ZN12wxFileConfigD0Ev
_ZN12wxFileConfigD1Ev
_ZN12wxFileConfigD2Ev
_ZN12wxFileStreamC1ERK8wxString
_ZN12wxFileStreamC2ERK8wxString
_ZN12wxFileStreamD0Ev
_ZN12wxFileStreamD1Ev
_ZN12wxFileSystem10AddHandlerEP19wxFileSystemHandler
_ZN12wxFileSystem10m_HandlersE
_ZN12wxFileSystem12ChangePathToERK8wxStringb
_ZN12wxFileSystem12ms_classInfoE
_ZN12wxFileSystem13FileNameToURLERK10wxFileName
_ZN12wxFileSystem13RemoveHandlerEP19wxFileSystemHandler
_ZN12wxFileSystem13URLToFileNameERK8wxString
_ZN12wxFileSystem14FindFileInPathEP8wxStringPKcS3_
_ZN12wxFileSystem14wxCreateObjectEv
_ZN12wxFileSystem15CleanUpHandlersEv
_ZN12wxFileSystem17HasHandlerForPathERK8wxString
_ZN12wxFileSystem8FindNextEv
_ZN12wxFileSystem8OpenFileERK8wxStringi
_ZN12wxFileSystem9FindFirstERK8wxStringi
_ZN12wxFileSystem9MakeLocalEP19wxFileSystemHandler
_ZN12wxFileSystemD0Ev
_ZN12wxFileSystemD1Ev
_ZN12wxFileSystemD2Ev
_ZN12wxMBConvLibcD0Ev
_ZN12wxMBConvLibcD1Ev
_ZN12wxMBConvUTF7D0Ev
_ZN12wxMBConvUTF7D1Ev
_ZN12wxMBConvUTF8D0Ev
_ZN12wxMBConvUTF8D1Ev
_ZN12wxMemoryText6OnOpenERK8wxStringN12wxTextBuffer20wxTextBufferOpenModeE
_ZN12wxMemoryText6OnReadERK8wxMBConv
_ZN12wxMemoryText7OnCloseEv
_ZN12wxMemoryText7OnWriteE14wxTextFileTypeRK8wxMBConv
_ZN12wxMemoryTextD0Ev
_ZN12wxMemoryTextD1Ev
_ZN12wxModuleList10CreateNodeEP10wxNodeBaseS1_PvRK9wxListKey
_ZN12wxModuleListD0Ev
_ZN12wxModuleListD1Ev
_ZN12wxMsgCatalog4LoadEPKcS1_S1_b
_ZN12wxMsgCatalogD1Ev
_ZN12wxMsgCatalogD2Ev
_ZN12wxObjectList10CreateNodeEP10wxNodeBaseS1_PvRK9wxListKey
_ZN12wxObjectListD0Ev
_ZN12wxObjectListD1Ev
_ZN12wxServerBase12ms_classInfoE
_ZN12wxServerBaseD0Ev
_ZN12wxServerBaseD1Ev
_ZN12wxStackFrame9OnGetNameEv
_ZN12wxStackFrameD0Ev
_ZN12wxStackFrameD1Ev
_ZN12wxStreamBase9OnSysSeekEx10wxSeekMode
_ZN12wxStreamBaseC1Ev
_ZN12wxStreamBaseC2Ev
_ZN12wxStreamBaseD0Ev
_ZN12wxStreamBaseD1Ev
_ZN12wxStreamBaseD2Ev
_ZN12wxStringBase10AssignCopyEjPKc
_ZN12wxStringBase10ConcatSelfEjPKcj
_ZN12wxStringBase11AllocBufferEj
_ZN12wxStringBase15CopyBeforeWriteEv
_ZN12wxStringBase16AllocBeforeWriteEj
_ZN12wxStringBase3endEv
_ZN12wxStringBase4nposE
_ZN12wxStringBase4swapERS_
_ZN12wxStringBase5AllocEj
_ZN12wxStringBase5beginEv
_ZN12wxStringBase5eraseEjj
_ZN12wxStringBase5eraseEPc
_ZN12wxStringBase6appendEjc
_ZN12wxStringBase6insertEjPKcj
_ZN12wxStringBase6resizeEjc
_ZN12wxStringBase7replaceEjjjc
_ZN12wxStringBase7replaceEjjPKc
_ZN12wxStringBase7replaceEjjPKcj
_ZN12wxStringBase7replaceEjjRKS_jj
_ZN12wxStringBase8InitWithEPKcjj
_ZN12wxStringBaseaSEc
_ZN12wxStringBaseaSEPKc
_ZN12wxStringBaseaSERKS_
_ZN12wxStringBaseC1Ejc
_ZN12wxStringBaseC1EPKvS1_
_ZN12wxStringBaseC2Ejc
_ZN12wxStringBaseC2EPKvS1_
_ZN12wxStringBaseD2Ev
_ZN12wxStringHash16wxCharStringHashEPKc
_ZN12wxStringList12ms_classInfoE
_ZN12wxStringList14wxCreateObjectEv
_ZN12wxStringList3AddEPKc
_ZN12wxStringList4SortEv
_ZN12wxStringList6DeleteEPKc
_ZN12wxStringList6DoCopyERKS_
_ZN12wxStringList7PrependEPKc
_ZN12wxStringListC1EPKcz
_ZN12wxStringListC1Ev
_ZN12wxStringListC2EPKcz
_ZN12wxStringListC2Ev
_ZN12wxStringListD0Ev
_ZN12wxStringListD1Ev
_ZN12wxTextBuffer11typeDefaultE
_ZN12wxTextBuffer4OpenERK8wxMBConv
_ZN12wxTextBuffer4OpenERK8wxStringRK8wxMBConv
_ZN12wxTextBuffer5CloseEv
_ZN12wxTextBuffer5WriteE14wxTextFileTypeRK8wxMBConv
_ZN12wxTextBuffer6CreateERK8wxString
_ZN12wxTextBuffer6CreateEv
_ZN12wxTextBuffer6GetEOLE14wxTextFileType
_ZN12wxTextBuffer6ms_eofE
_ZN12wxTextBuffer9TranslateERK8wxString14wxTextFileType
_ZN12wxTextBufferC1ERK8wxString
_ZN12wxTextBufferC2ERK8wxString
_ZN12wxTextBufferD0Ev
_ZN12wxTextBufferD1Ev
_ZN12wxTextBufferD2Ev
_ZN13wxArrayParams3AddERK14wxCmdLineParamj
_ZN13wxArrayParams6DoCopyERKS_
_ZN13wxArrayParams6InsertERK14wxCmdLineParamjj
_ZN13wxArrayParams7DoEmptyEv
_ZN13wxArrayParams8RemoveAtEjj
_ZN13wxArrayParamsaSERKS_
_ZN13wxArrayParamsC1ERKS_
_ZN13wxArrayParamsC2ERKS_
_ZN13wxArrayParamsD1Ev
_ZN13wxArrayParamsD2Ev
_ZN13wxArrayString3AddERK8wxStringj
_ZN13wxArrayString4CopyERKS_
_ZN13wxArrayString4FreeEv
_ZN13wxArrayString4GrowEj
_ZN13wxArrayString4InitEb
_ZN13wxArrayString4SortEb
_ZN13wxArrayString4SortEPFiP8wxStringS1_E
_ZN13wxArrayString4SortEPFiRK8wxStringS2_E
_ZN13wxArrayString5AllocEj
_ZN13wxArrayString5ClearEv
_ZN13wxArrayString5EmptyEv
_ZN13wxArrayString6assignEPK8wxStringS2_
_ZN13wxArrayString6DoSortEv
_ZN13wxArrayString6insertEP8wxStringPKS0_S3_
_ZN13wxArrayString6InsertERK8wxStringjj
_ZN13wxArrayString6RemoveEPKc
_ZN13wxArrayString6ShrinkEv
_ZN13wxArrayString7reserveEj
_ZN13wxArrayString8RemoveAtEjj
_ZN13wxArrayString8SetCountEj
_ZN13wxArrayStringaSERKS_
_ZN13wxArrayStringC1EjPK8wxString
_ZN13wxArrayStringC1EjPPKc
_ZN13wxArrayStringC1ERKS_
_ZN13wxArrayStringC2EjPK8wxString
_ZN13wxArrayStringC2EjPPKc
_ZN13wxArrayStringC2ERKS_
_ZN13wxArrayStringD1Ev
_ZN13wxArrayStringD2Ev
_ZN13wxBackingFileaSERKS_
_ZN13wxBackingFileC1EP13wxInputStreamjRK8wxString
_ZN13wxBackingFileC1ERKS_
_ZN13wxBackingFileC2EP13wxInputStreamjRK8wxString
_ZN13wxBackingFileC2ERKS_
_ZN13wxBackingFileD1Ev
_ZN13wxBackingFileD2Ev
_ZN13wxFFileStreamC1ERK8wxString
_ZN13wxFFileStreamC2ERK8wxString
_ZN13wxFFileStreamD0Ev
_ZN13wxFFileStreamD1Ev
_ZN13wxInputStream15AllocSpaceWBackEj
_ZN13wxInputStream4GetCEv
_ZN13wxInputStream4PeekEv
_ZN13wxInputStream4ReadEPvj
_ZN13wxInputStream4ReadER14wxOutputStream
_ZN13wxInputStream5SeekIEx10wxSeekMode
_ZN13wxInputStream7UngetchEc
_ZN13wxInputStream7UngetchEPKvj
_ZN13wxInputStream8GetWBackEPvj
_ZN13wxInputStreamC1Ev
_ZN13wxInputStreamC2Ev
_ZN13wxInputStreamD0Ev
_ZN13wxInputStreamD1Ev
_ZN13wxInputStreamD2Ev
_ZN13wxStackWalker10InitFramesEP12wxStackFramejPPvPPc
_ZN13wxStackWalker10ms_exepathE
_ZN13wxStackWalker10ms_symbolsE
_ZN13wxStackWalker12ms_addressesE
_ZN13wxStackWalker13ProcessFramesEj
_ZN13wxStackWalker17WalkFromExceptionEv
_ZN13wxStackWalker4WalkEjj
_ZN13wxStackWalker7m_depthE
_ZN13wxStackWalker9FreeStackEv
_ZN13wxStackWalker9SaveStackEj
_ZN13wxStackWalkerD0Ev
_ZN13wxStackWalkerD1Ev
_ZN13wxVariantData12ms_classInfoE
_ZN13wxVariantData17GetValueClassInfoEv
_ZN13wxVariantData4ReadER8wxString
_ZN13wxVariantData4ReadERSi
_ZN13wxVariantDataD0Ev
_ZN13wxVariantDataD1Ev
_ZN14wxArchiveEntry11SetNotifierER17wxArchiveNotifier
_ZN14wxArchiveEntry12ms_classInfoE
_ZN14wxArchiveEntry13UnsetNotifierEv
_ZN14wxArchiveEntryaSERKS_
_ZN14wxArchiveEntryD0Ev
_ZN14wxArchiveEntryD1Ev
_ZN14wxArrayOptions3AddERK15wxCmdLineOptionj
_ZN14wxArrayOptions6DoCopyERKS_
_ZN14wxArrayOptions6InsertERK15wxCmdLineOptionjj
_ZN14wxArrayOptions7DoEmptyEv
_ZN14wxArrayOptions8RemoveAtEjj
_ZN14wxArrayOptionsaSERKS_
_ZN14wxArrayOptionsC1ERKS_
_ZN14wxArrayOptionsC2ERKS_
_ZN14wxArrayOptionsD1Ev
_ZN14wxArrayOptionsD2Ev
_ZN14wxBaseArrayInt3AddEij
_ZN14wxBaseArrayInt3AddEiPFiPKvS1_E
_ZN14wxBaseArrayInt4GrowEj
_ZN14wxBaseArrayInt4SortEPFiPKvS1_E
_ZN14wxBaseArrayInt5ClearEv
_ZN14wxBaseArrayInt6assignEjRKi
_ZN14wxBaseArrayInt6assignEPKiS1_
_ZN14wxBaseArrayInt6InsertEijj
_ZN14wxBaseArrayInt6insertEPiPKiS2_
_ZN14wxBaseArrayInt6RemoveEi
_ZN14wxBaseArrayInt6ShrinkEv
_ZN14wxBaseArrayInt7ReallocEj
_ZN14wxBaseArrayInt8RemoveAtEjj
_ZN14wxBaseArrayInt8SetCountEji
_ZN14wxBaseArrayIntaSERKS_
_ZN14wxBaseArrayIntC1ERKS_
_ZN14wxBaseArrayIntC1Ev
_ZN14wxBaseArrayIntC2ERKS_
_ZN14wxBaseArrayIntC2Ev
_ZN14wxBaseArrayIntD1Ev
_ZN14wxBaseArrayIntD2Ev
_ZN14wxCArrayString7ReleaseEv
_ZN14wxDirTraverser11OnOpenErrorERK8wxString
_ZN14wxDirTraverserD0Ev
_ZN14wxDirTraverserD1Ev
_ZN14wxFileTypeImpl10SetCommandERK8wxStringS2_b
_ZN14wxFileTypeImpl13GetExtensionsER13wxArrayString
_ZN14wxFileTypeImpl14SetDefaultIconERK8wxStringi
_ZN14wxFileTypeInfoC1EPKcS1_S1_S1_z
_ZN14wxFileTypeInfoC1ERK13wxArrayString
_ZN14wxFileTypeInfoC2EPKcS1_S1_S1_z
_ZN14wxFileTypeInfoC2ERK13wxArrayString
_ZN14wxFileTypeInfoD1Ev
_ZN14wxLocaleModule12ms_classInfoE
_ZN14wxLocaleModule14wxCreateObjectEv
_ZN14wxLocaleModule6OnExitEv
_ZN14wxLocaleModule6OnInitEv
_ZN14wxLocaleModuleD0Ev
_ZN14wxLocaleModuleD1Ev
_ZN14wxMBConv_iconv14ms_wcNeedsSwapE
_ZN14wxMBConv_iconv16ms_wcCharsetNameE
_ZN14wxMBConv_iconvC1EPKc
_ZN14wxMBConv_iconvC2EPKc
_ZN14wxMBConv_iconvD0Ev
_ZN14wxMBConv_iconvD1Ev
_ZN14wxMBConv_iconvD2Ev
_ZN14wxMBConv_wxwinD0Ev
_ZN14wxMBConv_wxwinD1Ev
_ZN14wxMemoryConfigD0Ev
_ZN14wxMemoryConfigD1Ev
_ZN14wxMimeTextFile6OnReadERK8wxMBConv
_ZN14wxMimeTextFile8pIndexOfERK8wxStringbi
_ZN14wxMimeTextFileD0Ev
_ZN14wxMimeTextFileD1Ev
_ZN14wxOutputStream10OnSysWriteEPKvj
_ZN14wxOutputStream4PutCEc
_ZN14wxOutputStream4SyncEv
_ZN14wxOutputStream5CloseEv
_ZN14wxOutputStream5SeekOEx10wxSeekMode
_ZN14wxOutputStream5WriteEPKvj
_ZN14wxOutputStream5WriteER13wxInputStream
_ZN14wxOutputStreamC1Ev
_ZN14wxOutputStreamC2Ev
_ZN14wxOutputStreamD0Ev
_ZN14wxOutputStreamD1Ev
_ZN14wxOutputStreamD2Ev
_ZN14wxPlatformInfo11GetArchNameE14wxArchitecture
_ZN14wxPlatformInfo13GetEndiannessERK8wxString
_ZN14wxPlatformInfo13GetPortIdNameE8wxPortIdb
_ZN14wxPlatformInfo17GetEndiannessNameE12wxEndianness
_ZN14wxPlatformInfo18GetPortIdShortNameE8wxPortIdb
_ZN14wxPlatformInfo20GetOperatingSystemIdERK8wxString
_ZN14wxPlatformInfo22InitForCurrentPlatformEv
_ZN14wxPlatformInfo24GetOperatingSystemIdNameE19wxOperatingSystemId
_ZN14wxPlatformInfo28GetOperatingSystemFamilyNameE19wxOperatingSystemId
_ZN14wxPlatformInfo3GetEv
_ZN14wxPlatformInfo7GetArchERK8wxString
_ZN14wxPlatformInfo9GetPortIdERK8wxString
_ZN14wxPlatformInfoC1E8wxPortIdii19wxOperatingSystemIdii14wxArchitecture12wxEndiannessb
_ZN14wxPlatformInfoC1Ev
_ZN14wxPlatformInfoC2E8wxPortIdii19wxOperatingSystemIdii14wxArchitecture12wxEndiannessb
_ZN14wxPlatformInfoC2Ev
_ZN14wxProcessEvent12ms_classInfoE
_ZN14wxProcessEvent14wxCreateObjectEv
_ZN14wxProcessEventD0Ev
_ZN14wxProcessEventD1Ev
_ZN14wxStreamBuffer10FillBufferEv
_ZN14wxStreamBuffer10FreeBufferEv
_ZN14wxStreamBuffer10InitBufferEv
_ZN14wxStreamBuffer11FlushBufferEv
_ZN14wxStreamBuffer11GetDataLeftEv
_ZN14wxStreamBuffer11PutToBufferEPKvj
_ZN14wxStreamBuffer11ResetBufferEv
_ZN14wxStreamBuffer11SetBufferIOEj
_ZN14wxStreamBuffer11SetBufferIOEPvjb
_ZN14wxStreamBuffer11SetBufferIOEPvS0_b
_ZN14wxStreamBuffer13GetFromBufferEPvj
_ZN14wxStreamBuffer4InitEv
_ZN14wxStreamBuffer4PeekEv
_ZN14wxStreamBuffer4ReadEPS_
_ZN14wxStreamBuffer4ReadEPvj
_ZN14wxStreamBuffer4SeekEx10wxSeekMode
_ZN14wxStreamBuffer5WriteEPKvj
_ZN14wxStreamBuffer5WriteEPS_
_ZN14wxStreamBuffer7GetCharEv
_ZN14wxStreamBuffer7PutCharEc
_ZN14wxStreamBuffer8SetErrorE13wxStreamError
_ZN14wxStreamBufferC1ENS_7BufModeE
_ZN14wxStreamBufferC1ER12wxStreamBaseNS_7BufModeE
_ZN14wxStreamBufferC1ERKS_
_ZN14wxStreamBufferC2ENS_7BufModeE
_ZN14wxStreamBufferC2ER12wxStreamBaseNS_7BufModeE
_ZN14wxStreamBufferC2ERKS_
_ZN14wxStreamBufferD0Ev
_ZN14wxStreamBufferD1Ev
_ZN14wxStreamBufferD2Ev
_ZN14wxTarEntryPtr_D1Ev
_ZN14wxTarEntryPtr_D2Ev
_ZN14wxThreadModule12ms_classInfoE
_ZN14wxThreadModule14wxCreateObjectEv
_ZN14wxThreadModule6OnExitEv
_ZN14wxThreadModule6OnInitEv
_ZN14wxThreadModuleD0Ev
_ZN14wxThreadModuleD1Ev
_ZN14wxZipEntryPtr_D1Ev
_ZN14wxZipEntryPtr_D2Ev
_ZN14wxZipWeakLinks8AddEntryEP10wxZipEntryx
_ZN15MailcapLineDataD1Ev
_ZN15wxAppTraitsBase16GetStandardPathsEv
_ZN15wxAppTraitsBaseD0Ev
_ZN15wxAppTraitsBaseD1Ev
_ZN15wxBaseArrayChar3AddEcj
_ZN15wxBaseArrayChar3AddEcPFiPKvS1_E
_ZN15wxBaseArrayChar4GrowEj
_ZN15wxBaseArrayChar4SortEPFiPKvS1_E
_ZN15wxBaseArrayChar5ClearEv
_ZN15wxBaseArrayChar6assignEjRKc
_ZN15wxBaseArrayChar6assignEPKcS1_
_ZN15wxBaseArrayChar6InsertEcjj
_ZN15wxBaseArrayChar6insertEPcPKcS2_
_ZN15wxBaseArrayChar6RemoveEc
_ZN15wxBaseArrayChar6ShrinkEv
_ZN15wxBaseArrayChar7ReallocEj
_ZN15wxBaseArrayChar8RemoveAtEjj
_ZN15wxBaseArrayChar8SetCountEjc
_ZN15wxBaseArrayCharaSERKS_
_ZN15wxBaseArrayCharC1ERKS_
_ZN15wxBaseArrayCharC1Ev
_ZN15wxBaseArrayCharC2ERKS_
_ZN15wxBaseArrayCharC2Ev
_ZN15wxBaseArrayCharD1Ev
_ZN15wxBaseArrayCharD2Ev
_ZN15wxBaseArrayLong3AddElj
_ZN15wxBaseArrayLong3AddElPFiPKvS1_E
_ZN15wxBaseArrayLong4GrowEj
_ZN15wxBaseArrayLong4SortEPFiPKvS1_E
_ZN15wxBaseArrayLong5ClearEv
_ZN15wxBaseArrayLong6assignEjRKl
_ZN15wxBaseArrayLong6assignEPKlS1_
_ZN15wxBaseArrayLong6InsertEljj
_ZN15wxBaseArrayLong6insertEPlPKlS2_
_ZN15wxBaseArrayLong6RemoveEl
_ZN15wxBaseArrayLong6ShrinkEv
_ZN15wxBaseArrayLong7ReallocEj
_ZN15wxBaseArrayLong8RemoveAtEjj
_ZN15wxBaseArrayLong8SetCountEjl
_ZN15wxBaseArrayLongaSERKS_
_ZN15wxBaseArrayLongC1ERKS_
_ZN15wxBaseArrayLongC1Ev
_ZN15wxBaseArrayLongC2ERKS_
_ZN15wxBaseArrayLongC2Ev
_ZN15wxBaseArrayLongD1Ev
_ZN15wxBaseArrayLongD2Ev
_ZN15wxCmdLineParser10SetCmdLineEiPPc
_ZN15wxCmdLineParser10SetCmdLineERK8wxString
_ZN15wxCmdLineParser14GetUsageStringEv
_ZN15wxCmdLineParser14SetSwitchCharsERK8wxString
_ZN15wxCmdLineParser17EnableLongOptionsEb
_ZN15wxCmdLineParser19ConvertStringToArgsEPKc
_ZN15wxCmdLineParser21AreLongOptionsEnabledEv
_ZN15wxCmdLineParser4InitEv
_ZN15wxCmdLineParser5ParseEb
_ZN15wxCmdLineParser5ResetEv
_ZN15wxCmdLineParser5UsageEv
_ZN15wxCmdLineParser7SetDescEPK18wxCmdLineEntryDesc
_ZN15wxCmdLineParser7SetLogoERK8wxString
_ZN15wxCmdLineParser8AddParamERK8wxString18wxCmdLineParamTypei
_ZN15wxCmdLineParser9AddOptionERK8wxStringS2_S2_18wxCmdLineParamTypei
_ZN15wxCmdLineParser9AddSwitchERK8wxStringS2_S2_i
_ZN15wxCmdLineParserD1Ev
_ZN15wxCmdLineParserD2Ev
_ZN15wxDateTimeArray3AddERK10wxDateTimej
_ZN15wxDateTimeArray6DoCopyERKS_
_ZN15wxDateTimeArray6InsertERK10wxDateTimejj
_ZN15wxDateTimeArray7DoEmptyEv
_ZN15wxDateTimeArray8RemoveAtEjj
_ZN15wxDateTimeArrayaSERKS_
_ZN15wxDateTimeArrayC1ERKS_
_ZN15wxDateTimeArrayC2ERKS_
_ZN15wxDateTimeArrayD1Ev
_ZN15wxDateTimeArrayD2Ev
_ZN15wxHashTableBase12DoInsertNodeEjP20wxHashTableBase_Node
_ZN15wxHashTableBase12DoRemoveNodeEP20wxHashTableBase_Node
_ZN15wxHashTableBase12DoUnlinkNodeEjP20wxHashTableBase_NodeS1_
_ZN15wxHashTableBase13DoDestroyNodeEP20wxHashTableBase_Node
_ZN15wxHashTableBase5ClearEv
_ZN15wxHashTableBase5DoPutEllPv
_ZN15wxHashTableBase5DoPutEPKclPv
_ZN15wxHashTableBase6CreateE9wxKeyTypej
_ZN15wxHashTableBase7DestroyEv
_ZN15wxHashTableBase7MakeKeyEPKc
_ZN15wxHashTableBase8DoDeleteEll
_ZN15wxHashTableBase8DoDeleteEPKcl
_ZN15wxHashTableBaseC1Ev
_ZN15wxHashTableBaseC2Ev
_ZN15wxHashTableBaseD0Ev
_ZN15wxHashTableBaseD1Ev
_ZN15wxMBConvUTF16BED0Ev
_ZN15wxMBConvUTF16BED1Ev
_ZN15wxMBConvUTF16LED0Ev
_ZN15wxMBConvUTF16LED1Ev
_ZN15wxMBConvUTF32BED0Ev
_ZN15wxMBConvUTF32BED1Ev
_ZN15wxMBConvUTF32LED0Ev
_ZN15wxMBConvUTF32LED1Ev
_ZN15wxMessageOutput3GetEv
_ZN15wxMessageOutput3SetEPS_
_ZN15wxMessageOutput9ms_msgOutE
_ZN15wxMessageOutputD0Ev
_ZN15wxMessageOutputD1Ev
_ZN15wxMutexInternal4LockEv
_ZN15wxMutexInternal6UnlockEv
_ZN15wxMutexInternal7TryLockEv
_ZN15wxMutexInternalC1E11wxMutexType
_ZN15wxMutexInternalC2E11wxMutexType
_ZN15wxMutexInternalD1Ev
_ZN15wxMutexInternalD2Ev
_ZN15wxPluginLibrary10ms_classesE
_ZN15wxPluginLibrary13UpdateClassesEv
_ZN15wxPluginLibrary14RestoreClassesEv
_ZN15wxPluginLibrary15RegisterModulesEv
_ZN15wxPluginLibrary17UnregisterModulesEv
_ZN15wxPluginLibrary6RefLibEv
_ZN15wxPluginLibrary8UnrefLibEv
_ZN15wxPluginLibraryC1ERK8wxStringi
_ZN15wxPluginLibraryC2ERK8wxStringi
_ZN15wxPluginLibraryD1Ev
_ZN15wxPluginLibraryD2Ev
_ZN15wxPluginManager11LoadLibraryERK8wxStringi
_ZN15wxPluginManager11ms_manifestE
_ZN15wxPluginManager13UnloadLibraryERK8wxString
_ZN15wxPluginManager4LoadERK8wxStringi
_ZN15wxPluginManager6UnloadEv
_ZN15wxStandardPaths12DetectPrefixEv
_ZN15wxStandardPaths16SetInstallPrefixERK8wxString
_ZN15wxStandardPathsD0Ev
_ZN15wxStandardPathsD1Ev
_ZN15wxSystemOptions12GetOptionIntERK8wxString
_ZN15wxSystemOptions9GetOptionERK8wxString
_ZN15wxSystemOptions9HasOptionERK8wxString
_ZN15wxSystemOptions9SetOptionERK8wxStringi
_ZN15wxSystemOptions9SetOptionERK8wxStringS2_
_ZN15wxZipEntryList_10CreateNodeEP10wxNodeBaseS1_PvRK9wxListKey
_ZN15wxZipEntryList_D0Ev
_ZN15wxZipEntryList_D1Ev
_ZN16wxArchiveFSCache3AddERK8wxStringRK21wxArchiveClassFactoryP13wxInputStream
_ZN16wxArchiveFSCache3GetERK8wxString
_ZN16wxBaseArrayShort3AddEsj
_ZN16wxBaseArrayShort3AddEsPFiPKvS1_E
_ZN16wxBaseArrayShort4GrowEj
_ZN16wxBaseArrayShort4SortEPFiPKvS1_E
_ZN16wxBaseArrayShort5ClearEv
_ZN16wxBaseArrayShort6assignEjRKs
_ZN16wxBaseArrayShort6assignEPKsS1_
_ZN16wxBaseArrayShort6insertEPsPKsS2_
_ZN16wxBaseArrayShort6InsertEsjj
_ZN16wxBaseArrayShort6RemoveEs
_ZN16wxBaseArrayShort6ShrinkEv
_ZN16wxBaseArrayShort7ReallocEj
_ZN16wxBaseArrayShort8RemoveAtEjj
_ZN16wxBaseArrayShort8SetCountEjs
_ZN16wxBaseArrayShortaSERKS_
_ZN16wxBaseArrayShortC1ERKS_
_ZN16wxBaseArrayShortC1Ev
_ZN16wxBaseArrayShortC2ERKS_
_ZN16wxBaseArrayShortC2Ev
_ZN16wxBaseArrayShortD1Ev
_ZN16wxBaseArrayShortD2Ev
_ZN16wxBaseArraySizeT3AddEjj
_ZN16wxBaseArraySizeT3AddEjPFiPKvS1_E
_ZN16wxBaseArraySizeT4GrowEj
_ZN16wxBaseArraySizeT4SortEPFiPKvS1_E
_ZN16wxBaseArraySizeT5ClearEv
_ZN16wxBaseArraySizeT6assignEjRKj
_ZN16wxBaseArraySizeT6assignEPKjS1_
_ZN16wxBaseArraySizeT6InsertEjjj
_ZN16wxBaseArraySizeT6insertEPjPKjS2_
_ZN16wxBaseArraySizeT6RemoveEj
_ZN16wxBaseArraySizeT6ShrinkEv
_ZN16wxBaseArraySizeT7ReallocEj
_ZN16wxBaseArraySizeT8RemoveAtEjj
_ZN16wxBaseArraySizeT8SetCountEjj
_ZN16wxBaseArraySizeTaSERKS_
_ZN16wxBaseArraySizeTC1ERKS_
_ZN16wxBaseArraySizeTC1Ev
_ZN16wxBaseArraySizeTC2ERKS_
_ZN16wxBaseArraySizeTC2Ev
_ZN16wxBaseArraySizeTD1Ev
_ZN16wxBaseArraySizeTD2Ev
_ZN16wxConnectionBase12ms_classInfoE
_ZN16wxConnectionBase12OnStopAdviseERK8wxStringS2_
_ZN16wxConnectionBase13OnStartAdviseERK8wxStringS2_
_ZN16wxConnectionBase16GetBufferAtLeastEj
_ZN16wxConnectionBase6OnPokeERK8wxStringS2_Pci11wxIPCFormat
_ZN16wxConnectionBase7ExecuteERK8wxString
_ZN16wxConnectionBase8OnAdviseERK8wxStringS2_Pci11wxIPCFormat
_ZN16wxConnectionBase9OnExecuteERK8wxStringPci11wxIPCFormat
_ZN16wxConnectionBase9OnRequestERK8wxStringS2_Pi11wxIPCFormat
_ZN16wxConnectionBaseC1EPci
_ZN16wxConnectionBaseC1ERKS_
_ZN16wxConnectionBaseC1Ev
_ZN16wxConnectionBaseC2EPci
_ZN16wxConnectionBaseC2ERKS_
_ZN16wxConnectionBaseC2Ev
_ZN16wxConnectionBaseD0Ev
_ZN16wxConnectionBaseD1Ev
_ZN16wxConnectionBaseD2Ev
_ZN16wxDynamicLibrary10ListLoadedEv
_ZN16wxDynamicLibrary12RawGetSymbolEPvRK8wxString
_ZN16wxDynamicLibrary16CanonicalizeNameERK8wxString24wxDynamicLibraryCategory
_ZN16wxDynamicLibrary16GetProgramHandleEv
_ZN16wxDynamicLibrary19GetPluginsDirectoryEv
_ZN16wxDynamicLibrary22CanonicalizePluginNameERK8wxString16wxPluginCategory
_ZN16wxDynamicLibrary4LoadERK8wxStringi
_ZN16wxDynamicLibrary5ErrorEv
_ZN16wxDynamicLibrary6UnloadEPv
_ZN16wxDynamicLibrary7RawLoadERK8wxStringi
_ZN16wxDynamicLibrary9ms_dllextE
_ZN16wxEventHashTable11HandleEventER7wxEventP12wxEvtHandler
_ZN16wxEventHashTable13InitHashTableEv
_ZN16wxEventHashTable14ReconstructAllEv
_ZN16wxEventHashTable18GrowEventTypeTableEv
_ZN16wxEventHashTable19AllocEventTypeTableEj
_ZN16wxEventHashTable5ClearEv
_ZN16wxEventHashTable8AddEntryERK17wxEventTableEntry
_ZN16wxEventHashTable8ClearAllEv
_ZN16wxEventHashTable8sm_firstE
_ZN16wxEventHashTableC1ERK12wxEventTable
_ZN16wxEventHashTableC2ERK12wxEventTable
_ZN16wxEventHashTableD1Ev
_ZN16wxEventHashTableD2Ev
_ZN16wxFontMapperBase10ChangePathERK8wxStringPS0_
_ZN16wxFontMapperBase11GetEncodingEj
_ZN16wxFontMapperBase11RestorePathERK8wxString
_ZN16wxFontMapperBase11sm_instanceE
_ZN16wxFontMapperBase13GetConfigPathEv
_ZN16wxFontMapperBase13SetConfigPathERK8wxString
_ZN16wxFontMapperBase15GetEncodingNameE14wxFontEncoding
_ZN16wxFontMapperBase17CharsetToEncodingERK8wxStringb
_ZN16wxFontMapperBase19GetAllEncodingNamesE14wxFontEncoding
_ZN16wxFontMapperBase19GetEncodingFromNameERK8wxString
_ZN16wxFontMapperBase20GetDefaultConfigPathEv
_ZN16wxFontMapperBase22GetEncodingDescriptionE14wxFontEncoding
_ZN16wxFontMapperBase26GetSupportedEncodingsCountEv
_ZN16wxFontMapperBase31NonInteractiveCharsetToEncodingERK8wxString
_ZN16wxFontMapperBase3GetEv
_ZN16wxFontMapperBase3SetEP12wxFontMapper
_ZN16wxFontMapperBase5ResetEv
_ZN16wxFontMapperBase7IsDummyEv
_ZN16wxFontMapperBase9GetConfigEv
_ZN16wxFontMapperBaseC1Ev
_ZN16wxFontMapperBaseC2Ev
_ZN16wxFontMapperBaseD0Ev
_ZN16wxFontMapperBaseD1Ev
_ZN16wxFontMapperBaseD2Ev
_ZN16wxInputStreamPtrD1Ev
_ZN16wxInputStreamPtrD2Ev
_ZN16wxLocalFSHandler7CanOpenERK8wxString
_ZN16wxLocalFSHandler7ms_rootE
_ZN16wxLocalFSHandler8FindNextEv
_ZN16wxLocalFSHandler8OpenFileER12wxFileSystemRK8wxString
_ZN16wxLocalFSHandler9FindFirstERK8wxStringi
_ZN16wxLocalFSHandlerD0Ev
_ZN16wxLocalFSHandlerD1Ev
_ZN16wxLogPassThroughC1Ev
_ZN16wxLogPassThroughC2Ev
_ZN16wxLogPassThroughD0Ev
_ZN16wxLogPassThroughD1Ev
_ZN16wxMsgCatalogFile4LoadEPKcS1_R26wxPluralFormsCalculatorPtr
_ZN16wxMsgCatalogFileC1Ev
_ZN16wxMsgCatalogFileC2Ev
_ZN16wxMsgCatalogFileD1Ev
_ZN16wxMsgCatalogFileD2Ev
_ZN16wxObjectListNode10DeleteDataEv
_ZN16wxObjectListNodeD0Ev
_ZN16wxObjectListNodeD1Ev
_ZN16wxRawInputStream4OpenEP13wxInputStream
_ZN16wxRawInputStream9OnSysReadEPvj
_ZN16wxRawInputStreamC1ER13wxInputStream
_ZN16wxRawInputStreamC2ER13wxInputStream
_ZN16wxRawInputStreamD0Ev
_ZN16wxRawInputStreamD1Ev
_ZN16wxStackFrameBase13OnGetLocationEv
_ZN16wxStackFrameBase9OnGetNameEv
_ZN16wxStackFrameBaseD0Ev
_ZN16wxStackFrameBaseD1Ev
_ZN16wxStringListBase10CreateNodeEP10wxNodeBaseS1_PvRK9wxListKey
_ZN16wxStringListBaseD0Ev
_ZN16wxStringListBaseD1Ev
_ZN16wxStringListNode10DeleteDataEv
_ZN16wxStringListNodeD0Ev
_ZN16wxStringListNodeD1Ev
_ZN16wxTarHeaderBlock3SumEb
_ZN16wxTarHeaderBlock4ReadER13wxInputStream
_ZN16wxTarHeaderBlock5checkEv
_ZN16wxTarHeaderBlock5WriteER14wxOutputStream
_ZN16wxTarHeaderBlock6fieldsE
_ZN16wxTarHeaderBlock7SetPathERK8wxStringR8wxMBConv
_ZN16wxTarHeaderBlock8GetOctalEi
_ZN16wxTarHeaderBlock8SetOctalEix
_ZN16wxTarHeaderBlock8SumFieldEi
_ZN16wxTarInputStream10CloseEntryEv
_ZN16wxTarInputStream11ReadHeadersEv
_ZN16wxTarInputStream12GetNextEntryEv
_ZN16wxTarInputStream14DoGetNextEntryEv
_ZN16wxTarInputStream18ReadExtendedHeaderERP18wxTarHeaderRecords
_ZN16wxTarInputStream4InitEv
_ZN16wxTarInputStream9OnSysReadEPvj
_ZN16wxTarInputStream9OnSysSeekEx10wxSeekMode
_ZN16wxTarInputStream9OpenEntryER10wxTarEntry
_ZN16wxTarInputStream9OpenEntryER14wxArchiveEntry
_ZN16wxTarInputStreamC1EP13wxInputStreamR8wxMBConv
_ZN16wxTarInputStreamC1ER13wxInputStreamR8wxMBConv
_ZN16wxTarInputStreamC2EP13wxInputStreamR8wxMBConv
_ZN16wxTarInputStreamC2ER13wxInputStreamR8wxMBConv
_ZN16wxTarInputStreamD0Ev
_ZN16wxTarInputStreamD1Ev
_ZN16wxTarInputStreamD2Ev
_ZN16wxTeeInputStream4OpenEv
_ZN16wxTeeInputStream4ReadEPvj
_ZN16wxTeeInputStream5FinalEv
_ZN16wxTeeInputStream7GetDataEPcj
_ZN16wxTeeInputStream9OnSysReadEPvj
_ZN16wxTeeInputStreamC1ER13wxInputStream
_ZN16wxTeeInputStreamC2ER13wxInputStream
_ZN16wxTeeInputStreamD0Ev
_ZN16wxTeeInputStreamD1Ev
_ZN16wxThreadInternal12PthreadStartEP8wxThread
_ZN16wxThreadInternal3RunEv
_ZN16wxThreadInternal4WaitEv
_ZN16wxThreadInternal5PauseEv
_ZN16wxThreadInternal6ResumeEv
_ZN16wxThreadInternal7CleanupEP8wxThread
_ZN16wxThreadInternalC1Ev
_ZN16wxThreadInternalC2Ev
_ZN16wxThreadInternalD1Ev
_ZN16wxThreadInternalD2Ev
_ZN16wxZipInputStream10CloseEntryEv
_ZN16wxZipInputStream10GetCommentEv
_ZN16wxZipInputStream11ReadCentralEv
_ZN16wxZipInputStream12GetNextEntryEv
_ZN16wxZipInputStream13FindEndRecordEv
_ZN16wxZipInputStream13LoadEndRecordEv
_ZN16wxZipInputStream13ReadSignatureEv
_ZN16wxZipInputStream14DoGetNextEntryEv
_ZN16wxZipInputStream15GetTotalEntriesEv
_ZN16wxZipInputStream16OpenDecompressorEb
_ZN16wxZipInputStream16OpenDecompressorER13wxInputStream
_ZN16wxZipInputStream17CloseDecompressorEP13wxInputStream
_ZN16wxZipInputStream4InitERK8wxString
_ZN16wxZipInputStream4InitEv
_ZN16wxZipInputStream6DoOpenEP10wxZipEntryb
_ZN16wxZipInputStream8MakeLinkEP17wxZipOutputStream
_ZN16wxZipInputStream8OpenFileERK8wxString
_ZN16wxZipInputStream9OnSysReadEPvj
_ZN16wxZipInputStream9OnSysSeekEx10wxSeekMode
_ZN16wxZipInputStream9OpenEntryER14wxArchiveEntry
_ZN16wxZipInputStream9ReadLocalEb
_ZN16wxZipInputStreamC1EP13wxInputStreamR8wxMBConv
_ZN16wxZipInputStreamC1ER13wxInputStreamR8wxMBConv
_ZN16wxZipInputStreamC2EP13wxInputStreamR8wxMBConv
_ZN16wxZipInputStreamC2ER13wxInputStreamR8wxMBConv
_ZN16wxZipInputStreamD0Ev
_ZN16wxZipInputStreamD1Ev
_ZN16wxZipInputStreamD2Ev
_ZN17wxBackingFileImpl6ReadAtExPvPj
_ZN17wxBackingFileImplC1EP13wxInputStreamjRK8wxString
_ZN17wxBackingFileImplC2EP13wxInputStreamjRK8wxString
_ZN17wxBackingFileImplD1Ev
_ZN17wxBackingFileImplD2Ev
_ZN17wxBaseArrayDouble3AddEdj
_ZN17wxBaseArrayDouble3AddEdPFiPKvS1_E
_ZN17wxBaseArrayDouble4GrowEj
_ZN17wxBaseArrayDouble4SortEPFiPKvS1_E
_ZN17wxBaseArrayDouble5ClearEv
_ZN17wxBaseArrayDouble6assignEjRKd
_ZN17wxBaseArrayDouble6assignEPKdS1_
_ZN17wxBaseArrayDouble6InsertEdjj
_ZN17wxBaseArrayDouble6insertEPdPKdS2_
_ZN17wxBaseArrayDouble6RemoveEd
_ZN17wxBaseArrayDouble6ShrinkEv
_ZN17wxBaseArrayDouble7ReallocEj
_ZN17wxBaseArrayDouble8RemoveAtEjj
_ZN17wxBaseArrayDouble8SetCountEjd
_ZN17wxBaseArrayDoubleaSERKS_
_ZN17wxBaseArrayDoubleC1ERKS_
_ZN17wxBaseArrayDoubleC1Ev
_ZN17wxBaseArrayDoubleC2ERKS_
_ZN17wxBaseArrayDoubleC2Ev
_ZN17wxBaseArrayDoubleD1Ev
_ZN17wxBaseArrayDoubleD2Ev
_ZN17wxDataInputStream10ReadDoubleEPdj
_ZN17wxDataInputStream10ReadDoubleEv
_ZN17wxDataInputStream10ReadStringEv
_ZN17wxDataInputStream5Read8EPhj
_ZN17wxDataInputStream5Read8Ev
_ZN17wxDataInputStream6Read16EPtj
_ZN17wxDataInputStream6Read16Ev
_ZN17wxDataInputStream6Read32EPjj
_ZN17wxDataInputStream6Read32Ev
_ZN17wxDataInputStream6Read64EP16wxLongLongNativej
_ZN17wxDataInputStream6Read64EP17wxULongLongNativej
_ZN17wxDataInputStream6Read64EPxj
_ZN17wxDataInputStream6Read64EPyj
_ZN17wxDataInputStream6Read64Ev
_ZN17wxDataInputStream6ReadLLEP16wxLongLongNativej
_ZN17wxDataInputStream6ReadLLEP17wxULongLongNativej
_ZN17wxDataInputStream6ReadLLEv
_ZN17wxDataInputStreamC1ER13wxInputStream
_ZN17wxDataInputStreamC2ER13wxInputStream
_ZN17wxDataInputStreamD1Ev
_ZN17wxDataInputStreamD2Ev
_ZN17wxDataInputStreamrsER16wxLongLongNative
_ZN17wxDataInputStreamrsER17wxULongLongNative
_ZN17wxDataInputStreamrsER8wxString
_ZN17wxDataInputStreamrsERa
_ZN17wxDataInputStreamrsERd
_ZN17wxDataInputStreamrsERf
_ZN17wxDataInputStreamrsERh
_ZN17wxDataInputStreamrsERi
_ZN17wxDataInputStreamrsERj
_ZN17wxDataInputStreamrsERs
_ZN17wxDataInputStreamrsERt
_ZN17wxDataInputStreamrsERx
_ZN17wxDataInputStreamrsERy
_ZN17wxDummyConsoleApp5OnRunEv
_ZN17wxDummyConsoleAppD0Ev
_ZN17wxDummyConsoleAppD1Ev
_ZN17wxFileConfigEntry7SetLineEP20wxFileConfigLineList
_ZN17wxFileConfigEntry8SetValueERK8wxStringb
_ZN17wxFileConfigEntryC1EP17wxFileConfigGroupRK8wxStringi
_ZN17wxFileConfigEntryC2EP17wxFileConfigGroupRK8wxStringi
_ZN17wxFileConfigGroup11AddSubgroupERK8wxString
_ZN17wxFileConfigGroup11DeleteEntryEPKc
_ZN17wxFileConfigGroup12GetGroupLineEv
_ZN17wxFileConfigGroup12SetLastEntryEP17wxFileConfigEntry
_ZN17wxFileConfigGroup14DeleteSubgroupEPS_
_ZN17wxFileConfigGroup16GetLastEntryLineEv
_ZN17wxFileConfigGroup16GetLastGroupLineEv
_ZN17wxFileConfigGroup20DeleteSubgroupByNameEPKc
_ZN17wxFileConfigGroup28UpdateGroupAndSubgroupsLinesEv
_ZN17wxFileConfigGroup6RenameERK8wxString
_ZN17wxFileConfigGroup7SetLineEP20wxFileConfigLineList
_ZN17wxFileConfigGroup8AddEntryERK8wxStringi
_ZN17wxFileConfigGroupC1EPS_RK8wxStringP12wxFileConfig
_ZN17wxFileConfigGroupC2EPS_RK8wxStringP12wxFileConfig
_ZN17wxFileConfigGroupD1Ev
_ZN17wxFileConfigGroupD2Ev
_ZN17wxFileInputStream9OnSysReadEPvj
_ZN17wxFileInputStream9OnSysSeekEx10wxSeekMode
_ZN17wxFileInputStreamC1Ei
_ZN17wxFileInputStreamC1ER6wxFile
_ZN17wxFileInputStreamC1ERK8wxString
_ZN17wxFileInputStreamC1Ev
_ZN17wxFileInputStreamC2Ei
_ZN17wxFileInputStreamC2ER6wxFile
_ZN17wxFileInputStreamC2ERK8wxString
_ZN17wxFileInputStreamC2Ev
_ZN17wxFileInputStreamD0Ev
_ZN17wxFileInputStreamD1Ev
_ZN17wxFileInputStreamD2Ev
_ZN17wxFilterFSHandler7CanOpenERK8wxString
_ZN17wxFilterFSHandler8FindNextEv
_ZN17wxFilterFSHandler8OpenFileER12wxFileSystemRK8wxString
_ZN17wxFilterFSHandler9FindFirstERK8wxStringi
_ZN17wxFilterFSHandlerD0Ev
_ZN17wxFilterFSHandlerD1Ev
_ZN17_wxHashTableBase211DeleteNodesEjPP21_wxHashTable_NodeBasePFvS1_E
_ZN17_wxHashTableBase212GetNextPrimeEm
_ZN17_wxHashTableBase213CopyHashTableEPP21_wxHashTable_NodeBasejPS_S2_PFmS3_S1_EPFS1_S1_E
_ZN17_wxHashTableBase216DummyProcessNodeEP21_wxHashTable_NodeBase
_ZN17_wxHashTableBase216GetPreviousPrimeEm
_ZN17_wxHashTableBase29ms_primesE
_ZN17wxMBConvUTF16Base9GetLengthEPKcj
_ZN17wxMBConvUTF16BaseD0Ev
_ZN17wxMBConvUTF16BaseD1Ev
_ZN17wxMBConvUTF32Base9GetLengthEPKcj
_ZN17wxMBConvUTF32BaseD0Ev
_ZN17wxMBConvUTF32BaseD1Ev
_ZN17wxPipeInputStreamD0Ev
_ZN17wxPipeInputStreamD1Ev
_ZN17wxPluralFormsNode11releaseNodeEj
_ZN17wxPluralFormsNode7setNodeEjPS_
_ZN17wxStackWalkerBaseD0Ev
_ZN17wxStackWalkerBaseD1Ev
_ZN17wxStringTokenizer12GetNextTokenEv
_ZN17wxStringTokenizer6ReinitERK8wxString
_ZN17wxStringTokenizer9SetStringERK8wxStringS2_21wxStringTokenizerMode
_ZN17wxStringTokenizerC1ERK8wxStringS2_21wxStringTokenizerMode
_ZN17wxStringTokenizerC2ERK8wxStringS2_21wxStringTokenizerMode
_ZN17wxStringTokenizerD0Ev
_ZN17wxStringTokenizerD1Ev
_ZN17wxTarClassFactory12ms_classInfoE
_ZN17wxTarClassFactory14wxCreateObjectEv
_ZN17wxTarClassFactoryC1Ev
_ZN17wxTarClassFactoryC2Ev
_ZN17wxTarClassFactoryD0Ev
_ZN17wxTarClassFactoryD1Ev
_ZN17wxTarOutputStream10CloseEntryEv
_ZN17wxTarOutputStream10OnSysWriteEPKvj
_ZN17wxTarOutputStream12ModifyHeaderEv
_ZN17wxTarOutputStream12PutNextEntryEP10wxTarEntry
_ZN17wxTarOutputStream12PutNextEntryEP14wxArchiveEntry
_ZN17wxTarOutputStream12PutNextEntryERK8wxStringRK10wxDateTimex
_ZN17wxTarOutputStream12WriteHeadersER10wxTarEntry
_ZN17wxTarOutputStream13PaxHeaderPathERK8wxStringS2_
_ZN17wxTarOutputStream13SetHeaderDateERK8wxStringRK10wxDateTime
_ZN17wxTarOutputStream13SetHeaderPathERK8wxString
_ZN17wxTarOutputStream15PutNextDirEntryERK8wxStringRK10wxDateTime
_ZN17wxTarOutputStream15SetHeaderNumberEix
_ZN17wxTarOutputStream15SetHeaderStringEiRK8wxString
_ZN17wxTarOutputStream17SetExtendedHeaderERK8wxStringS2_
_ZN17wxTarOutputStream19CopyArchiveMetaDataER20wxArchiveInputStream
_ZN17wxTarOutputStream4InitE11wxTarFormat
_ZN17wxTarOutputStream4SyncEv
_ZN17wxTarOutputStream5CloseEv
_ZN17wxTarOutputStream9CopyEntryEP10wxTarEntryR16wxTarInputStream
_ZN17wxTarOutputStream9CopyEntryEP14wxArchiveEntryR20wxArchiveInputStream
_ZN17wxTarOutputStream9OnSysSeekEx10wxSeekMode
_ZN17wxTarOutputStreamC1EP14wxOutputStream11wxTarFormatR8wxMBConv
_ZN17wxTarOutputStreamC1ER14wxOutputStream11wxTarFormatR8wxMBConv
_ZN17wxTarOutputStreamC2EP14wxOutputStream11wxTarFormatR8wxMBConv
_ZN17wxTarOutputStreamC2ER14wxOutputStream11wxTarFormatR8wxMBConv
_ZN17wxTarOutputStreamD0Ev
_ZN17wxTarOutputStreamD1Ev
_ZN17wxTarOutputStreamD2Ev
_ZN17wxTextInputStream10ReadDoubleEv
_ZN17wxTextInputStream10ReadStringEv
_ZN17wxTextInputStream17NextNonSeparatorsEv
_ZN17wxTextInputStream5Read8Ei
_ZN17wxTextInputStream6EatEOLERKc
_ZN17wxTextInputStream6Read16Ei
_ZN17wxTextInputStream6Read32Ei
_ZN17wxTextInputStream6Read8SEi
_ZN17wxTextInputStream7Read16SEi
_ZN17wxTextInputStream7Read32SEi
_ZN17wxTextInputStream8NextCharEv
_ZN17wxTextInputStream8ReadLineEv
_ZN17wxTextInputStream8ReadWordEv
_ZN17wxTextInputStream9UngetLastEv
_ZN17wxTextInputStreamC1ER13wxInputStreamRK8wxString
_ZN17wxTextInputStreamC2ER13wxInputStreamRK8wxString
_ZN17wxTextInputStreamD1Ev
_ZN17wxTextInputStreamD2Ev
_ZN17wxTextInputStreamrsER8wxString
_ZN17wxTextInputStreamrsERc
_ZN17wxTextInputStreamrsERd
_ZN17wxTextInputStreamrsERf
_ZN17wxTextInputStreamrsERi
_ZN17wxTextInputStreamrsERj
_ZN17wxTextInputStreamrsERs
_ZN17wxTextInputStreamrsERt
_ZN17wxVariantDataBool12ms_classInfoE
_ZN17wxVariantDataBool14wxCreateObjectEv
_ZN17wxVariantDataBool4ReadER13wxInputStream
_ZN17wxVariantDataBool4ReadER8wxString
_ZN17wxVariantDataBool4ReadERSi
_ZN17wxVariantDataBoolD0Ev
_ZN17wxVariantDataBoolD1Ev
_ZN17wxVariantDataChar12ms_classInfoE
_ZN17wxVariantDataChar14wxCreateObjectEv
_ZN17wxVariantDataChar4ReadER13wxInputStream
_ZN17wxVariantDataChar4ReadER8wxString
_ZN17wxVariantDataChar4ReadERSi
_ZN17wxVariantDataCharD0Ev
_ZN17wxVariantDataCharD1Ev
_ZN17wxVariantDataList12ms_classInfoE
_ZN17wxVariantDataList14wxCreateObjectEv
_ZN17wxVariantDataList4ReadER8wxString
_ZN17wxVariantDataList4ReadERSi
_ZN17wxVariantDataList5ClearEv
_ZN17wxVariantDataList8SetValueERK6wxList
_ZN17wxVariantDataListC1ERK6wxList
_ZN17wxVariantDataListC2ERK6wxList
_ZN17wxVariantDataListD0Ev
_ZN17wxVariantDataListD1Ev
_ZN17wxVariantDataListD2Ev
_ZN17wxVariantDataLong12ms_classInfoE
_ZN17wxVariantDataLong14wxCreateObjectEv
_ZN17wxVariantDataLong4ReadER13wxInputStream
_ZN17wxVariantDataLong4ReadER8wxString
_ZN17wxVariantDataLong4ReadERSi
_ZN17wxVariantDataLongD0Ev
_ZN17wxVariantDataLongD1Ev
_ZN17wxZipClassFactory12ms_classInfoE
_ZN17wxZipClassFactory14wxCreateObjectEv
_ZN17wxZipClassFactoryC1Ev
_ZN17wxZipClassFactoryC2Ev
_ZN17wxZipClassFactoryD0Ev
_ZN17wxZipClassFactoryD1Ev
_ZN17wxZipOutputStream10CloseEntryEv
_ZN17wxZipOutputStream10OnSysWriteEPKvj
_ZN17wxZipOutputStream12PutNextEntryEP14wxArchiveEntry
_ZN17wxZipOutputStream12PutNextEntryERK8wxStringRK10wxDateTimex
_ZN17wxZipOutputStream14OpenCompressorER14wxOutputStreamR10wxZipEntryPKNS_6BufferE
_ZN17wxZipOutputStream15CloseCompressorEP14wxOutputStream
_ZN17wxZipOutputStream15PutNextDirEntryERK8wxStringRK10wxDateTime
_ZN17wxZipOutputStream18CreatePendingEntryEPKvj
_ZN17wxZipOutputStream18CreatePendingEntryEv
_ZN17wxZipOutputStream19CopyArchiveMetaDataER16wxZipInputStream
_ZN17wxZipOutputStream19CopyArchiveMetaDataER20wxArchiveInputStream
_ZN17wxZipOutputStream4InitEi
_ZN17wxZipOutputStream4SyncEv
_ZN17wxZipOutputStream5CloseEv
_ZN17wxZipOutputStream8DoCreateEP10wxZipEntryb
_ZN17wxZipOutputStream8SetLevelEi
_ZN17wxZipOutputStream9CopyEntryEP10wxZipEntryR16wxZipInputStream
_ZN17wxZipOutputStream9CopyEntryEP14wxArchiveEntryR20wxArchiveInputStream
_ZN17wxZipOutputStreamC1EP14wxOutputStreamiR8wxMBConv
_ZN17wxZipOutputStreamC1ER14wxOutputStreamiR8wxMBConv
_ZN17wxZipOutputStreamC2EP14wxOutputStreamiR8wxMBConv
_ZN17wxZipOutputStreamC2ER14wxOutputStreamiR8wxMBConv
_ZN17wxZipOutputStreamD0Ev
_ZN17wxZipOutputStreamD1Ev
_ZN17wxZipOutputStreamD2Ev
_ZN17wxZlibInputStream13CanHandleGZipEv
_ZN17wxZlibInputStream4InitEi
_ZN17wxZlibInputStream4PeekEv
_ZN17wxZlibInputStream9OnSysReadEPvj
_ZN17wxZlibInputStreamC1EP13wxInputStreami
_ZN17wxZlibInputStreamC1ER13wxInputStreami
_ZN17wxZlibInputStreamC2EP13wxInputStreami
_ZN17wxZlibInputStreamC2ER13wxInputStreami
_ZN17wxZlibInputStreamD0Ev
_ZN17wxZlibInputStreamD1Ev
_ZN17wxZlibInputStreamD2Ev
_ZN18wxArchiveFSHandler12ms_classInfoE
_ZN18wxArchiveFSHandler14wxCreateObjectEv
_ZN18wxArchiveFSHandler6DoFindEv
_ZN18wxArchiveFSHandler7CanOpenERK8wxString
_ZN18wxArchiveFSHandler7CleanupEv
_ZN18wxArchiveFSHandler8FindNextEv
_ZN18wxArchiveFSHandler8OpenFileER12wxFileSystemRK8wxString
_ZN18wxArchiveFSHandler9FindFirstERK8wxStringi
_ZN18wxArchiveFSHandlerC1Ev
_ZN18wxArchiveFSHandlerC2Ev
_ZN18wxArchiveFSHandlerD0Ev
_ZN18wxArchiveFSHandlerD1Ev
_ZN18wxArchiveFSHandlerD2Ev
_ZN18wxBaseArrayPtrVoid3AddEPKvj
_ZN18wxBaseArrayPtrVoid3AddEPKvPFiS1_S1_E
_ZN18wxBaseArrayPtrVoid4GrowEj
_ZN18wxBaseArrayPtrVoid4SortEPFiPKvS1_E
_ZN18wxBaseArrayPtrVoid5ClearEv
_ZN18wxBaseArrayPtrVoid6assignEjRKPKv
_ZN18wxBaseArrayPtrVoid6assignEPKPKvS3_
_ZN18wxBaseArrayPtrVoid6InsertEPKvjj
_ZN18wxBaseArrayPtrVoid6insertEPPKvPKS1_S4_
_ZN18wxBaseArrayPtrVoid6RemoveEPKv
_ZN18wxBaseArrayPtrVoid6ShrinkEv
_ZN18wxBaseArrayPtrVoid7ReallocEj
_ZN18wxBaseArrayPtrVoid8RemoveAtEjj
_ZN18wxBaseArrayPtrVoid8SetCountEjPKv
_ZN18wxBaseArrayPtrVoidaSERKS_
_ZN18wxBaseArrayPtrVoidC1ERKS_
_ZN18wxBaseArrayPtrVoidC1Ev
_ZN18wxBaseArrayPtrVoidC2ERKS_
_ZN18wxBaseArrayPtrVoidC2Ev
_ZN18wxBaseArrayPtrVoidD1Ev
_ZN18wxBaseArrayPtrVoidD2Ev
_ZN18wxConsoleAppTraits12WaitForChildER13wxExecuteData
_ZN18wxConsoleAppTraits20CreateEndProcessPipeER13wxExecuteData
_ZN18wxConsoleAppTraits25IsWriteFDOfEndProcessPipeER13wxExecuteDatai
_ZN18wxConsoleAppTraits29DetachWriteFDOfEndProcessPipeER13wxExecuteData
_ZN18wxConsoleAppTraitsD0Ev
_ZN18wxConsoleAppTraitsD1Ev
_ZN18wxDataOutputStream11WriteDoubleEd
_ZN18wxDataOutputStream11WriteDoubleEPKdj
_ZN18wxDataOutputStream11WriteStringERK8wxString
_ZN18wxDataOutputStream6Write8Eh
_ZN18wxDataOutputStream6Write8EPKhj
_ZN18wxDataOutputStream7Write16EPKtj
_ZN18wxDataOutputStream7Write16Et
_ZN18wxDataOutputStream7Write32Ej
_ZN18wxDataOutputStream7Write32EPKjj
_ZN18wxDataOutputStream7Write64EPK16wxLongLongNativej
_ZN18wxDataOutputStream7Write64EPK17wxULongLongNativej
_ZN18wxDataOutputStream7Write64EPKxj
_ZN18wxDataOutputStream7Write64EPKyj
_ZN18wxDataOutputStream7Write64Ex
_ZN18wxDataOutputStream7Write64Ey
_ZN18wxDataOutputStream7WriteLLEPK16wxLongLongNativej
_ZN18wxDataOutputStream7WriteLLEPK17wxULongLongNativej
_ZN18wxDataOutputStream7WriteLLERK16wxLongLongNative
_ZN18wxDataOutputStream7WriteLLERK17wxULongLongNative
_ZN18wxDataOutputStreamC1ER14wxOutputStream
_ZN18wxDataOutputStreamC2ER14wxOutputStream
_ZN18wxDataOutputStreamD1Ev
_ZN18wxDataOutputStreamD2Ev
_ZN18wxDataOutputStreamlsEa
_ZN18wxDataOutputStreamlsEd
_ZN18wxDataOutputStreamlsEf
_ZN18wxDataOutputStreamlsEh
_ZN18wxDataOutputStreamlsEi
_ZN18wxDataOutputStreamlsEj
_ZN18wxDataOutputStreamlsEPKc
_ZN18wxDataOutputStreamlsERK16wxLongLongNative
_ZN18wxDataOutputStreamlsERK17wxULongLongNative
_ZN18wxDataOutputStreamlsERK8wxString
_ZN18wxDataOutputStreamlsEs
_ZN18wxDataOutputStreamlsEt
_ZN18wxDataOutputStreamlsEx
_ZN18wxDataOutputStreamlsEy
_ZN18wxDateTimeWorkDaysD0Ev
_ZN18wxDateTimeWorkDaysD1Ev
_ZN18wxFFileInputStream9OnSysReadEPvj
_ZN18wxFFileInputStream9OnSysSeekEx10wxSeekMode
_ZN18wxFFileInputStreamC1EP8_IO_FILE
_ZN18wxFFileInputStreamC1ER7wxFFile
_ZN18wxFFileInputStreamC1ERK8wxStringPKc
_ZN18wxFFileInputStreamC1Ev
_ZN18wxFFileInputStreamC2EP8_IO_FILE
_ZN18wxFFileInputStreamC2ER7wxFFile
_ZN18wxFFileInputStreamC2ERK8wxStringPKc
_ZN18wxFFileInputStreamC2Ev
_ZN18wxFFileInputStreamD0Ev
_ZN18wxFFileInputStreamD1Ev
_ZN18wxFFileInputStreamD2Ev
_ZN18wxFileOutputStream10OnSysWriteEPKvj
_ZN18wxFileOutputStream4SyncEv
_ZN18wxFileOutputStream5CloseEv
_ZN18wxFileOutputStream9OnSysSeekEx10wxSeekMode
_ZN18wxFileOutputStreamC1Ei
_ZN18wxFileOutputStreamC1ER6wxFile
_ZN18wxFileOutputStreamC1ERK8wxString
_ZN18wxFileOutputStreamC1Ev
_ZN18wxFileOutputStreamC2Ei
_ZN18wxFileOutputStreamC2ER6wxFile
_ZN18wxFileOutputStreamC2ERK8wxString
_ZN18wxFileOutputStreamC2Ev
_ZN18wxFileOutputStreamD0Ev
_ZN18wxFileOutputStreamD1Ev
_ZN18wxFileOutputStreamD2Ev
_ZN18wxFileSystemModule12ms_classInfoE
_ZN18wxFileSystemModule14wxCreateObjectEv
_ZN18wxFileSystemModule6OnExitEv
_ZN18wxFileSystemModule6OnInitEv
_ZN18wxFileSystemModuleD0Ev
_ZN18wxFileSystemModuleD1Ev
_ZN18wxFontMapperModule12ms_classInfoE
_ZN18wxFontMapperModule14wxCreateObjectEv
_ZN18wxFontMapperModule6OnExitEv
_ZN18wxFontMapperModule6OnInitEv
_ZN18wxFontMapperModuleD0Ev
_ZN18wxFontMapperModuleD1Ev
_ZN18wxGzipClassFactory12ms_classInfoE
_ZN18wxGzipClassFactory14wxCreateObjectEv
_ZN18wxGzipClassFactoryC1Ev
_ZN18wxGzipClassFactoryC2Ev
_ZN18wxGzipClassFactoryD0Ev
_ZN18wxGzipClassFactoryD1Ev
_ZN18wxMessageOutputLog6PrintfEPKcz
_ZN18wxMessageOutputLogD0Ev
_ZN18wxMessageOutputLogD1Ev
_ZN18wxMimeTypeCommands16AddOrReplaceVerbERK8wxStringS2_
_ZN18wxMimeTypesManager10EnsureImplEv
_ZN18wxMimeTypesManager10InitializeEiRK8wxString
_ZN18wxMimeTypesManager11ReadMailcapERK8wxStringb
_ZN18wxMimeTypesManager11UnassociateEP10wxFileType
_ZN18wxMimeTypesManager12AddFallbacksEPK14wxFileTypeInfo
_ZN18wxMimeTypesManager13ReadMimeTypesERK8wxString
_ZN18wxMimeTypesManager16EnumAllFileTypesER13wxArrayString
_ZN18wxMimeTypesManager23GetFileTypeFromMimeTypeERK8wxString
_ZN18wxMimeTypesManager24GetFileTypeFromExtensionERK8wxString
_ZN18wxMimeTypesManager8IsOfTypeERK8wxStringS2_
_ZN18wxMimeTypesManager9AssociateERK14wxFileTypeInfo
_ZN18wxMimeTypesManager9ClearDataEv
_ZN18wxMimeTypesManagerC1Ev
_ZN18wxMimeTypesManagerC2Ev
_ZN18wxMimeTypesManagerD1Ev
_ZN18wxMimeTypesManagerD2Ev
_ZN18wxTextOutputStream11WriteDoubleEd
_ZN18wxTextOutputStream11WriteStringERK8wxString
_ZN18wxTextOutputStream6Write8Eh
_ZN18wxTextOutputStream7PutCharEc
_ZN18wxTextOutputStream7SetModeE5wxEOL
_ZN18wxTextOutputStream7Write16Et
_ZN18wxTextOutputStream7Write32Ej
_ZN18wxTextOutputStreamC1ER14wxOutputStream5wxEOL
_ZN18wxTextOutputStreamC2ER14wxOutputStream5wxEOL
_ZN18wxTextOutputStreamD0Ev
_ZN18wxTextOutputStreamD1Ev
_ZN18wxTextOutputStreamD2Ev
_ZN18wxTextOutputStreamlsEc
_ZN18wxTextOutputStreamlsEd
_ZN18wxTextOutputStreamlsEf
_ZN18wxTextOutputStreamlsEi
_ZN18wxTextOutputStreamlsEj
_ZN18wxTextOutputStreamlsEPKc
_ZN18wxTextOutputStreamlsERK8wxString
_ZN18wxTextOutputStreamlsEs
_ZN18wxTextOutputStreamlsEt
_ZN18wxwxModuleListNode10DeleteDataEv
_ZN18wxwxModuleListNodeD0Ev
_ZN18wxwxModuleListNodeD1Ev
_ZN18wxZlibClassFactory12ms_classInfoE
_ZN18wxZlibClassFactory14wxCreateObjectEv
_ZN18wxZlibClassFactoryC1Ev
_ZN18wxZlibClassFactoryC2Ev
_ZN18wxZlibClassFactoryD0Ev
_ZN18wxZlibClassFactoryD1Ev
_ZN18wxZlibInputStream24OpenER13wxInputStream
_ZN18wxZlibInputStream2D0Ev
_ZN18wxZlibInputStream2D1Ev
_ZN18wxZlibOutputStream10OnSysWriteEPKvj
_ZN18wxZlibOutputStream13CanHandleGZipEv
_ZN18wxZlibOutputStream4InitEii
_ZN18wxZlibOutputStream4SyncEv
_ZN18wxZlibOutputStream5CloseEv
_ZN18wxZlibOutputStream7DoFlushEb
_ZN18wxZlibOutputStreamC1EP14wxOutputStreamii
_ZN18wxZlibOutputStreamC1ER14wxOutputStreamii
_ZN18wxZlibOutputStreamC2EP14wxOutputStreamii
_ZN18wxZlibOutputStreamC2ER14wxOutputStreamii
_ZN18wxZlibOutputStreamD0Ev
_ZN18wxZlibOutputStreamD1Ev
_ZN19wxArrayFileTypeInfo3AddERK14wxFileTypeInfoj
_ZN19wxArrayFileTypeInfo6DoCopyERKS_
_ZN19wxArrayFileTypeInfo6InsertERK14wxFileTypeInfojj
_ZN19wxArrayFileTypeInfo7DoEmptyEv
_ZN19wxArrayFileTypeInfo8RemoveAtEjj
_ZN19wxArrayFileTypeInfoaSERKS_
_ZN19wxArrayFileTypeInfoC1ERKS_
_ZN19wxArrayFileTypeInfoC2ERKS_
_ZN19wxArrayFileTypeInfoD1Ev
_ZN19wxArrayFileTypeInfoD2Ev
_ZN19wxBackedInputStream9OnSysReadEPvj
_ZN19wxBackedInputStream9OnSysSeekEx10wxSeekMode
_ZN19wxBackedInputStreamC1ERK13wxBackingFile
_ZN19wxBackedInputStreamC2ERK13wxBackingFile
_ZN19wxBackedInputStreamD0Ev
_ZN19wxBackedInputStreamD1Ev
_ZN19wxCmdLineParserData10FindOptionERK8wxString
_ZN19wxCmdLineParserData12SetArgumentsEiPPc
_ZN19wxCmdLineParserData12SetArgumentsERK8wxString
_ZN19wxCmdLineParserData20FindOptionByLongNameERK8wxString
_ZN19wxCmdLineParserDataC1Ev
_ZN19wxCmdLineParserDataC2Ev
_ZN19wxConditionInternal11WaitTimeoutEm
_ZN19wxConditionInternal4WaitEv
_ZN19wxConditionInternal6SignalEv
_ZN19wxConditionInternal9BroadcastEv
_ZN19wxConditionInternalC1ER7wxMutex
_ZN19wxConditionInternalC2ER7wxMutex
_ZN19wxConditionInternalD1Ev
_ZN19wxConditionInternalD2Ev
_ZN19wxConfigPathChanger15UpdateIfDeletedEv
_ZN19wxConfigPathChangerC1EPK12wxConfigBaseRK8wxString
_ZN19wxConfigPathChangerC2EPK12wxConfigBaseRK8wxString
_ZN19wxConfigPathChangerD1Ev
_ZN19wxConfigPathChangerD2Ev
_ZN19wxEncodingConverter17GetAllEquivalentsE14wxFontEncoding
_ZN19wxEncodingConverter22GetPlatformEquivalentsE14wxFontEncodingi
_ZN19wxEncodingConverter4InitE14wxFontEncodingS0_i
_ZN19wxEncodingConverterC1Ev
_ZN19wxEncodingConverterC2Ev
_ZN19wxEncodingConverterD0Ev
_ZN19wxEncodingConverterD1Ev
_ZN19wxFFileOutputStream10OnSysWriteEPKvj
_ZN19wxFFileOutputStream4SyncEv
_ZN19wxFFileOutputStream5CloseEv
_ZN19wxFFileOutputStream9OnSysSeekEx10wxSeekMode
_ZN19wxFFileOutputStreamC1EP8_IO_FILE
_ZN19wxFFileOutputStreamC1ER7wxFFile
_ZN19wxFFileOutputStreamC1ERK8wxStringPKc
_ZN19wxFFileOutputStreamC1Ev
_ZN19wxFFileOutputStreamC2EP8_IO_FILE
_ZN19wxFFileOutputStreamC2ER7wxFFile
_ZN19wxFFileOutputStreamC2ERK8wxStringPKc
_ZN19wxFFileOutputStreamC2Ev
_ZN19wxFFileOutputStreamD0Ev
_ZN19wxFFileOutputStreamD1Ev
_ZN19wxFFileOutputStreamD2Ev
_ZN19wxFileSystemHandler12ms_classInfoE
_ZN19wxFileSystemHandler18GetMimeTypeFromExtERK8wxString
_ZN19wxFileSystemHandler8FindNextEv
_ZN19wxFileSystemHandler9FindFirstERK8wxStringi
_ZN19wxFileSystemHandlerD0Ev
_ZN19wxFileSystemHandlerD1Ev
_ZN19wxFilterInputStream4PeekEv
_ZN19wxFilterInputStreamC1EP13wxInputStream
_ZN19wxFilterInputStreamC1ER13wxInputStream
_ZN19wxFilterInputStreamC1Ev
_ZN19wxFilterInputStreamC2EP13wxInputStream
_ZN19wxFilterInputStreamC2ER13wxInputStream
_ZN19wxFilterInputStreamC2Ev
_ZN19wxFilterInputStreamD0Ev
_ZN19wxFilterInputStreamD1Ev
_ZN19wxFilterInputStreamD2Ev
_ZN19wxLanguageInfoArray3AddERK14wxLanguageInfoj
_ZN19wxLanguageInfoArray6DoCopyERKS_
_ZN19wxLanguageInfoArray6InsertERK14wxLanguageInfojj
_ZN19wxLanguageInfoArray7DoEmptyEv
_ZN19wxLanguageInfoArray8RemoveAtEjj
_ZN19wxLanguageInfoArrayaSERKS_
_ZN19wxLanguageInfoArrayC1ERKS_
_ZN19wxLanguageInfoArrayC2ERKS_
_ZN19wxLanguageInfoArrayD1Ev
_ZN19wxLanguageInfoArrayD2Ev
_ZN19wxMemoryInputStream4PeekEv
_ZN19wxMemoryInputStream9OnSysReadEPvj
_ZN19wxMemoryInputStream9OnSysSeekEx10wxSeekMode
_ZN19wxMemoryInputStreamC1EPKvj
_ZN19wxMemoryInputStreamC1ERK20wxMemoryOutputStream
_ZN19wxMemoryInputStreamC2EPKvj
_ZN19wxMemoryInputStreamC2ERK20wxMemoryOutputStream
_ZN19wxMemoryInputStreamD0Ev
_ZN19wxMemoryInputStreamD1Ev
_ZN19wxMemoryInputStreamD2Ev
_ZN19wxMessageOutputBest6PrintfEPKcz
_ZN19wxMessageOutputBestD0Ev
_ZN19wxMessageOutputBestD1Ev
_ZN19wxMimeTypeCmnModule12ms_classInfoE
_ZN19wxMimeTypeCmnModule14wxCreateObjectEv
_ZN19wxMimeTypeCmnModule6OnExitEv
_ZN19wxMimeTypeCmnModule6OnInitEv
_ZN19wxMimeTypeCmnModuleD0Ev
_ZN19wxMimeTypeCmnModuleD1Ev
_ZN19wxPluralFormsParser10expressionEv
_ZN19wxPluralFormsParser11parsePluralEv
_ZN19wxPluralFormsParser12pmExpressionEv
_ZN19wxPluralFormsParser18equalityExpressionEv
_ZN19wxPluralFormsParser19logicalOrExpressionEv
_ZN19wxPluralFormsParser20logicalAndExpressionEv
_ZN19wxPluralFormsParser20relationalExpressionEv
_ZN19wxPluralFormsParser24multiplicativeExpressionEv
_ZN19wxPluralFormsParser5parseER23wxPluralFormsCalculator
_ZN19wxPluralFormsParser9nextTokenEv
_ZN19wxSemaphoreInternal11WaitTimeoutEm
_ZN19wxSemaphoreInternal4PostEv
_ZN19wxSemaphoreInternal4WaitEv
_ZN19wxSemaphoreInternal7TryWaitEv
_ZN19wxSemaphoreInternalC1Eii
_ZN19wxSemaphoreInternalC2Eii
_ZN19wxStandardPathsBase13AppendAppNameERK8wxString
_ZN19wxStandardPathsBase3GetEv
_ZN19wxStandardPathsBaseD0Ev
_ZN19wxStandardPathsBaseD1Ev
_ZN19wxStandardPathsBaseD2Ev
_ZN19wxStoredInputStream4PeekEv
_ZN19wxStoredInputStream9OnSysReadEPvj
_ZN19wxStoredInputStreamC1ER13wxInputStream
_ZN19wxStoredInputStreamC2ER13wxInputStream
_ZN19wxStoredInputStreamD0Ev
_ZN19wxStoredInputStreamD1Ev
_ZN19wxStringInputStream9OnSysReadEPvj
_ZN19wxStringInputStream9OnSysSeekEx10wxSeekMode
_ZN19wxStringInputStreamC1ERK8wxString
_ZN19wxStringInputStreamC2ERK8wxString
_ZN19wxStringInputStreamD0Ev
_ZN19wxStringInputStreamD1Ev
_ZN19wxStringInputStreamD2Ev
_ZN19wxTarHeaderBlockPtrD1Ev
_ZN19wxTarHeaderBlockPtrD2Ev
_ZN19wxVariantDataString12ms_classInfoE
_ZN19wxVariantDataString14wxCreateObjectEv
_ZN19wxVariantDataString4ReadER13wxInputStream
_ZN19wxVariantDataString4ReadER8wxString
_ZN19wxVariantDataString4ReadERSi
_ZN19wxVariantDataStringD0Ev
_ZN19wxVariantDataStringD1Ev
_ZN19wxVariantDoubleData12ms_classInfoE
_ZN19wxVariantDoubleData14wxCreateObjectEv
_ZN19wxVariantDoubleData4ReadER13wxInputStream
_ZN19wxVariantDoubleData4ReadER8wxString
_ZN19wxVariantDoubleData4ReadERSi
_ZN19wxVariantDoubleDataD0Ev
_ZN19wxVariantDoubleDataD1Ev
_ZN19wxZlibOutputStream24OpenER14wxOutputStream
_ZN19wxZlibOutputStream25CloseEv
_ZN19wxZlibOutputStream2D0Ev
_ZN19wxZlibOutputStream2D1Ev
_ZN20wxArchiveFSCacheDataaSERKS_
_ZN20wxArchiveFSCacheDataC1ERK21wxArchiveClassFactoryP13wxInputStream
_ZN20wxArchiveFSCacheDataC1ERK21wxArchiveClassFactoryRK13wxBackingFile
_ZN20wxArchiveFSCacheDataC1ERKS_
_ZN20wxArchiveFSCacheDataC2ERK21wxArchiveClassFactoryP13wxInputStream
_ZN20wxArchiveFSCacheDataC2ERK21wxArchiveClassFactoryRK13wxBackingFile
_ZN20wxArchiveFSCacheDataC2ERKS_
_ZN20wxArchiveInputStream4PeekEv
_ZN20wxArchiveInputStreamC1EP13wxInputStreamR8wxMBConv
_ZN20wxArchiveInputStreamC1ER13wxInputStreamR8wxMBConv
_ZN20wxArchiveInputStreamC2EP13wxInputStreamR8wxMBConv
_ZN20wxArchiveInputStreamC2ER13wxInputStreamR8wxMBConv
_ZN20wxArchiveInputStreamD0Ev
_ZN20wxArchiveInputStreamD1Ev
_ZN20wxDirTraverserSimple5OnDirERK8wxString
_ZN20wxDirTraverserSimple6OnFileERK8wxString
_ZN20wxDirTraverserSimpleD0Ev
_ZN20wxDirTraverserSimpleD1Ev
_ZN20wxFilterClassFactory12ms_classInfoE
_ZN20wxFilterClassFactory4FindEPKc20wxStreamProtocolType
_ZN20wxFilterClassFactory6RemoveEv
_ZN20wxFilterClassFactory8GetFirstEv
_ZN20wxFilterClassFactory8sm_firstE
_ZN20wxFilterClassFactoryD0Ev
_ZN20wxFilterClassFactoryD1Ev
_ZN20wxFilterOutputStream5CloseEv
_ZN20wxFilterOutputStreamC1EP14wxOutputStream
_ZN20wxFilterOutputStreamC1ER14wxOutputStream
_ZN20wxFilterOutputStreamC1Ev
_ZN20wxFilterOutputStreamC2EP14wxOutputStream
_ZN20wxFilterOutputStreamC2ER14wxOutputStream
_ZN20wxFilterOutputStreamC2Ev
_ZN20wxFilterOutputStreamD0Ev
_ZN20wxFilterOutputStreamD1Ev
_ZN20wxFilterOutputStreamD2Ev
_ZN20wxHashTableBase_NodeC1ElPvP15wxHashTableBase
_ZN20wxHashTableBase_NodeC1EPKcPvP15wxHashTableBase
_ZN20wxHashTableBase_NodeC2ElPvP15wxHashTableBase
_ZN20wxHashTableBase_NodeC2EPKcPvP15wxHashTableBase
_ZN20wxHashTableBase_NodeD1Ev
_ZN20wxHashTableBase_NodeD2Ev
_ZN20wxMemoryOutputStream10OnSysWriteEPKvj
_ZN20wxMemoryOutputStream9OnSysSeekEx10wxSeekMode
_ZN20wxMemoryOutputStreamC1EPvj
_ZN20wxMemoryOutputStreamC2EPvj
_ZN20wxMemoryOutputStreamD0Ev
_ZN20wxMemoryOutputStreamD1Ev
_ZN20wxMemoryOutputStreamD2Ev
_ZN20wxMessageOutputDebug6PrintfEPKcz
_ZN20wxMessageOutputDebugD0Ev
_ZN20wxMessageOutputDebugD1Ev
_ZN20wxPluralFormsNodePtr5resetEP17wxPluralFormsNode
_ZN20wxPluralFormsNodePtr7releaseEv
_ZN20wxPluralFormsNodePtrD1Ev
_ZN20wxPluralFormsNodePtrD2Ev
_ZN20wxPluralFormsScanner9nextTokenEv
_ZN20wxPluralFormsScannerC1EPKc
_ZN20wxPluralFormsScannerC2EPKc
_ZN20wxStoredOutputStream10OnSysWriteEPKvj
_ZN20wxStoredOutputStream5CloseEv
_ZN20wxStoredOutputStreamD0Ev
_ZN20wxStoredOutputStreamD1Ev
_ZN20wxStringOutputStream10OnSysWriteEPKvj
_ZN20wxStringOutputStreamD0Ev
_ZN20wxStringOutputStreamD1Ev
_ZN20wxThreadHelperThread5EntryEv
_ZN20wxThreadHelperThreadD0Ev
_ZN20wxThreadHelperThreadD1Ev
_ZN20wxVariantDataVoidPtr12ms_classInfoE
_ZN20wxVariantDataVoidPtr14wxCreateObjectEv
_ZN20wxVariantDataVoidPtr4ReadER8wxString
_ZN20wxVariantDataVoidPtr4ReadERSi
_ZN20wxVariantDataVoidPtr5CloneEv
_ZN20wxVariantDataVoidPtrD0Ev
_ZN20wxVariantDataVoidPtrD1Ev
_ZN21wxArchiveClassFactory12ms_classInfoE
_ZN21wxArchiveClassFactory4FindEPKc20wxStreamProtocolType
_ZN21wxArchiveClassFactory6RemoveEv
_ZN21wxArchiveClassFactory8GetFirstEv
_ZN21wxArchiveClassFactory8sm_firstE
_ZN21wxArchiveClassFactoryD0Ev
_ZN21wxArchiveClassFactoryD1Ev
_ZN21wxArchiveOutputStreamC1EP14wxOutputStreamR8wxMBConv
_ZN21wxArchiveOutputStreamC1ER14wxOutputStreamR8wxMBConv
_ZN21wxArchiveOutputStreamC2EP14wxOutputStreamR8wxMBConv
_ZN21wxArchiveOutputStreamC2ER14wxOutputStreamR8wxMBConv
_ZN21wxArchiveOutputStreamD0Ev
_ZN21wxArchiveOutputStreamD1Ev
_ZN21wxBufferedInputStream20SetInputStreamBufferEP14wxStreamBuffer
_ZN21wxBufferedInputStream4PeekEv
_ZN21wxBufferedInputStream4ReadEPvj
_ZN21wxBufferedInputStream5SeekIEx10wxSeekMode
_ZN21wxBufferedInputStream9OnSysReadEPvj
_ZN21wxBufferedInputStream9OnSysSeekEx10wxSeekMode
_ZN21wxBufferedInputStreamC1ER13wxInputStreamP14wxStreamBuffer
_ZN21wxBufferedInputStreamC2ER13wxInputStreamP14wxStreamBuffer
_ZN21wxBufferedInputStreamD0Ev
_ZN21wxBufferedInputStreamD1Ev
_ZN21wxBufferedInputStreamD2Ev
_ZN21wxClientDataContainer15DoSetClientDataEPv
_ZN21wxClientDataContainer17DoSetClientObjectEP12wxClientData
_ZN21wxClientDataContainerC1Ev
_ZN21wxClientDataContainerC2Ev
_ZN21wxClientDataContainerD0Ev
_ZN21wxClientDataContainerD1Ev
_ZN21wxClientDataContainerD2Ev
_ZN21wxConvBrokenFileNamesC1EPKc
_ZN21wxConvBrokenFileNamesC2EPKc
_ZN21wxConvBrokenFileNamesD0Ev
_ZN21wxConvBrokenFileNamesD1Ev
_ZN21wxDirTraverserSumSize5OnDirERK8wxString
_ZN21wxDirTraverserSumSize6OnFileERK8wxString
_ZN21wxDirTraverserSumSizeD0Ev
_ZN21wxDirTraverserSumSizeD1Ev
_ZN21wxMemoryFSHandlerBase10RemoveFileERK8wxString
_ZN21wxMemoryFSHandlerBase19AddFileWithMimeTypeERK8wxStringPKvjS2_
_ZN21wxMemoryFSHandlerBase19AddFileWithMimeTypeERK8wxStringS2_S2_
_ZN21wxMemoryFSHandlerBase6m_HashE
_ZN21wxMemoryFSHandlerBase7AddFileERK8wxStringPKvj
_ZN21wxMemoryFSHandlerBase7AddFileERK8wxStringS2_
_ZN21wxMemoryFSHandlerBase7CanOpenERK8wxString
_ZN21wxMemoryFSHandlerBase8FindNextEv
_ZN21wxMemoryFSHandlerBase8OpenFileER12wxFileSystemRK8wxString
_ZN21wxMemoryFSHandlerBase9CheckHashERK8wxString
_ZN21wxMemoryFSHandlerBase9FindFirstERK8wxStringi
_ZN21wxMemoryFSHandlerBaseC1Ev
_ZN21wxMemoryFSHandlerBaseC2Ev
_ZN21wxMemoryFSHandlerBaseD0Ev
_ZN21wxMemoryFSHandlerBaseD1Ev
_ZN21wxMemoryFSHandlerBaseD2Ev
_ZN21wxMessageOutputStderr6PrintfEPKcz
_ZN21wxMessageOutputStderrD0Ev
_ZN21wxMessageOutputStderrD1Ev
_ZN21wxPluginLibraryModule12ms_classInfoE
_ZN21wxPluginLibraryModule14wxCreateObjectEv
_ZN21wxPluginLibraryModule6OnExitEv
_ZN21wxPluginLibraryModule6OnInitEv
_ZN21wxPluginLibraryModuleD0Ev
_ZN21wxPluginLibraryModuleD1Ev
_ZN21wxVariantDataDateTime12ms_classInfoE
_ZN21wxVariantDataDateTime14wxCreateObjectEv
_ZN21wxVariantDataDateTime4ReadER8wxString
_ZN21wxVariantDataDateTime4ReadERSi
_ZN21wxVariantDataDateTime5CloneEv
_ZN21wxVariantDataDateTimeD0Ev
_ZN21wxVariantDataDateTimeD1Ev
_ZN21wxwxZipEntryList_Node10DeleteDataEv
_ZN21wxwxZipEntryList_NodeD0Ev
_ZN21wxwxZipEntryList_NodeD1Ev
_ZN22wxBufferedOutputStream10OnSysWriteEPKvj
_ZN22wxBufferedOutputStream21SetOutputStreamBufferEP14wxStreamBuffer
_ZN22wxBufferedOutputStream4SyncEv
_ZN22wxBufferedOutputStream5CloseEv
_ZN22wxBufferedOutputStream5SeekOEx10wxSeekMode
_ZN22wxBufferedOutputStream5WriteEPKvj
_ZN22wxBufferedOutputStream9OnSysSeekEx10wxSeekMode
_ZN22wxBufferedOutputStreamC1ER14wxOutputStreamP14wxStreamBuffer
_ZN22wxBufferedOutputStreamC2ER14wxOutputStreamP14wxStreamBuffer
_ZN22wxBufferedOutputStreamD0Ev
_ZN22wxBufferedOutputStreamD1Ev
_ZN22wxBufferedOutputStreamD2Ev
_ZN22wxConsoleAppTraitsBase14CreateRendererEv
_ZN22wxConsoleAppTraitsBase15CreateLogTargetEv
_ZN22wxConsoleAppTraitsBase16CreateFontMapperEv
_ZN22wxConsoleAppTraitsBase18ScheduleForDestroyEP8wxObject
_ZN22wxConsoleAppTraitsBase19CreateMessageOutputEv
_ZN22wxConsoleAppTraitsBase23RemoveFromPendingDeleteEP8wxObject
_ZN22wxConsoleAppTraitsBase26GetSocketGUIFunctionsTableEv
_ZN22wxConsoleAppTraitsBase9HasStderrEv
_ZN22wxConsoleAppTraitsBaseD0Ev
_ZN22wxConsoleAppTraitsBaseD1Ev
_ZN22wxCountingOutputStream10OnSysWriteEPKvj
_ZN22wxCountingOutputStream9OnSysSeekEx10wxSeekMode
_ZN22wxCountingOutputStreamC1Ev
_ZN22wxCountingOutputStreamC2Ev
_ZN22wxCountingOutputStreamD0Ev
_ZN22wxCountingOutputStreamD1Ev
_ZN22wxMimeTypesManagerImpl10InitializeEiRK8wxString
_ZN22wxMimeTypesManagerImpl10LoadKDEAppERK8wxString
_ZN22wxMimeTypesManagerImpl11AddFallbackERK14wxFileTypeInfo
_ZN22wxMimeTypesManagerImpl11GetMimeInfoERK8wxString
_ZN22wxMimeTypesManagerImpl11ReadMailcapERK8wxStringb
_ZN22wxMimeTypesManagerImpl11UnassociateEP10wxFileType
_ZN22wxMimeTypesManagerImpl12InitIfNeededEv
_ZN22wxMimeTypesManagerImpl13AddToMimeDataERK8wxStringS2_P18wxMimeTypeCommandsRK13wxArrayStringS2_b
_ZN22wxMimeTypesManagerImpl13DoAssociationERK8wxStringS2_P18wxMimeTypeCommandsRK13wxArrayStringS2_
_ZN22wxMimeTypesManagerImpl13ReadMimeTypesERK8wxString
_ZN22wxMimeTypesManagerImpl13WriteMimeInfoEib
_ZN22wxMimeTypesManagerImpl14AddMailcapInfoERK8wxStringS2_S2_S2_S2_
_ZN22wxMimeTypesManagerImpl14GetKDEMimeInfoERK8wxString
_ZN22wxMimeTypesManagerImpl14WriteToMailCapEib
_ZN22wxMimeTypesManagerImpl15AddMimeTypeInfoERK8wxStringS2_S2_
_ZN22wxMimeTypesManagerImpl16EnumAllFileTypesER13wxArrayString
_ZN22wxMimeTypesManagerImpl16GetGnomeMimeInfoERK8wxString
_ZN22wxMimeTypesManagerImpl16WriteKDEMimeFileEib
_ZN22wxMimeTypesManagerImpl16WriteToMimeTypesEib
_ZN22wxMimeTypesManagerImpl17CheckKDEDirsExistERK8wxStringS2_
_ZN22wxMimeTypesManagerImpl18WriteToNSMimeTypesEib
_ZN22wxMimeTypesManagerImpl23GetFileTypeFromMimeTypeERK8wxString
_ZN22wxMimeTypesManagerImpl23LoadKDEAppsFilesFromDirERK8wxString
_ZN22wxMimeTypesManagerImpl23LoadKDELinkFilesFromDirERK8wxStringRK13wxArrayString
_ZN22wxMimeTypesManagerImpl23LoadKDELinksForMimeTypeERK8wxStringS2_RK13wxArrayString
_ZN22wxMimeTypesManagerImpl24GetFileTypeFromExtensionERK8wxString
_ZN22wxMimeTypesManagerImpl24LoadGnomeDataFromKeyFileERK8wxStringRK13wxArrayString
_ZN22wxMimeTypesManagerImpl24ProcessOtherMailcapFieldER15MailcapLineDataRK8wxString
_ZN22wxMimeTypesManagerImpl25LoadGnomeMimeFilesFromDirERK8wxStringRK13wxArrayString
_ZN22wxMimeTypesManagerImpl26LoadKDELinksForMimeSubtypeERK8wxStringS2_S2_RK13wxArrayString
_ZN22wxMimeTypesManagerImpl30LoadGnomeMimeTypesFromMimeFileERK8wxString
_ZN22wxMimeTypesManagerImpl9AssociateERK14wxFileTypeInfo
_ZN22wxMimeTypesManagerImpl9ClearDataEv
_ZN22wxMimeTypesManagerImplC1Ev
_ZN22wxMimeTypesManagerImplC2Ev
_ZN22wxMimeTypesManagerImplD0Ev
_ZN22wxMimeTypesManagerImplD1Ev
_ZN22wxMimeTypesManagerImplD2Ev
_ZN22wxTempFileOutputStream10OnSysWriteEPKvj
_ZN22wxTempFileOutputStream5CloseEv
_ZN22wxTempFileOutputStream6CommitEv
_ZN22wxTempFileOutputStream7DiscardEv
_ZN22wxTempFileOutputStream9OnSysSeekEx10wxSeekMode
_ZN22wxTempFileOutputStreamC1ERK8wxString
_ZN22wxTempFileOutputStreamC2ERK8wxString
_ZN22wxTempFileOutputStreamD0Ev
_ZN22wxTempFileOutputStreamD1Ev
_ZN22wxTempFileOutputStreamD2Ev
_ZN23wxDirTraverserFindFirst5OnDirERK8wxString
_ZN23wxDirTraverserFindFirst6OnFileERK8wxString
_ZN23wxDirTraverserFindFirstD0Ev
_ZN23wxDirTraverserFindFirstD1Ev
_ZN23wxPluralFormsCalculator4initEiP17wxPluralFormsNode
_ZN23wxPluralFormsCalculator4makeEPKc
_ZN23wxSingleInstanceChecker6CreateERK8wxStringS2_
_ZN23wxSingleInstanceCheckerD1Ev
_ZN23wxSingleInstanceCheckerD2Ev
_ZN24wxArchiveFSCacheDataImpl10AddToCacheEP14wxArchiveEntry
_ZN24wxArchiveFSCacheDataImpl12CloseStreamsEv
_ZN24wxArchiveFSCacheDataImpl3GetERK8wxString
_ZN24wxArchiveFSCacheDataImpl7GetNextEP16wxArchiveFSEntry
_ZN24wxArchiveFSCacheDataImplC1ERK21wxArchiveClassFactoryP13wxInputStream
_ZN24wxArchiveFSCacheDataImplC1ERK21wxArchiveClassFactoryRK13wxBackingFile
_ZN24wxArchiveFSCacheDataImplC2ERK21wxArchiveClassFactoryP13wxInputStream
_ZN24wxArchiveFSCacheDataImplC2ERK21wxArchiveClassFactoryRK13wxBackingFile
_ZN24wxArchiveFSCacheDataImplD1Ev
_ZN24wxArchiveFSCacheDataImplD2Ev
_ZN24wxDateTimeHolidaysModule12ms_classInfoE
_ZN24wxDateTimeHolidaysModule14wxCreateObjectEv
_ZN24wxDateTimeHolidaysModule6OnExitEv
_ZN24wxDateTimeHolidaysModule6OnInitEv
_ZN24wxDateTimeHolidaysModuleD0Ev
_ZN24wxDateTimeHolidaysModuleD1Ev
_ZN24wxFilterClassFactoryBase12ms_classInfoE
_ZN24wxFilterClassFactoryBaseD0Ev
_ZN24wxFilterClassFactoryBaseD1Ev
_ZN24wxVariantDataArrayString12ms_classInfoE
_ZN24wxVariantDataArrayString14wxCreateObjectEv
_ZN24wxVariantDataArrayString4ReadER8wxString
_ZN24wxVariantDataArrayString4ReadERSi
_ZN24wxVariantDataArrayString5CloneEv
_ZN24wxVariantDataArrayStringD0Ev
_ZN24wxVariantDataArrayStringD1Ev
_ZN24wxVariantDataWxObjectPtr12ms_classInfoE
_ZN24wxVariantDataWxObjectPtr14wxCreateObjectEv
_ZN24wxVariantDataWxObjectPtr17GetValueClassInfoEv
_ZN24wxVariantDataWxObjectPtr4ReadER8wxString
_ZN24wxVariantDataWxObjectPtr4ReadERSi
_ZN24wxVariantDataWxObjectPtr5CloneEv
_ZN24wxVariantDataWxObjectPtrD0Ev
_ZN24wxVariantDataWxObjectPtrD1Ev
_ZN25wxMimeTypesManagerFactory26CreateMimeTypesManagerImplEv
_ZN25wxMimeTypesManagerFactory3GetEv
_ZN25wxMimeTypesManagerFactory3SetEPS_
_ZN25wxMimeTypesManagerFactory9m_factoryE
_ZN25wxMimeTypesManagerFactoryD0Ev
_ZN25wxMimeTypesManagerFactoryD1Ev
_ZN26wxDateTimeHolidayAuthority12AddAuthorityEPS_
_ZN26wxDateTimeHolidayAuthority14ms_authoritiesE
_ZN26wxDateTimeHolidayAuthority18GetHolidaysInRangeERK10wxDateTimeS2_R15wxDateTimeArray
_ZN26wxDateTimeHolidayAuthority19ClearAllAuthoritiesEv
_ZN26wxDateTimeHolidayAuthority9IsHolidayERK10wxDateTime
_ZN26wxDateTimeHolidayAuthorityD0Ev
_ZN26wxDateTimeHolidayAuthorityD1Ev
_ZN26wxDateTimeHolidayAuthorityD2Ev
_ZN26wxPluralFormsCalculatorPtrD1Ev
_ZN26wxPluralFormsCalculatorPtrD2Ev
_ZN27wxSingleInstanceCheckerImpl14CreateLockFileEv
_ZN27wxSingleInstanceCheckerImpl6CreateERK8wxString
_ZN27wxSingleInstanceCheckerImpl6UnlockEv
_ZN28wxDynamicLibraryDetailsArray3AddERK23wxDynamicLibraryDetailsj
_ZN28wxDynamicLibraryDetailsArray6DoCopyERKS_
_ZN28wxDynamicLibraryDetailsArray6InsertERK23wxDynamicLibraryDetailsjj
_ZN28wxDynamicLibraryDetailsArray7DoEmptyEv
_ZN28wxDynamicLibraryDetailsArray8RemoveAtEjj
_ZN28wxDynamicLibraryDetailsArrayaSERKS_
_ZN28wxDynamicLibraryDetailsArrayC1ERKS_
_ZN28wxDynamicLibraryDetailsArrayC2ERKS_
_ZN28wxDynamicLibraryDetailsArrayD1Ev
_ZN28wxDynamicLibraryDetailsArrayD2Ev
_ZN39wxDLManifest_wxImplementation_HashTable10DeleteNodeEP21_wxHashTable_NodeBase
_ZN39wxDLManifest_wxImplementation_HashTable16GetBucketForNodeEPS_PNS_4NodeE
_ZN41wxMessagesHash_wxImplementation_HashTable10DeleteNodeEP21_wxHashTable_NodeBase
_ZN41wxMessagesHash_wxImplementation_HashTable16GetBucketForNodeEPS_PNS_4NodeE
_ZN42wxFSHandlerHash_wxImplementation_HashTable10DeleteNodeEP21_wxHashTable_NodeBase
_ZN42wxFSHandlerHash_wxImplementation_HashTable16GetBucketForNodeEPS_PNS_4NodeE
_ZN45wxTarHeaderRecords_wxImplementation_HashTable10DeleteNodeEP21_wxHashTable_NodeBase
_ZN45wxTarHeaderRecords_wxImplementation_HashTable16GetBucketForNodeEPS_PNS_4NodeE
_ZN46wxEncodingNameCache_wxImplementation_HashTable10DeleteNodeEP21_wxHashTable_NodeBase
_ZN46wxEncodingNameCache_wxImplementation_HashTable16GetBucketForNodeEPS_PNS_4NodeE
_ZN47wxArchiveFSEntryHash_wxImplementation_HashTable10DeleteNodeEP21_wxHashTable_NodeBase
_ZN47wxArchiveFSEntryHash_wxImplementation_HashTable16GetBucketForNodeEPS_PNS_4NodeE
_ZN47wxOffsetZipEntryMap__wxImplementation_HashTable10DeleteNodeEP21_wxHashTable_NodeBase
_ZN47wxOffsetZipEntryMap__wxImplementation_HashTable16GetBucketForNodeEPS_PNS_4NodeE
_ZN51wxArchiveFilenameHashMap_wxImplementation_HashTable10DeleteNodeEP21_wxHashTable_NodeBase
_ZN51wxArchiveFilenameHashMap_wxImplementation_HashTable16GetBucketForNodeEPS_PNS_4NodeE
_ZN51wxArchiveFSCacheDataHash_wxImplementation_HashTable10DeleteNodeEP21_wxHashTable_NodeBase
_ZN51wxArchiveFSCacheDataHash_wxImplementation_HashTable16GetBucketForNodeEPS_PNS_4NodeE
_ZN5wxDir10HasSubDirsERK8wxString
_ZN5wxDir11GetAllFilesERK8wxStringP13wxArrayStringS2_i
_ZN5wxDir12GetTotalSizeERK8wxStringP13wxArrayString
_ZN5wxDir4OpenERK8wxString
_ZN5wxDir6ExistsERK8wxString
_ZN5wxDir8HasFilesERK8wxString
_ZN5wxDir9FindFirstERK8wxStringS2_i
_ZN5wxDirC1ERK8wxString
_ZN5wxDirC2ERK8wxString
_ZN5wxDirD1Ev
_ZN5wxDirD2Ev
_ZN5wxLog10ms_pLoggerE
_ZN5wxLog11DoLogStringEPKcl
_ZN5wxLog11ms_bVerboseE
_ZN5wxLog11ms_logLevelE
_ZN5wxLog12ms_prevLevelE
_ZN5wxLog12ms_timestampE
_ZN5wxLog12SetLogBufferEPcj
_ZN5wxLog13ms_prevStringE
_ZN5wxLog14ms_aTraceMasksE
_ZN5wxLog14ms_bAutoCreateE
_ZN5wxLog14ms_prevCounterE
_ZN5wxLog14ms_ulTraceMaskE
_ZN5wxLog15ClearTraceMasksEv
_ZN5wxLog15GetActiveTargetEv
_ZN5wxLog15ms_suspendCountE
_ZN5wxLog15RemoveTraceMaskERK8wxString
_ZN5wxLog15SetActiveTargetEPS_
_ZN5wxLog16DoCreateOnDemandEv
_ZN5wxLog16ms_prevTimeStampE
_ZN5wxLog17ms_bRepetCountingE
_ZN5wxLog18DontCreateOnDemandEv
_ZN5wxLog18IsAllowedTraceMaskEPKc
_ZN5wxLog20DoLogNumberOfRepeatsEv
_ZN5wxLog21LogLastRepeatIfNeededEv
_ZN5wxLog29LogLastRepeatIfNeededUnlockedEv
_ZN5wxLog5DoLogEmPKcl
_ZN5wxLog5FlushEv
_ZN5wxLog5OnLogEmPKcl
_ZN5wxLog8ms_doLogE
_ZN5wxLog9TimeStampEP8wxString
_ZN5wxLogD0Ev
_ZN5wxLogD1Ev
_ZN5wxLogD2Ev
_ZN5wxURI10IsGenDelimERKc
_ZN5wxURI10IsReservedERKc
_ZN5wxURI10IsSubDelimERKc
_ZN5wxURI10ParseQueryEPKc
_ZN5wxURI11ParseSchemeEPKc
_ZN5wxURI11ParseServerEPKc
_ZN5wxURI12IsUnreservedERKc
_ZN5wxURI12ms_classInfoE
_ZN5wxURI13ParseFragmentEPKc
_ZN5wxURI13ParseUserInfoEPKc
_ZN5wxURI14ParseAuthorityEPKc
_ZN5wxURI14ParseIPvFutureERPKc
_ZN5wxURI15TranslateEscapeEPKc
_ZN5wxURI16ParseIPv4addressERPKc
_ZN5wxURI16ParseIPv6addressERPKc
_ZN5wxURI5ClearEv
_ZN5wxURI5IsHexERKc
_ZN5wxURI5ParseEPKc
_ZN5wxURI6AssignERKS_
_ZN5wxURI6CreateERK8wxString
_ZN5wxURI6EscapeER8wxStringRKc
_ZN5wxURI6UpTreeEPKcRS1_
_ZN5wxURI7IsAlphaERKc
_ZN5wxURI7IsDigitERKc
_ZN5wxURI7ResolveERKS_i
_ZN5wxURI8IsEscapeERPKc
_ZN5wxURI8ParseH16ERPKc
_ZN5wxURI8UnescapeERK8wxString
_ZN5wxURI9CharToHexERKc
_ZN5wxURI9NormalizeEPcb
_ZN5wxURI9ParsePathEPKcbb
_ZN5wxURI9ParsePortEPKc
_ZN5wxURIaSERK8wxString
_ZN5wxURIaSERKS_
_ZN5wxURIC1ERK8wxString
_ZN5wxURIC1ERKS_
_ZN5wxURIC1Ev
_ZN5wxURIC2ERK8wxString
_ZN5wxURIC2ERKS_
_ZN5wxURIC2Ev
_ZN5wxURID0Ev
_ZN5wxURID1Ev
_ZN5wxURID2Ev
_ZN6wxFile4OpenEPKcNS_8OpenModeEi
_ZN6wxFile4ReadEPvj
_ZN6wxFile4SeekEx10wxSeekMode
_ZN6wxFile5CloseEv
_ZN6wxFile5FlushEv
_ZN6wxFile5WriteEPKvj
_ZN6wxFile6AccessEPKcNS_8OpenModeE
_ZN6wxFile6CreateEPKcbi
_ZN6wxFile6ExistsEPKc
_ZN6wxFileC1EPKcNS_8OpenModeE
_ZN6wxFileC2EPKcNS_8OpenModeE
_ZN6wxList12ms_classInfoE
_ZN6wxList14wxCreateObjectEv
_ZN6wxListC1Ei
_ZN6wxListC2Ei
_ZN6wxListD0Ev
_ZN6wxListD1Ev
_ZN7wxEvent12ms_classInfoE
_ZN7wxEventC1Eii
_ZN7wxEventC1ERKS_
_ZN7wxEventC2Eii
_ZN7wxEventC2ERKS_
_ZN7wxEventD0Ev
_ZN7wxEventD1Ev
_ZN7wxFFile4OpenEPKcS1_
_ZN7wxFFile4ReadEPvj
_ZN7wxFFile4SeekEx10wxSeekMode
_ZN7wxFFile5CloseEv
_ZN7wxFFile5FlushEv
_ZN7wxFFile5WriteEPKvj
_ZN7wxFFile7ReadAllEP8wxStringRK8wxMBConv
_ZN7wxFFileC1EPKcS1_
_ZN7wxFFileC2EPKcS1_
_ZN7wxMutex4LockEv
_ZN7wxMutex6UnlockEv
_ZN7wxMutex7TryLockEv
_ZN7wxMutexC1E11wxMutexType
_ZN7wxMutexC2E11wxMutexType
_ZN7wxMutexD1Ev
_ZN7wxMutexD2Ev
_ZN7wxRegEx4InitEv
_ZN7wxRegEx7CompileERK8wxStringi
_ZN7wxRegExD1Ev
_ZN7wxRegExD2Ev
_ZN8wxCSConv4InitEv
_ZN8wxCSConv5ClearEv
_ZN8wxCSConv7SetNameEPKc
_ZN8wxCSConvaSERKS_
_ZN8wxCSConvC1E14wxFontEncoding
_ZN8wxCSConvC1EPKc
_ZN8wxCSConvC1ERKS_
_ZN8wxCSConvC2E14wxFontEncoding
_ZN8wxCSConvC2EPKc
_ZN8wxCSConvC2ERKS_
_ZN8wxCSConvD0Ev
_ZN8wxCSConvD1Ev
_ZN8wxCSConvD2Ev
_ZN8wxFSFile12ms_classInfoE
_ZN8wxFSFileD0Ev
_ZN8wxFSFileD1Ev
_ZN8wxLocale10AddCatalogEPKc
_ZN8wxLocale10AddCatalogEPKc10wxLanguageS1_
_ZN8wxLocale11AddLanguageERK14wxLanguageInfo
_ZN8wxLocale11IsAvailableEi
_ZN8wxLocale12DoCommonInitEv
_ZN8wxLocale14ms_languagesDBE
_ZN8wxLocale15GetLanguageInfoEi
_ZN8wxLocale15GetLanguageNameEi
_ZN8wxLocale15InitLanguagesDBEv
_ZN8wxLocale16FindLanguageInfoERK8wxString
_ZN8wxLocale17CreateLanguagesDBEv
_ZN8wxLocale17GetSystemEncodingEv
_ZN8wxLocale17GetSystemLanguageEv
_ZN8wxLocale18DestroyLanguagesDBEv
_ZN8wxLocale21GetSystemEncodingNameEv
_ZN8wxLocale26AddCatalogLookupPathPrefixERK8wxString
_ZN8wxLocale4InitEii
_ZN8wxLocale4InitEPKcS1_S1_bb
_ZN8wxLocale7GetInfoE12wxLocaleInfo16wxLocaleCategory
_ZN8wxLocaleD0Ev
_ZN8wxLocaleD1Ev
_ZN8wxLocaleD2Ev
_ZN8wxMBConvD0Ev
_ZN8wxMBConvD1Ev
_ZN8wxMBConvD2Ev
_ZN8wxModule12ms_classInfoE
_ZN8wxModule14RegisterModuleEPS_
_ZN8wxModule15RegisterModulesEv
_ZN8wxModule16DoCleanUpModulesERK12wxModuleList
_ZN8wxModule16UnregisterModuleEPS_
_ZN8wxModule17InitializeModulesEv
_ZN8wxModule18DoInitializeModuleEPS_R12wxModuleList
_ZN8wxModule9m_modulesE
_ZN8wxModuleD0Ev
_ZN8wxModuleD1Ev
_ZN8wxObject12ms_classInfoE
_ZN8wxObject14AllocExclusiveEv
_ZN8wxObject3RefERKS_
_ZN8wxObject5UnRefEv
_ZN8wxObjectD0Ev
_ZN8wxObjectD1Ev
_ZN8wxString11GetWriteBufEj
_ZN8wxString13UngetWriteBufEj
_ZN8wxString13UngetWriteBufEv
_ZN8wxString3PadEjcb
_ZN8wxString4TrimEb
_ZN8wxString6FormatEPKcz
_ZN8wxString6PrintfEPKcz
_ZN8wxString6ShrinkEv
_ZN8wxString7FormatVEPKcPc
_ZN8wxString7PrintfVEPKcPc
_ZN8wxString7ReplaceEPKcS1_b
_ZN8wxString7sprintfEPKcz
_ZN8wxString8TruncateEj
_ZN8wxString9MakeLowerEv
_ZN8wxString9MakeUpperEv
_ZN8wxStringaSEPKh
_ZN8wxStringaSEPKw
_ZN8wxStringC1EPKwRK8wxMBConvj
_ZN8wxStringC2EPKwRK8wxMBConvj
_ZN8wxThread11GetCPUCountEv
_ZN8wxThread11SetPriorityEj
_ZN8wxThread11TestDestroyEv
_ZN8wxThread12GetCurrentIdEv
_ZN8wxThread14SetConcurrencyEj
_ZN8wxThread3RunEv
_ZN8wxThread4ExitEPv
_ZN8wxThread4KillEv
_ZN8wxThread4ThisEv
_ZN8wxThread4WaitEv
_ZN8wxThread5PauseEv
_ZN8wxThread5SleepEm
_ZN8wxThread5YieldEv
_ZN8wxThread6CreateEj
_ZN8wxThread6DeleteEPPv
_ZN8wxThread6IsMainEv
_ZN8wxThread6OnExitEv
_ZN8wxThread6ResumeEv
_ZN8wxThreadC1E12wxThreadKind
_ZN8wxThreadC2E12wxThreadKind
_ZN8wxThreadD0Ev
_ZN8wxThreadD1Ev
_ZN8wxThreadD2Ev
_ZN9wxDirData4ReadEP8wxString
_ZN9wxDirDataC1ERK8wxString
_ZN9wxDirDataC2ERK8wxString
_ZN9wxDirDataD1Ev
_ZN9wxDirDataD2Ev
_ZN9wxProcess11OnTerminateEii
_ZN9wxProcess12ms_classInfoE
_ZN9wxProcess14SetPipeStreamsEP13wxInputStreamP14wxOutputStreamS1_
_ZN9wxProcess14wxCreateObjectEv
_ZN9wxProcess4InitEP12wxEvtHandlerii
_ZN9wxProcess4KillEi8wxSignali
_ZN9wxProcess4OpenERK8wxStringi
_ZN9wxProcess6DetachEv
_ZN9wxProcess6ExistsEi
_ZN9wxProcessD0Ev
_ZN9wxProcessD1Ev
_ZN9wxProcessD2Ev
_ZN9wxTarUserC1Ev
_ZN9wxTarUserC2Ev
_ZN9wxVariant12ms_classInfoE
_ZN9wxVariant14wxCreateObjectEv
_ZN9wxVariant3RefERKS_
_ZN9wxVariant5ClearEv
_ZN9wxVariant5UnRefEv
_ZN9wxVariant6AppendERKS_
_ZN9wxVariant6DeleteEj
_ZN9wxVariant6InsertERKS_
_ZN9wxVariant7SetDataEP13wxVariantData
_ZN9wxVariant8MakeNullEv
_ZN9wxVariant8NullListEv
_ZN9wxVariant9ClearListEv
_ZN9wxVariantaSEb
_ZN9wxVariantaSEc
_ZN9wxVariantaSEd
_ZN9wxVariantaSEl
_ZN9wxVariantaSEP13wxVariantData
_ZN9wxVariantaSEP8wxObject
_ZN9wxVariantaSEPKc
_ZN9wxVariantaSEPv
_ZN9wxVariantaSERK10wxDateTime
_ZN9wxVariantaSERK13wxArrayString
_ZN9wxVariantaSERK6wxList
_ZN9wxVariantaSERK8wxString
_ZN9wxVariantaSERKS_
_ZN9wxVariantC1EbRK8wxString
_ZN9wxVariantC1EcRK8wxString
_ZN9wxVariantC1EdRK8wxString
_ZN9wxVariantC1EiRK8wxString
_ZN9wxVariantC1ElRK8wxString
_ZN9wxVariantC1EP13wxVariantDataRK8wxString
_ZN9wxVariantC1EP8wxObjectRK8wxString
_ZN9wxVariantC1EPKcRK8wxString
_ZN9wxVariantC1EPvRK8wxString
_ZN9wxVariantC1ERK10wxDateTimeRK8wxString
_ZN9wxVariantC1ERK13wxArrayStringRK8wxString
_ZN9wxVariantC1ERK6wxListRK8wxString
_ZN9wxVariantC1ERK8wxStringS2_
_ZN9wxVariantC1ERKS_
_ZN9wxVariantC1EsRK8wxString
_ZN9wxVariantC1Ev
_ZN9wxVariantC2EbRK8wxString
_ZN9wxVariantC2EcRK8wxString
_ZN9wxVariantC2EdRK8wxString
_ZN9wxVariantC2EiRK8wxString
_ZN9wxVariantC2ElRK8wxString
_ZN9wxVariantC2EP13wxVariantDataRK8wxString
_ZN9wxVariantC2EP8wxObjectRK8wxString
_ZN9wxVariantC2EPKcRK8wxString
_ZN9wxVariantC2EPvRK8wxString
_ZN9wxVariantC2ERK10wxDateTimeRK8wxString
_ZN9wxVariantC2ERK13wxArrayStringRK8wxString
_ZN9wxVariantC2ERK6wxListRK8wxString
_ZN9wxVariantC2ERK8wxStringS2_
_ZN9wxVariantC2ERKS_
_ZN9wxVariantC2EsRK8wxString
_ZN9wxVariantC2Ev
_ZN9wxVariantD0Ev
_ZN9wxVariantD1Ev
_ZN9wxVariantD2Ev
_ZN9wxVariantixEj
_ZNK10wxConvAuto11GetMBNulLenEv
_ZNK10wxConvAuto5CloneEv
_ZNK10wxConvAuto7SkipBOMEPPKcPj
_ZNK10wxConvAuto7ToWCharEPwjPKcj
_ZNK10wxConvAuto9FromWCharEPcjPKwj
_ZNK10wxDateTime10GetRataDieEv
_ZNK10wxDateTime11GetDateOnlyEv
_ZNK10wxDateTime12GetDayOfYearERKNS_8TimeZoneE
_ZNK10wxDateTime13GetWeekOfYearENS_9WeekFlagsERKNS_8TimeZoneE
_ZNK10wxDateTime14GetWeekOfMonthENS_9WeekFlagsERKNS_8TimeZoneE
_ZNK10wxDateTime18GetJulianDayNumberEv
_ZNK10wxDateTime2Tm7IsValidEv
_ZNK10wxDateTime5GetTmERKNS_8TimeZoneE
_ZNK10wxDateTime5IsDSTENS_7CountryE
_ZNK10wxDateTime6FormatEPKcRKNS_8TimeZoneE
_ZNK10wxDateTime7GetWeekEtNS_7WeekDayENS_9WeekFlagsE
_ZNK10wxDateTime8GetAsDOSEv
_ZNK10wxDateTime9IsWorkDayENS_7CountryE
_ZNK10wxFileName10FileExistsEv
_ZNK10wxFileName10IsAbsoluteE12wxPathFormat
_ZNK10wxFileName11GetFullNameEv
_ZNK10wxFileName11GetFullPathE12wxPathFormat
_ZNK10wxFileName11GetLongPathEv
_ZNK10wxFileName12GetShortPathEv
_ZNK10wxFileName20GetHumanReadableSizeERK8wxStringi
_ZNK10wxFileName6SameAsERKS_12wxPathFormat
_ZNK10wxFileName7GetPathEi12wxPathFormat
_ZNK10wxFileName7GetSizeEv
_ZNK10wxFileName8GetTimesEP10wxDateTimeS1_S1_
_ZNK10wxFileName9DirExistsEv
_ZNK10wxFileType11GetMimeTypeEP8wxString
_ZNK10wxFileType12GetMimeTypesER13wxArrayString
_ZNK10wxFileType14GetAllCommandsEP13wxArrayStringS1_RKNS_17MessageParametersE
_ZNK10wxFileType14GetDescriptionEP8wxString
_ZNK10wxFileType14GetOpenCommandEP8wxStringRKNS_17MessageParametersE
_ZNK10wxFileType14GetOpenCommandERK8wxString
_ZNK10wxFileType15GetPrintCommandEP8wxStringRKNS_17MessageParametersE
_ZNK10wxFileType17MessageParameters13GetParamValueERK8wxString
_ZNK10wxFileType7GetIconEP14wxIconLocation
_ZNK10wxFileType7GetIconEP14wxIconLocationRKNS_17MessageParametersE
_ZNK10wxListBase4FindEPKv
_ZNK10wxListBase4FindERK9wxListKey
_ZNK10wxListBase4ItemEj
_ZNK10wxListBase7IndexOfEPv
_ZNK10wxNodeBase7IndexOfEv
_ZNK10wxPathList13FindValidPathERK8wxString
_ZNK10wxPathList21FindAbsoluteValidPathERK8wxString
_ZNK10wxPathList6MemberERK8wxString
_ZNK10wxTarEntry10IsReadOnlyEv
_ZNK10wxTarEntry11GetDateTimeEv
_ZNK10wxTarEntry12GetClassInfoEv
_ZNK10wxTarEntry15GetInternalNameEv
_ZNK10wxTarEntry17GetInternalFormatEv
_ZNK10wxTarEntry5IsDirEv
_ZNK10wxTarEntry7DoCloneEv
_ZNK10wxTarEntry7GetModeEv
_ZNK10wxTarEntry7GetNameE12wxPathFormat
_ZNK10wxTarEntry7GetSizeEv
_ZNK10wxTarEntry9GetOffsetEv
_ZNK10wxTextFile8OnExistsEv
_ZNK10wxTimeSpan6FormatEPKc
_ZNK10wxZipEntry10IsReadOnlyEv
_ZNK10wxZipEntry10WriteLocalER14wxOutputStreamR8wxMBConv
_ZNK10wxZipEntry11GetDateTimeEv
_ZNK10wxZipEntry11GetExtraLenEv
_ZNK10wxZipEntry12GetClassInfoEv
_ZNK10wxZipEntry12WriteCentralER14wxOutputStreamR8wxMBConv
_ZNK10wxZipEntry13GetLocalExtraEv
_ZNK10wxZipEntry15GetInternalNameEv
_ZNK10wxZipEntry16GetLocalExtraLenEv
_ZNK10wxZipEntry17GetInternalFormatEv
_ZNK10wxZipEntry5IsDirEv
_ZNK10wxZipEntry7DoCloneEv
_ZNK10wxZipEntry7GetModeEv
_ZNK10wxZipEntry7GetNameE12wxPathFormat
_ZNK10wxZipEntry7GetSizeEv
_ZNK10wxZipEntry8GetExtraEv
_ZNK10wxZipEntry8ZipCloneEv
_ZNK10wxZipEntry9GetOffsetEv
_ZNK11wxClassInfo8IsKindOfEPKS_
_ZNK11wxCondition4IsOkEv
_ZNK11wxRegExImpl11GetErrorMsgEib
_ZNK11wxRegExImpl13GetMatchCountEv
_ZNK11wxRegExImpl7MatchesEPKcij
_ZNK11wxRegExImpl7ReplaceEP8wxStringRKS0_j
_ZNK11wxRegExImpl8GetMatchEPjS0_j
_ZNK11wxSemaphore4IsOkEv
_ZNK11wxStopWatch14GetElapsedTimeEv
_ZNK11wxStopWatch4TimeEv
_ZNK11wxZipEndRec5WriteER14wxOutputStreamR8wxMBConv
_ZNK12wxAppConsole11HandleEventEP12wxEvtHandlerMS0_FvR7wxEventES3_
_ZNK12wxClientBase12GetClassInfoEv
_ZNK12wxConfigBase10DoReadBoolERK8wxStringPb
_ZNK12wxConfigBase12DoReadDoubleERK8wxStringPd
_ZNK12wxConfigBase12GetEntryTypeERK8wxString
_ZNK12wxConfigBase13ExpandEnvVarsERK8wxString
_ZNK12wxConfigBase4ReadERK8wxStringPb
_ZNK12wxConfigBase4ReadERK8wxStringPbb
_ZNK12wxConfigBase4ReadERK8wxStringPd
_ZNK12wxConfigBase4ReadERK8wxStringPdd
_ZNK12wxConfigBase4ReadERK8wxStringPi
_ZNK12wxConfigBase4ReadERK8wxStringPii
_ZNK12wxConfigBase4ReadERK8wxStringPl
_ZNK12wxConfigBase4ReadERK8wxStringPll
_ZNK12wxConfigBase4ReadERK8wxStringPS0_
_ZNK12wxConfigBase4ReadERK8wxStringPS0_S2_
_ZNK12wxConfigBase9DoReadIntERK8wxStringPi
_ZNK12wxEvtHandler12GetClassInfoEv
_ZNK12wxEvtHandler13GetEventTableEv
_ZNK12wxEvtHandler15DoGetClientDataEv
_ZNK12wxEvtHandler17DoGetClientObjectEv
_ZNK12wxEvtHandler17GetEventHashTableEv
_ZNK12wxFileConfig10DoReadLongERK8wxStringPl
_ZNK12wxFileConfig12DoReadStringERK8wxStringPS0_
_ZNK12wxFileConfig12GetNextEntryER8wxStringRl
_ZNK12wxFileConfig12GetNextGroupER8wxStringRl
_ZNK12wxFileConfig13GetFirstEntryER8wxStringRl
_ZNK12wxFileConfig13GetFirstGroupER8wxStringRl
_ZNK12wxFileConfig17GetNumberOfGroupsEb
_ZNK12wxFileConfig18GetNumberOfEntriesEb
_ZNK12wxFileConfig7GetPathEv
_ZNK12wxFileConfig8HasEntryERK8wxString
_ZNK12wxFileConfig8HasGroupERK8wxString
_ZNK12wxFileSystem12GetClassInfoEv
_ZNK12wxMBConvLibc5CloneEv
_ZNK12wxMBConvLibc5MB2WCEPwPKcj
_ZNK12wxMBConvLibc5WC2MBEPcPKwj
_ZNK12wxMBConvUTF75CloneEv
_ZNK12wxMBConvUTF75MB2WCEPwPKcj
_ZNK12wxMBConvUTF75WC2MBEPcPKwj
_ZNK12wxMBConvUTF85CloneEv
_ZNK12wxMBConvUTF85MB2WCEPwPKcj
_ZNK12wxMBConvUTF85WC2MBEPcPKwj
_ZNK12wxMemoryText8OnExistsEv
_ZNK12wxModuleList4FindERK9wxListKey
_ZNK12wxMsgCatalog9GetStringEPKcj
_ZNK12wxObjectList4FindERK9wxListKey
_ZNK12wxServerBase12GetClassInfoEv
_ZNK12wxStreamBase10IsSeekableEv
_ZNK12wxStreamBase4IsOkEv
_ZNK12wxStreamBase7GetSizeEv
_ZNK12wxStreamBase9GetLengthEv
_ZNK12wxStreamBase9OnSysTellEv
_ZNK12wxStringBase12find_last_ofEPKcj
_ZNK12wxStringBase12find_last_ofEPKcjj
_ZNK12wxStringBase13find_first_ofEPKcj
_ZNK12wxStringBase13find_first_ofEPKcjj
_ZNK12wxStringBase16find_last_not_ofEcj
_ZNK12wxStringBase16find_last_not_ofEPKcj
_ZNK12wxStringBase16find_last_not_ofEPKcjj
_ZNK12wxStringBase17find_first_not_ofEcj
_ZNK12wxStringBase17find_first_not_ofEPKcj
_ZNK12wxStringBase17find_first_not_ofEPKcjj
_ZNK12wxStringBase4findEcj
_ZNK12wxStringBase4findEPKcjj
_ZNK12wxStringBase4findERKS_j
_ZNK12wxStringBase5rfindEcj
_ZNK12wxStringBase5rfindEPKcjj
_ZNK12wxStringBase5rfindERKS_j
_ZNK12wxStringBase6substrEjj
_ZNK12wxStringBase7compareEjjPKcj
_ZNK12wxStringBase7compareEjjRKS_
_ZNK12wxStringBase7compareEjjRKS_jj
_ZNK12wxStringBase7compareEPKc
_ZNK12wxStringBase7compareERKS_
_ZNK12wxStringBase9AllocCopyER8wxStringii
_ZNK12wxStringList11ListToArrayEb
_ZNK12wxStringList12GetClassInfoEv
_ZNK12wxStringList6MemberEPKc
_ZNK12wxTextBuffer6ExistsEv
_ZNK12wxTextBuffer9GuessTypeEv
_ZNK13wxArrayParams5IndexERK14wxCmdLineParamb
_ZNK13wxArrayString5IndexEPKcbb
_ZNK13wxArrayStringeqERKS_
_ZNK13wxInputStream3EofEv
_ZNK13wxInputStream5TellIEv
_ZNK13wxInputStream7CanReadEv
_ZNK13wxInputStream8LastReadEv
_ZNK13wxVariantData12GetClassInfoEv
_ZNK13wxVariantData5WriteER8wxString
_ZNK13wxVariantData5WriteERSo
_ZNK14wxArchiveEntry12GetClassInfoEv
_ZNK14wxArrayOptions5IndexERK15wxCmdLineOptionb
_ZNK14wxBaseArrayInt14IndexForInsertEiPFiPKvS1_E
_ZNK14wxBaseArrayInt5IndexEib
_ZNK14wxBaseArrayInt5IndexEiPFiPKvS1_E
_ZNK14wxFileTypeImpl12GetMimeTypesER13wxArrayString
_ZNK14wxFileTypeImpl14GetAllCommandsEP13wxArrayStringS1_RKN10wxFileType17MessageParametersE
_ZNK14wxFileTypeImpl18GetExpandedCommandERK8wxStringRKN10wxFileType17MessageParametersE
_ZNK14wxFileTypeImpl7GetIconEP14wxIconLocation
_ZNK14wxLocaleModule12GetClassInfoEv
_ZNK14wxMBConv_iconv11GetMBNulLenEv
_ZNK14wxMBConv_iconv5CloneEv
_ZNK14wxMBConv_iconv5MB2WCEPwPKcj
_ZNK14wxMBConv_iconv5WC2MBEPcPKwj
_ZNK14wxMBConv_wxwin11GetMBNulLenEv
_ZNK14wxMBConv_wxwin5CloneEv
_ZNK14wxMBConv_wxwin5MB2WCEPwPKcj
_ZNK14wxMBConv_wxwin5WC2MBEPcPKwj
_ZNK14wxOutputStream5TellOEv
_ZNK14wxOutputStream9LastWriteEv
_ZNK14wxPlatformInfoeqERKS_
_ZNK14wxProcessEvent12GetClassInfoEv
_ZNK14wxProcessEvent5CloneEv
_ZNK14wxStreamBuffer14GetInputStreamEv
_ZNK14wxStreamBuffer15GetOutputStreamEv
_ZNK14wxStreamBuffer4TellEv
_ZNK14wxThreadModule12GetClassInfoEv
_ZNK14wxZipWeakLinks8GetEntryEx
_ZNK15wxAppTraitsBase21GetDesktopEnvironmentEv
_ZNK15wxBaseArrayChar14IndexForInsertEcPFiPKvS1_E
_ZNK15wxBaseArrayChar5IndexEcb
_ZNK15wxBaseArrayChar5IndexEcPFiPKvS1_E
_ZNK15wxBaseArrayLong14IndexForInsertElPFiPKvS1_E
_ZNK15wxBaseArrayLong5IndexElb
_ZNK15wxBaseArrayLong5IndexElPFiPKvS1_E
_ZNK15wxCmdLineParser13GetParamCountEv
_ZNK15wxCmdLineParser5FoundERK8wxString
_ZNK15wxCmdLineParser5FoundERK8wxStringP10wxDateTime
_ZNK15wxCmdLineParser5FoundERK8wxStringPl
_ZNK15wxCmdLineParser5FoundERK8wxStringPS0_
_ZNK15wxCmdLineParser8GetParamEj
_ZNK15wxDateTimeArray5IndexERK10wxDateTimeb
_ZNK15wxHashTableBase5DoGetEll
_ZNK15wxHashTableBase5DoGetEPKcl
_ZNK15wxMBConvUTF16BE5CloneEv
_ZNK15wxMBConvUTF16BE7ToWCharEPwjPKcj
_ZNK15wxMBConvUTF16BE9FromWCharEPcjPKwj
_ZNK15wxMBConvUTF16LE5CloneEv
_ZNK15wxMBConvUTF16LE7ToWCharEPwjPKcj
_ZNK15wxMBConvUTF16LE9FromWCharEPcjPKwj
_ZNK15wxMBConvUTF32BE5CloneEv
_ZNK15wxMBConvUTF32BE7ToWCharEPwjPKcj
_ZNK15wxMBConvUTF32BE9FromWCharEPcjPKwj
_ZNK15wxMBConvUTF32LE5CloneEv
_ZNK15wxMBConvUTF32LE7ToWCharEPwjPKcj
_ZNK15wxMBConvUTF32LE9FromWCharEPcjPKwj
_ZNK15wxStandardPaths10GetDataDirEv
_ZNK15wxStandardPaths12GetConfigDirEv
_ZNK15wxStandardPaths13GetPluginsDirEv
_ZNK15wxStandardPaths14GetUserDataDirEv
_ZNK15wxStandardPaths15GetLocalDataDirEv
_ZNK15wxStandardPaths16GetInstallPrefixEv
_ZNK15wxStandardPaths16GetUserConfigDirEv
_ZNK15wxStandardPaths17GetExecutablePathEv
_ZNK15wxStandardPaths24GetLocalizedResourcesDirEPKcN19wxStandardPathsBase11ResourceCatE
_ZNK15wxZipEntryList_4FindERK9wxListKey
_ZNK16wxBaseArrayShort14IndexForInsertEsPFiPKvS1_E
_ZNK16wxBaseArrayShort5IndexEsb
_ZNK16wxBaseArrayShort5IndexEsPFiPKvS1_E
_ZNK16wxBaseArraySizeT14IndexForInsertEjPFiPKvS1_E
_ZNK16wxBaseArraySizeT5IndexEjb
_ZNK16wxBaseArraySizeT5IndexEjPFiPKvS1_E
_ZNK16wxConnectionBase12GetClassInfoEv
_ZNK16wxDynamicLibrary11DoGetSymbolERK8wxStringPb
_ZNK16wxDynamicLibrary9GetSymbolERK8wxStringPb
_ZNK16wxLongLongNative7asArrayEv
_ZNK16wxLongLongNative8ToStringEv
_ZNK16wxMsgCatalogFile8FillHashER14wxMessagesHashRK8wxStringb
_ZNK16wxRawInputStream9OnSysTellEv
_ZNK16wxStackFrameBase13GetParamCountEv
_ZNK16wxStackFrameBase8GetParamEjP8wxStringS1_S1_
_ZNK16wxStringListBase4FindERK9wxListKey
_ZNK16wxTarHeaderBlock10IsAllZerosEv
_ZNK16wxTarInputStream10IsSeekableEv
_ZNK16wxTarInputStream13GetHeaderDateERK8wxString
_ZNK16wxTarInputStream13GetHeaderPathEv
_ZNK16wxTarInputStream15GetHeaderNumberEi
_ZNK16wxTarInputStream15GetHeaderStringEi
_ZNK16wxTarInputStream17GetExtendedHeaderERK8wxString
_ZNK16wxTarInputStream9GetLengthEv
_ZNK16wxTarInputStream9OnSysTellEv
_ZNK16wxTeeInputStream9OnSysTellEv
_ZNK16wxZipInputStream9GetLengthEv
_ZNK16wxZipInputStream9OnSysTellEv
_ZNK17wxBackingFileImpl9GetLengthEv
_ZNK17wxBaseArrayDouble14IndexForInsertEdPFiPKvS1_E
_ZNK17wxBaseArrayDouble5IndexEdb
_ZNK17wxBaseArrayDouble5IndexEdPFiPKvS1_E
_ZNK17wxFileConfigGroup11GetFullNameEv
_ZNK17wxFileConfigGroup12FindSubgroupEPKc
_ZNK17wxFileConfigGroup9FindEntryEPKc
_ZNK17wxFileInputStream10IsSeekableEv
_ZNK17wxFileInputStream4IsOkEv
_ZNK17wxFileInputStream9GetLengthEv
_ZNK17wxFileInputStream9OnSysTellEv
_ZNK17wxMBConvUTF16Base11GetMBNulLenEv
_ZNK17wxMBConvUTF32Base11GetMBNulLenEv
_ZNK17wxPipeInputStream7CanReadEv
_ZNK17wxPluralFormsNode8evaluateEi
_ZNK17wxStringTokenizer11CountTokensEv
_ZNK17wxStringTokenizer13HasMoreTokensEv
_ZNK17wxTarClassFactory10DoNewEntryEv
_ZNK17wxTarClassFactory11DoNewStreamEP13wxInputStream
_ZNK17wxTarClassFactory11DoNewStreamEP14wxOutputStream
_ZNK17wxTarClassFactory11DoNewStreamER13wxInputStream
_ZNK17wxTarClassFactory11DoNewStreamER14wxOutputStream
_ZNK17wxTarClassFactory12GetClassInfoEv
_ZNK17wxTarClassFactory12GetProtocolsE20wxStreamProtocolType
_ZNK17wxTarClassFactory15GetInternalNameERK8wxString12wxPathFormat
_ZNK17wxTarOutputStream10IsSeekableEv
_ZNK17wxTarOutputStream9OnSysTellEv
_ZNK17wxULongLongNative7asArrayEv
_ZNK17wxULongLongNative8ToStringEv
_ZNK17wxVariantDataBool12GetClassInfoEv
_ZNK17wxVariantDataBool2EqER13wxVariantData
_ZNK17wxVariantDataBool5WriteER14wxOutputStream
_ZNK17wxVariantDataBool5WriteER8wxString
_ZNK17wxVariantDataBool5WriteERSo
_ZNK17wxVariantDataBool7GetTypeEv
_ZNK17wxVariantDataChar12GetClassInfoEv
_ZNK17wxVariantDataChar2EqER13wxVariantData
_ZNK17wxVariantDataChar5WriteER14wxOutputStream
_ZNK17wxVariantDataChar5WriteER8wxString
_ZNK17wxVariantDataChar5WriteERSo
_ZNK17wxVariantDataChar7GetTypeEv
_ZNK17wxVariantDataList12GetClassInfoEv
_ZNK17wxVariantDataList2EqER13wxVariantData
_ZNK17wxVariantDataList5WriteER8wxString
_ZNK17wxVariantDataList5WriteERSo
_ZNK17wxVariantDataList7GetTypeEv
_ZNK17wxVariantDataLong12GetClassInfoEv
_ZNK17wxVariantDataLong2EqER13wxVariantData
_ZNK17wxVariantDataLong5WriteER14wxOutputStream
_ZNK17wxVariantDataLong5WriteER8wxString
_ZNK17wxVariantDataLong5WriteERSo
_ZNK17wxVariantDataLong7GetTypeEv
_ZNK17wxZipClassFactory10DoNewEntryEv
_ZNK17wxZipClassFactory11DoNewStreamEP13wxInputStream
_ZNK17wxZipClassFactory11DoNewStreamEP14wxOutputStream
_ZNK17wxZipClassFactory11DoNewStreamER13wxInputStream
_ZNK17wxZipClassFactory11DoNewStreamER14wxOutputStream
_ZNK17wxZipClassFactory12GetClassInfoEv
_ZNK17wxZipClassFactory12GetProtocolsE20wxStreamProtocolType
_ZNK17wxZipClassFactory15GetInternalNameERK8wxString12wxPathFormat
_ZNK17wxZipOutputStream9OnSysTellEv
_ZNK17wxZlibInputStream9GetLengthEv
_ZNK17wxZlibInputStream9OnSysTellEv
_ZNK18wxArchiveFSHandler12GetClassInfoEv
_ZNK18wxBaseArrayPtrVoid14IndexForInsertEPKvPFiS1_S1_E
_ZNK18wxBaseArrayPtrVoid5IndexEPKvb
_ZNK18wxBaseArrayPtrVoid5IndexEPKvPFiS1_S1_E
_ZNK18wxDateTimeWorkDays11DoIsHolidayERK10wxDateTime
_ZNK18wxDateTimeWorkDays20DoGetHolidaysInRangeERK10wxDateTimeS2_R15wxDateTimeArray
_ZNK18wxFFileInputStream10IsSeekableEv
_ZNK18wxFFileInputStream4IsOkEv
_ZNK18wxFFileInputStream9GetLengthEv
_ZNK18wxFFileInputStream9OnSysTellEv
_ZNK18wxFileOutputStream10IsSeekableEv
_ZNK18wxFileOutputStream4IsOkEv
_ZNK18wxFileOutputStream9GetLengthEv
_ZNK18wxFileOutputStream9OnSysTellEv
_ZNK18wxFileSystemModule12GetClassInfoEv
_ZNK18wxFontMapperModule12GetClassInfoEv
_ZNK18wxGzipClassFactory12GetClassInfoEv
_ZNK18wxGzipClassFactory12GetProtocolsE20wxStreamProtocolType
_ZNK18wxGzipClassFactory9NewStreamEP13wxInputStream
_ZNK18wxGzipClassFactory9NewStreamEP14wxOutputStream
_ZNK18wxGzipClassFactory9NewStreamER13wxInputStream
_ZNK18wxGzipClassFactory9NewStreamER14wxOutputStream
_ZNK18wxMimeTypeCommands10GetVerbCmdEj
_ZNK18wxMimeTypeCommands17GetCommandForVerbERK8wxStringPj
_ZNK18wxZlibClassFactory12GetClassInfoEv
_ZNK18wxZlibClassFactory12GetProtocolsE20wxStreamProtocolType
_ZNK18wxZlibClassFactory9NewStreamEP13wxInputStream
_ZNK18wxZlibClassFactory9NewStreamEP14wxOutputStream
_ZNK18wxZlibClassFactory9NewStreamER13wxInputStream
_ZNK18wxZlibClassFactory9NewStreamER14wxOutputStream
_ZNK18wxZlibOutputStream9GetLengthEv
_ZNK18wxZlibOutputStream9OnSysTellEv
_ZNK19wxArrayFileTypeInfo5IndexERK14wxFileTypeInfob
_ZNK19wxBackedInputStream10FindLengthEv
_ZNK19wxBackedInputStream10IsSeekableEv
_ZNK19wxBackedInputStream9GetLengthEv
_ZNK19wxBackedInputStream9OnSysTellEv
_ZNK19wxEncodingConverter7ConvertEPKcPc
_ZNK19wxEncodingConverter7ConvertEPKcPw
_ZNK19wxEncodingConverter7ConvertEPKwPc
_ZNK19wxEncodingConverter7ConvertEPKwPw
_ZNK19wxEncodingConverter7ConvertERK8wxString
_ZNK19wxFFileOutputStream10IsSeekableEv
_ZNK19wxFFileOutputStream4IsOkEv
_ZNK19wxFFileOutputStream9GetLengthEv
_ZNK19wxFFileOutputStream9OnSysTellEv
_ZNK19wxFileSystemHandler11GetProtocolERK8wxString
_ZNK19wxFileSystemHandler12GetClassInfoEv
_ZNK19wxFileSystemHandler15GetLeftLocationERK8wxString
_ZNK19wxFileSystemHandler16GetRightLocationERK8wxString
_ZNK19wxFileSystemHandler9GetAnchorERK8wxString
_ZNK19wxFilterInputStream9GetLengthEv
_ZNK19wxLanguageInfoArray5IndexERK14wxLanguageInfob
_ZNK19wxMemoryInputStream10IsSeekableEv
_ZNK19wxMemoryInputStream9GetLengthEv
_ZNK19wxMemoryInputStream9OnSysTellEv
_ZNK19wxMimeTypeCmnModule12GetClassInfoEv
_ZNK19wxPluralFormsParser5tokenEv
_ZNK19wxStandardPathsBase10GetTempDirEv
_ZNK19wxStandardPathsBase15GetDocumentsDirEv
_ZNK19wxStandardPathsBase15GetLocalDataDirEv
_ZNK19wxStandardPathsBase15GetResourcesDirEv
_ZNK19wxStandardPathsBase17GetExecutablePathEv
_ZNK19wxStandardPathsBase19GetUserLocalDataDirEv
_ZNK19wxStandardPathsBase24GetLocalizedResourcesDirEPKcNS_11ResourceCatE
_ZNK19wxStoredInputStream9GetLengthEv
_ZNK19wxStoredInputStream9OnSysTellEv
_ZNK19wxStringInputStream9GetLengthEv
_ZNK19wxStringInputStream9OnSysTellEv
_ZNK19wxVariantDataString12GetClassInfoEv
_ZNK19wxVariantDataString2EqER13wxVariantData
_ZNK19wxVariantDataString5WriteER14wxOutputStream
_ZNK19wxVariantDataString5WriteER8wxString
_ZNK19wxVariantDataString5WriteERSo
_ZNK19wxVariantDataString7GetTypeEv
_ZNK19wxVariantDoubleData12GetClassInfoEv
_ZNK19wxVariantDoubleData2EqER13wxVariantData
_ZNK19wxVariantDoubleData5WriteER14wxOutputStream
_ZNK19wxVariantDoubleData5WriteER8wxString
_ZNK19wxVariantDoubleData5WriteERSo
_ZNK19wxVariantDoubleData7GetTypeEv
_ZNK20wxFilterClassFactory12GetClassInfoEv
_ZNK20wxFilterOutputStream9GetLengthEv
_ZNK20wxMemoryOutputStream10IsSeekableEv
_ZNK20wxMemoryOutputStream6CopyToEPvj
_ZNK20wxMemoryOutputStream9GetLengthEv
_ZNK20wxMemoryOutputStream9OnSysTellEv
_ZNK20wxStoredOutputStream9OnSysTellEv
_ZNK20wxStringOutputStream9OnSysTellEv
_ZNK20wxVariantDataVoidPtr12GetClassInfoEv
_ZNK20wxVariantDataVoidPtr2EqER13wxVariantData
_ZNK20wxVariantDataVoidPtr5WriteER8wxString
_ZNK20wxVariantDataVoidPtr5WriteERSo
_ZNK20wxVariantDataVoidPtr7GetTypeEv
_ZNK21wxArchiveClassFactory12GetClassInfoEv
_ZNK21wxBufferedInputStream10IsSeekableEv
_ZNK21wxBufferedInputStream5TellIEv
_ZNK21wxBufferedInputStream9OnSysTellEv
_ZNK21wxClientDataContainer15DoGetClientDataEv
_ZNK21wxClientDataContainer17DoGetClientObjectEv
_ZNK21wxConvBrokenFileNames11GetMBNulLenEv
_ZNK21wxConvBrokenFileNames5CloneEv
_ZNK21wxConvBrokenFileNames5MB2WCEPwPKcj
_ZNK21wxConvBrokenFileNames5WC2MBEPcPKwj
_ZNK21wxPluginLibraryModule12GetClassInfoEv
_ZNK21wxVariantDataDateTime12GetClassInfoEv
_ZNK21wxVariantDataDateTime2EqER13wxVariantData
_ZNK21wxVariantDataDateTime5WriteER8wxString
_ZNK21wxVariantDataDateTime5WriteERSo
_ZNK21wxVariantDataDateTime7GetTypeEv
_ZNK22wxBufferedOutputStream10IsSeekableEv
_ZNK22wxBufferedOutputStream5TellOEv
_ZNK22wxBufferedOutputStream9GetLengthEv
_ZNK22wxBufferedOutputStream9OnSysTellEv
_ZNK22wxConsoleAppTraitsBase17GetToolkitVersionEPiS0_
_ZNK22wxConsoleAppTraitsBase23IsUsingUniversalWidgetsEv
_ZNK22wxCountingOutputStream4IsOkEv
_ZNK22wxCountingOutputStream9GetLengthEv
_ZNK22wxCountingOutputStream9OnSysTellEv
_ZNK22wxMimeTypesManagerImpl10GetCommandERK8wxStringj
_ZNK22wxTempFileOutputStream10IsSeekableEv
_ZNK22wxTempFileOutputStream9GetLengthEv
_ZNK22wxTempFileOutputStream9OnSysTellEv
_ZNK23wxPluralFormsCalculator8evaluateEi
_ZNK23wxSingleInstanceChecker16IsAnotherRunningEv
_ZNK24wxArchiveFSCacheDataImpl9NewStreamEv
_ZNK24wxDateTimeHolidaysModule12GetClassInfoEv
_ZNK24wxFilterClassFactoryBase12GetClassInfoEv
_ZNK24wxFilterClassFactoryBase12PopExtensionERK8wxString
_ZNK24wxFilterClassFactoryBase13FindExtensionEPKc
_ZNK24wxFilterClassFactoryBase9CanHandleEPKc20wxStreamProtocolType
_ZNK24wxVariantDataArrayString12GetClassInfoEv
_ZNK24wxVariantDataArrayString2EqER13wxVariantData
_ZNK24wxVariantDataArrayString5WriteER8wxString
_ZNK24wxVariantDataArrayString5WriteERSo
_ZNK24wxVariantDataArrayString7GetTypeEv
_ZNK24wxVariantDataWxObjectPtr12GetClassInfoEv
_ZNK24wxVariantDataWxObjectPtr2EqER13wxVariantData
_ZNK24wxVariantDataWxObjectPtr5WriteER8wxString
_ZNK24wxVariantDataWxObjectPtr5WriteERSo
_ZNK24wxVariantDataWxObjectPtr7GetTypeEv
_ZNK28wxDynamicLibraryDetailsArray5IndexERK23wxDynamicLibraryDetailsb
_ZNK5wxDir7GetNameEv
_ZNK5wxDir7GetNextEP8wxString
_ZNK5wxDir8GetFirstEP8wxStringRKS0_i
_ZNK5wxDir8IsOpenedEv
_ZNK5wxDir8TraverseER14wxDirTraverserRK8wxStringi
_ZNK5wxURI11GetPasswordEv
_ZNK5wxURI11IsReferenceEv
_ZNK5wxURI12GetClassInfoEv
_ZNK5wxURI17BuildUnescapedURIEv
_ZNK5wxURI7GetUserEv
_ZNK5wxURI8BuildURIEv
_ZNK5wxURIeqERKS_
_ZNK6wxFile3EofEv
_ZNK6wxFile4TellEv
_ZNK6wxFile6LengthEv
_ZNK6wxList12GetClassInfoEv
_ZNK7wxEvent12GetClassInfoEv
_ZNK7wxFFile4TellEv
_ZNK7wxFFile6LengthEv
_ZNK7wxMutex4IsOkEv
_ZNK7wxRegEx13GetMatchCountEv
_ZNK7wxRegEx7MatchesEPKci
_ZNK7wxRegEx7MatchesEPKcij
_ZNK7wxRegEx7ReplaceEP8wxStringRKS0_j
_ZNK7wxRegEx8GetMatchEPjS0_j
_ZNK7wxRegEx8GetMatchERK8wxStringj
_ZNK8wxCSConv11GetMBNulLenEv
_ZNK8wxCSConv18CreateConvIfNeededEv
_ZNK8wxCSConv4IsOkEv
_ZNK8wxCSConv5CloneEv
_ZNK8wxCSConv5MB2WCEPwPKcj
_ZNK8wxCSConv5WC2MBEPcPKwj
_ZNK8wxCSConv7ToWCharEPwjPKcj
_ZNK8wxCSConv8DoCreateEv
_ZNK8wxCSConv9FromWCharEPcjPKwj
_ZNK8wxFSFile12GetClassInfoEv
_ZNK8wxLocale10GetSysNameEv
_ZNK8wxLocale11FindCatalogEPKc
_ZNK8wxLocale14GetHeaderValueEPKcS1_
_ZNK8wxLocale8IsLoadedEPKc
_ZNK8wxLocale9GetStringEPKcS1_
_ZNK8wxLocale9GetStringEPKcS1_jS1_
_ZNK8wxMBConv11GetMBNulLenEv
_ZNK8wxMBConv5MB2WCEPwPKcj
_ZNK8wxMBConv5WC2MBEPcPKwj
_ZNK8wxMBConv6cMB2WCEPKc
_ZNK8wxMBConv6cMB2WCEPKcjPj
_ZNK8wxMBConv6cWC2MBEPKw
_ZNK8wxMBConv6cWC2MBEPKwjPj
_ZNK8wxMBConv7ToWCharEPwjPKcj
_ZNK8wxMBConv9FromWCharEPcjPKwj
_ZNK8wxModule12GetClassInfoEv
_ZNK8wxObject12CloneRefDataEPK15wxObjectRefData
_ZNK8wxObject12GetClassInfoEv
_ZNK8wxObject13CreateRefDataEv
_ZNK8wxObject8IsKindOfEP11wxClassInfo
_ZNK8wxString10AfterFirstEc
_ZNK8wxString10BeforeLastEc
_ZNK8wxString10StartsWithEPKcPS_
_ZNK8wxString10ToLongLongEPxi
_ZNK8wxString11BeforeFirstEc
_ZNK8wxString11ToULongLongEPyi
_ZNK8wxString3CmpEPKc
_ZNK8wxString3CmpERKS_
_ZNK8wxString3MidEjj
_ZNK8wxString4FindEcb
_ZNK8wxString4FindEPKc
_ZNK8wxString4FreqEc
_ZNK8wxString4LeftEj
_ZNK8wxString5LowerEv
_ZNK8wxString5RightEj
_ZNK8wxString5StripENS_9stripTypeE
_ZNK8wxString5UpperEv
_ZNK8wxString6IsWordEv
_ZNK8wxString6ToLongEPli
_ZNK8wxString6wc_strERK8wxMBConv
_ZNK8wxString7IsAsciiEv
_ZNK8wxString7MatchesEPKc
_ZNK8wxString7ToULongEPmi
_ZNK8wxString8EndsWithEPKcPS_
_ZNK8wxString8IsNumberEv
_ZNK8wxString8ToDoubleEPd
_ZNK8wxString9AfterLastEc
_ZNK8wxString9CmpNoCaseEPKc
_ZNK8wxString9CmpNoCaseERKS_
_ZNK8wxThread11GetPriorityEv
_ZNK8wxThread5GetIdEv
_ZNK8wxThread7IsAliveEv
_ZNK8wxThread8IsPausedEv
_ZNK8wxThread9IsRunningEv
_ZNK9wxListKeyeqE14wxListKeyValue
_ZNK9wxProcess12GetClassInfoEv
_ZNK9wxProcess13IsInputOpenedEv
_ZNK9wxProcess16IsErrorAvailableEv
_ZNK9wxProcess16IsInputAvailableEv
_ZNK9wxVariant10GetVoidPtrEv
_ZNK9wxVariant10MakeStringEv
_ZNK9wxVariant11GetDateTimeEv
_ZNK9wxVariant12GetClassInfoEv
_ZNK9wxVariant13IsValueKindOfEPK11wxClassInfo
_ZNK9wxVariant14GetArrayStringEv
_ZNK9wxVariant14GetWxObjectPtrEv
_ZNK9wxVariant6IsNullEv
_ZNK9wxVariant6IsTypeERK8wxString
_ZNK9wxVariant6MemberERKS_
_ZNK9wxVariant7ConvertEP10wxDateTime
_ZNK9wxVariant7ConvertEP8wxString
_ZNK9wxVariant7ConvertEPb
_ZNK9wxVariant7ConvertEPc
_ZNK9wxVariant7ConvertEPd
_ZNK9wxVariant7ConvertEPl
_ZNK9wxVariant7GetBoolEv
_ZNK9wxVariant7GetCharEv
_ZNK9wxVariant7GetListEv
_ZNK9wxVariant7GetLongEv
_ZNK9wxVariant7GetTypeEv
_ZNK9wxVariant8GetCountEv
_ZNK9wxVariant9GetDoubleEv
_ZNK9wxVariant9GetStringEv
_ZNK9wxVarianteqEb
_ZNK9wxVarianteqEc
_ZNK9wxVarianteqEd
_ZNK9wxVarianteqEl
_ZNK9wxVarianteqEP8wxObject
_ZNK9wxVarianteqEPv
_ZNK9wxVarianteqERK10wxDateTime
_ZNK9wxVarianteqERK13wxArrayString
_ZNK9wxVarianteqERK6wxList
_ZNK9wxVarianteqERK8wxString
_ZNK9wxVarianteqERKS_
_ZNK9wxVariantixEj
_ZNK9wxVariantneEb
_ZNK9wxVariantneEc
_ZNK9wxVariantneEd
_ZNK9wxVariantneEl
_ZNK9wxVariantneEP8wxObject
_ZNK9wxVariantneEPv
_ZNK9wxVariantneERK10wxDateTime
_ZNK9wxVariantneERK13wxArrayString
_ZNK9wxVariantneERK6wxList
_ZNK9wxVariantneERK8wxString
_ZNK9wxVariantneERKS_
_ZplcRK8wxString
_ZplPKcRK8wxString
_ZplRK8wxStringc
_ZplRK8wxStringPKc
_ZplRK8wxStringS1_
_ZrsR17wxTextInputStreamR16wxLongLongNative
_ZrsR17wxTextInputStreamR17wxULongLongNative
_ZrsR17wxTextInputStreamRx
_ZrsR17wxTextInputStreamRy
_ZThn32_N12wxFileStreamD0Ev
_ZThn32_N12wxFileStreamD1Ev
_ZThn32_N13wxFFileStreamD0Ev
_ZThn32_N13wxFFileStreamD1Ev
_ZTI10wxConvAuto
_ZTI10wxListBase
_ZTI10wxLogChain
_ZTI10wxNodeBase
_ZTI10wxTarEntry
_ZTI10wxTextFile
_ZTI10wxZipEntry
_ZTI11wxAppTraits
_ZTI11wxHashTable
_ZTI11wxLogBuffer
_ZTI11wxLogStderr
_ZTI11wxLogStream
_ZTI12MemFSHashObj
_ZTI12wxAppConsole
_ZTI12wxClientBase
_ZTI12wxConfigBase
_ZTI12wxEvtHandler
_ZTI12wxFileConfig
_ZTI12wxFileStream
_ZTI12wxFileSystem
_ZTI12wxMBConvLibc
_ZTI12wxMBConvUTF7
_ZTI12wxMBConvUTF8
_ZTI12wxMemoryText
_ZTI12wxModuleList
_ZTI12wxObjectList
_ZTI12wxServerBase
_ZTI12wxStackFrame
_ZTI12wxStreamBase
_ZTI12wxStringList
_ZTI12wxTextBuffer
_ZTI13wxFFileStream
_ZTI13wxInputStream
_ZTI13wxStackWalker
_ZTI13wxVariantData
_ZTI14wxArchiveEntry
_ZTI14wxDirTraverser
_ZTI14wxLocaleModule
_ZTI14wxMBConv_iconv
_ZTI14wxMBConv_wxwin
_ZTI14wxMemoryConfig
_ZTI14wxMimeTextFile
_ZTI14wxOutputStream
_ZTI14wxProcessEvent
_ZTI14wxStreamBuffer
_ZTI14wxThreadModule
_ZTI15wxAppTraitsBase
_ZTI15wxHashTableBase
_ZTI15wxMBConvUTF16BE
_ZTI15wxMBConvUTF16LE
_ZTI15wxMBConvUTF32BE
_ZTI15wxMBConvUTF32LE
_ZTI15wxMessageOutput
_ZTI15wxStandardPaths
_ZTI15wxZipEntryList_
_ZTI16wxConnectionBase
_ZTI16wxFontMapperBase
_ZTI16wxLocalFSHandler
_ZTI16wxLogPassThrough
_ZTI16wxObjectListNode
_ZTI16wxRawInputStream
_ZTI16wxStackFrameBase
_ZTI16wxStringListBase
_ZTI16wxStringListNode
_ZTI16wxTarInputStream
_ZTI16wxTeeInputStream
_ZTI16wxZipInputStream
_ZTI17wxDummyConsoleApp
_ZTI17wxFileInputStream
_ZTI17wxFilterFSHandler
_ZTI17wxMBConvUTF16Base
_ZTI17wxMBConvUTF32Base
_ZTI17wxPipeInputStream
_ZTI17wxStackWalkerBase
_ZTI17wxStringTokenizer
_ZTI17wxTarClassFactory
_ZTI17wxTarOutputStream
_ZTI17wxVariantDataBool
_ZTI17wxVariantDataChar
_ZTI17wxVariantDataList
_ZTI17wxVariantDataLong
_ZTI17wxZipClassFactory
_ZTI17wxZipOutputStream
_ZTI17wxZlibInputStream
_ZTI18wxArchiveFSHandler
_ZTI18wxConsoleAppTraits
_ZTI18wxDateTimeWorkDays
_ZTI18wxFFileInputStream
_ZTI18wxFileOutputStream
_ZTI18wxFileSystemModule
_ZTI18wxFontMapperModule
_ZTI18wxGzipClassFactory
_ZTI18wxMessageOutputLog
_ZTI18wxTextOutputStream
_ZTI18wxwxModuleListNode
_ZTI18wxZlibClassFactory
_ZTI18wxZlibInputStream2
_ZTI18wxZlibOutputStream
_ZTI19wxBackedInputStream
_ZTI19wxEncodingConverter
_ZTI19wxFFileOutputStream
_ZTI19wxFileSystemHandler
_ZTI19wxFilterInputStream
_ZTI19wxMemoryInputStream
_ZTI19wxMessageOutputBest
_ZTI19wxMimeTypeCmnModule
_ZTI19wxStandardPathsBase
_ZTI19wxStoredInputStream
_ZTI19wxStringInputStream
_ZTI19wxVariantDataString
_ZTI19wxVariantDoubleData
_ZTI19wxZlibOutputStream2
_ZTI20wxArchiveInputStream
_ZTI20wxDirTraverserSimple
_ZTI20wxFilterClassFactory
_ZTI20wxFilterOutputStream
_ZTI20wxMemoryOutputStream
_ZTI20wxMessageOutputDebug
_ZTI20wxStoredOutputStream
_ZTI20wxStringOutputStream
_ZTI20wxThreadHelperThread
_ZTI20wxVariantDataVoidPtr
_ZTI21wxArchiveClassFactory
_ZTI21wxArchiveOutputStream
_ZTI21wxBufferedInputStream
_ZTI21wxClientDataContainer
_ZTI21wxConvBrokenFileNames
_ZTI21wxDirTraverserSumSize
_ZTI21wxMemoryFSHandlerBase
_ZTI21wxMessageOutputStderr
_ZTI21wxPluginLibraryModule
_ZTI21wxVariantDataDateTime
_ZTI21wxwxZipEntryList_Node
_ZTI22wxBufferedOutputStream
_ZTI22wxConsoleAppTraitsBase
_ZTI22wxCountingOutputStream
_ZTI22wxMimeTypesManagerImpl
_ZTI22wxTempFileOutputStream
_ZTI23wxDirTraverserFindFirst
_ZTI24wxDateTimeHolidaysModule
_ZTI24wxFilterClassFactoryBase
_ZTI24wxVariantDataArrayString
_ZTI24wxVariantDataWxObjectPtr
_ZTI25wxMimeTypesManagerFactory
_ZTI26wxDateTimeHolidayAuthority
_ZTI5wxLog
_ZTI5wxURI
_ZTI6wxList
_ZTI7wxEvent
_ZTI8wxCSConv
_ZTI8wxFSFile
_ZTI8wxLocale
_ZTI8wxMBConv
_ZTI8wxModule
_ZTI8wxObject
_ZTI8wxThread
_ZTI9wxProcess
_ZTI9wxVariant
_ZTIN10wxFileType17MessageParametersE
_ZTS10wxConvAuto
_ZTS10wxListBase
_ZTS10wxLogChain
_ZTS10wxNodeBase
_ZTS10wxTarEntry
_ZTS10wxTextFile
_ZTS10wxZipEntry
_ZTS11wxAppTraits
_ZTS11wxHashTable
_ZTS11wxLogBuffer
_ZTS11wxLogStderr
_ZTS11wxLogStream
_ZTS12MemFSHashObj
_ZTS12wxAppConsole
_ZTS12wxClientBase
_ZTS12wxConfigBase
_ZTS12wxEvtHandler
_ZTS12wxFileConfig
_ZTS12wxFileStream
_ZTS12wxFileSystem
_ZTS12wxMBConvLibc
_ZTS12wxMBConvUTF7
_ZTS12wxMBConvUTF8
_ZTS12wxMemoryText
_ZTS12wxModuleList
_ZTS12wxObjectList
_ZTS12wxServerBase
_ZTS12wxStackFrame
_ZTS12wxStreamBase
_ZTS12wxStringList
_ZTS12wxTextBuffer
_ZTS13wxFFileStream
_ZTS13wxInputStream
_ZTS13wxStackWalker
_ZTS13wxVariantData
_ZTS14wxArchiveEntry
_ZTS14wxDirTraverser
_ZTS14wxLocaleModule
_ZTS14wxMBConv_iconv
_ZTS14wxMBConv_wxwin
_ZTS14wxMemoryConfig
_ZTS14wxMimeTextFile
_ZTS14wxOutputStream
_ZTS14wxProcessEvent
_ZTS14wxStreamBuffer
_ZTS14wxThreadModule
_ZTS15wxAppTraitsBase
_ZTS15wxHashTableBase
_ZTS15wxMBConvUTF16BE
_ZTS15wxMBConvUTF16LE
_ZTS15wxMBConvUTF32BE
_ZTS15wxMBConvUTF32LE
_ZTS15wxMessageOutput
_ZTS15wxStandardPaths
_ZTS15wxZipEntryList_
_ZTS16wxConnectionBase
_ZTS16wxFontMapperBase
_ZTS16wxLocalFSHandler
_ZTS16wxLogPassThrough
_ZTS16wxObjectListNode
_ZTS16wxRawInputStream
_ZTS16wxStackFrameBase
_ZTS16wxStringListBase
_ZTS16wxStringListNode
_ZTS16wxTarInputStream
_ZTS16wxTeeInputStream
_ZTS16wxZipInputStream
_ZTS17wxDummyConsoleApp
_ZTS17wxFileInputStream
_ZTS17wxFilterFSHandler
_ZTS17wxMBConvUTF16Base
_ZTS17wxMBConvUTF32Base
_ZTS17wxPipeInputStream
_ZTS17wxStackWalkerBase
_ZTS17wxStringTokenizer
_ZTS17wxTarClassFactory
_ZTS17wxTarOutputStream
_ZTS17wxVariantDataBool
_ZTS17wxVariantDataChar
_ZTS17wxVariantDataList
_ZTS17wxVariantDataLong
_ZTS17wxZipClassFactory
_ZTS17wxZipOutputStream
_ZTS17wxZlibInputStream
_ZTS18wxArchiveFSHandler
_ZTS18wxConsoleAppTraits
_ZTS18wxDateTimeWorkDays
_ZTS18wxFFileInputStream
_ZTS18wxFileOutputStream
_ZTS18wxFileSystemModule
_ZTS18wxFontMapperModule
_ZTS18wxGzipClassFactory
_ZTS18wxMessageOutputLog
_ZTS18wxTextOutputStream
_ZTS18wxwxModuleListNode
_ZTS18wxZlibClassFactory
_ZTS18wxZlibInputStream2
_ZTS18wxZlibOutputStream
_ZTS19wxBackedInputStream
_ZTS19wxEncodingConverter
_ZTS19wxFFileOutputStream
_ZTS19wxFileSystemHandler
_ZTS19wxFilterInputStream
_ZTS19wxMemoryInputStream
_ZTS19wxMessageOutputBest
_ZTS19wxMimeTypeCmnModule
_ZTS19wxStandardPathsBase
_ZTS19wxStoredInputStream
_ZTS19wxStringInputStream
_ZTS19wxVariantDataString
_ZTS19wxVariantDoubleData
_ZTS19wxZlibOutputStream2
_ZTS20wxArchiveInputStream
_ZTS20wxDirTraverserSimple
_ZTS20wxFilterClassFactory
_ZTS20wxFilterOutputStream
_ZTS20wxMemoryOutputStream
_ZTS20wxMessageOutputDebug
_ZTS20wxStoredOutputStream
_ZTS20wxStringOutputStream
_ZTS20wxThreadHelperThread
_ZTS20wxVariantDataVoidPtr
_ZTS21wxArchiveClassFactory
_ZTS21wxArchiveOutputStream
_ZTS21wxBufferedInputStream
_ZTS21wxClientDataContainer
_ZTS21wxConvBrokenFileNames
_ZTS21wxDirTraverserSumSize
_ZTS21wxMemoryFSHandlerBase
_ZTS21wxMessageOutputStderr
_ZTS21wxPluginLibraryModule
_ZTS21wxVariantDataDateTime
_ZTS21wxwxZipEntryList_Node
_ZTS22wxBufferedOutputStream
_ZTS22wxConsoleAppTraitsBase
_ZTS22wxCountingOutputStream
_ZTS22wxMimeTypesManagerImpl
_ZTS22wxTempFileOutputStream
_ZTS23wxDirTraverserFindFirst
_ZTS24wxDateTimeHolidaysModule
_ZTS24wxFilterClassFactoryBase
_ZTS24wxVariantDataArrayString
_ZTS24wxVariantDataWxObjectPtr
_ZTS25wxMimeTypesManagerFactory
_ZTS26wxDateTimeHolidayAuthority
_ZTS5wxLog
_ZTS5wxURI
_ZTS6wxList
_ZTS7wxEvent
_ZTS8wxCSConv
_ZTS8wxFSFile
_ZTS8wxLocale
_ZTS8wxMBConv
_ZTS8wxModule
_ZTS8wxObject
_ZTS8wxThread
_ZTS9wxProcess
_ZTS9wxVariant
_ZTSN10wxFileType17MessageParametersE
_ZTV10wxConvAuto
_ZTV10wxListBase
_ZTV10wxLogChain
_ZTV10wxNodeBase
_ZTV10wxTarEntry
_ZTV10wxTextFile
_ZTV10wxZipEntry
_ZTV11wxAppTraits
_ZTV11wxHashTable
_ZTV11wxLogBuffer
_ZTV11wxLogStderr
_ZTV11wxLogStream
_ZTV12MemFSHashObj
_ZTV12wxAppConsole
_ZTV12wxClientBase
_ZTV12wxConfigBase
_ZTV12wxEvtHandler
_ZTV12wxFileConfig
_ZTV12wxFileStream
_ZTV12wxFileSystem
_ZTV12wxMBConvLibc
_ZTV12wxMBConvUTF7
_ZTV12wxMBConvUTF8
_ZTV12wxMemoryText
_ZTV12wxModuleList
_ZTV12wxObjectList
_ZTV12wxServerBase
_ZTV12wxStackFrame
_ZTV12wxStreamBase
_ZTV12wxStringList
_ZTV12wxTextBuffer
_ZTV13wxFFileStream
_ZTV13wxInputStream
_ZTV13wxStackWalker
_ZTV13wxVariantData
_ZTV14wxArchiveEntry
_ZTV14wxDirTraverser
_ZTV14wxLocaleModule
_ZTV14wxMBConv_iconv
_ZTV14wxMBConv_wxwin
_ZTV14wxMemoryConfig
_ZTV14wxMimeTextFile
_ZTV14wxOutputStream
_ZTV14wxProcessEvent
_ZTV14wxStreamBuffer
_ZTV14wxThreadModule
_ZTV15wxAppTraitsBase
_ZTV15wxHashTableBase
_ZTV15wxMBConvUTF16BE
_ZTV15wxMBConvUTF16LE
_ZTV15wxMBConvUTF32BE
_ZTV15wxMBConvUTF32LE
_ZTV15wxMessageOutput
_ZTV15wxStandardPaths
_ZTV15wxZipEntryList_
_ZTV16wxConnectionBase
_ZTV16wxFontMapperBase
_ZTV16wxLocalFSHandler
_ZTV16wxLogPassThrough
_ZTV16wxObjectListNode
_ZTV16wxRawInputStream
_ZTV16wxStackFrameBase
_ZTV16wxStringListBase
_ZTV16wxStringListNode
_ZTV16wxTarInputStream
_ZTV16wxTeeInputStream
_ZTV16wxZipInputStream
_ZTV17wxDummyConsoleApp
_ZTV17wxFileInputStream
_ZTV17wxFilterFSHandler
_ZTV17wxMBConvUTF16Base
_ZTV17wxMBConvUTF32Base
_ZTV17wxPipeInputStream
_ZTV17wxStackWalkerBase
_ZTV17wxStringTokenizer
_ZTV17wxTarClassFactory
_ZTV17wxTarOutputStream
_ZTV17wxVariantDataBool
_ZTV17wxVariantDataChar
_ZTV17wxVariantDataList
_ZTV17wxVariantDataLong
_ZTV17wxZipClassFactory
_ZTV17wxZipOutputStream
_ZTV17wxZlibInputStream
_ZTV18wxArchiveFSHandler
_ZTV18wxConsoleAppTraits
_ZTV18wxDateTimeWorkDays
_ZTV18wxFFileInputStream
_ZTV18wxFileOutputStream
_ZTV18wxFileSystemModule
_ZTV18wxFontMapperModule
_ZTV18wxGzipClassFactory
_ZTV18wxMessageOutputLog
_ZTV18wxTextOutputStream
_ZTV18wxwxModuleListNode
_ZTV18wxZlibClassFactory
_ZTV18wxZlibInputStream2
_ZTV18wxZlibOutputStream
_ZTV19wxBackedInputStream
_ZTV19wxEncodingConverter
_ZTV19wxFFileOutputStream
_ZTV19wxFileSystemHandler
_ZTV19wxFilterInputStream
_ZTV19wxMemoryInputStream
_ZTV19wxMessageOutputBest
_ZTV19wxMimeTypeCmnModule
_ZTV19wxStandardPathsBase
_ZTV19wxStoredInputStream
_ZTV19wxStringInputStream
_ZTV19wxVariantDataString
_ZTV19wxVariantDoubleData
_ZTV19wxZlibOutputStream2
_ZTV20wxArchiveInputStream
_ZTV20wxDirTraverserSimple
_ZTV20wxFilterClassFactory
_ZTV20wxFilterOutputStream
_ZTV20wxMemoryOutputStream
_ZTV20wxMessageOutputDebug
_ZTV20wxStoredOutputStream
_ZTV20wxStringOutputStream
_ZTV20wxThreadHelperThread
_ZTV20wxVariantDataVoidPtr
_ZTV21wxArchiveClassFactory
_ZTV21wxArchiveOutputStream
_ZTV21wxBufferedInputStream
_ZTV21wxClientDataContainer
_ZTV21wxConvBrokenFileNames
_ZTV21wxDirTraverserSumSize
_ZTV21wxMemoryFSHandlerBase
_ZTV21wxMessageOutputStderr
_ZTV21wxPluginLibraryModule
_ZTV21wxVariantDataDateTime
_ZTV21wxwxZipEntryList_Node
_ZTV22wxBufferedOutputStream
_ZTV22wxConsoleAppTraitsBase
_ZTV22wxCountingOutputStream
_ZTV22wxMimeTypesManagerImpl
_ZTV22wxTempFileOutputStream
_ZTV23wxDirTraverserFindFirst
_ZTV24wxDateTimeHolidaysModule
_ZTV24wxFilterClassFactoryBase
_ZTV24wxVariantDataArrayString
_ZTV24wxVariantDataWxObjectPtr
_ZTV25wxMimeTypesManagerFactory
_ZTV26wxDateTimeHolidayAuthority
_ZTV5wxLog
_ZTV5wxURI
_ZTV6wxList
_ZTV7wxEvent
_ZTV8wxCSConv
_ZTV8wxFSFile
_ZTV8wxLocale
_ZTV8wxMBConv
_ZTV8wxModule
_ZTV8wxObject
_ZTV8wxThread
_ZTV9wxProcess
_ZTV9wxVariant
_ZTVN10wxFileType17MessageParametersE
__bss_start
_edata
_end
_fini
GAddress_copy
GAddress_destroy
GAddress_GetFamily
GAddress_INET_GetHostAddress
GAddress_INET_GetHostName
GAddress_INET_GetPort
GAddress_INET_SetAnyAddress
GAddress_INET_SetHostAddress
GAddress_INET_SetHostName
GAddress_INET_SetPort
GAddress_INET_SetPortName
_GAddress_Init_INET
_GAddress_Init_UNIX
GAddress_new
GAddress_SetFamily
_GAddress_translate_from
_GAddress_translate_to
GAddress_UNIX_GetPath
GAddress_UNIX_SetPath
GSocket_Cleanup
GSocket_Init
GSocket_new
GSocket_SetGUIFunctions
_init
WX_2.8
WX_2.8.1
WX_2.8.2
WX_2.8.4
WX_2.8.5
WX_2.8.7
WX_2.8.8
wxProtocolUsewxFileProto
wxProtocolUsewxFTP
wxProtocolUsewxHTTP
wx_socket_callback
_Z17wxGethostbyaddr_rPKciiP7hostentPviPi
_Z17wxGethostbyname_rPKcP7hostentPviPi
_Z17wxGetservbyname_rPKcS0_P7serventPvi
_Z7GetLineP12wxSocketBaseR8wxString
_ZN10wxProtocol11SetPasswordERK8wxString
_ZN10wxProtocol12ms_classInfoE
_ZN10wxProtocol14GetContentTypeEv
_ZN10wxProtocol7ConnectER13wxSockAddressb
_ZN10wxProtocol7ConnectERK8wxString
_ZN10wxProtocol7SetUserERK8wxString
_ZN10wxProtocol8ReadLineEP12wxSocketBaseR8wxString
_ZN10wxProtocol8ReadLineER8wxString
_ZN10wxProtocol9ReconnectEv
_ZN10wxProtocolC1Ev
_ZN10wxProtocolC2Ev
_ZN10wxProtocolD0Ev
_ZN10wxProtocolD1Ev
_ZN11wxFileProto12ms_classInfoE
_ZN11wxFileProto14GetInputStreamERK8wxString
_ZN11wxFileProto14wxCreateObjectEv
_ZN11wxFileProto19g_proto_wxFileProtoE
_ZN11wxFileProto5AbortEv
_ZN11wxFileProto8GetErrorEv
_ZN11wxFileProtoC1Ev
_ZN11wxFileProtoC2Ev
_ZN11wxFileProtoD0Ev
_ZN11wxFileProtoD1Ev
_ZN11wxFileProtoD2Ev
_ZN11wxIPaddress12ms_classInfoE
_ZN11wxIPaddressC1ERKS_
_ZN11wxIPaddressC1Ev
_ZN11wxIPaddressC2ERKS_
_ZN11wxIPaddressC2Ev
_ZN11wxIPaddressD0Ev
_ZN11wxIPaddressD1Ev
_ZN11wxIPaddressD2Ev
_ZN11wxProtoInfo12ms_classInfoE
_ZN11wxProtoInfoC1EPKcS1_bP11wxClassInfo
_ZN11wxProtoInfoC2EPKcS1_bP11wxClassInfo
_ZN11wxProtoInfoD0Ev
_ZN11wxProtoInfoD1Ev
_ZN11wxTCPClient12ms_classInfoE
_ZN11wxTCPClient14MakeConnectionERK8wxStringS2_S2_
_ZN11wxTCPClient14wxCreateObjectEv
_ZN11wxTCPClient16OnMakeConnectionEv
_ZN11wxTCPClient9ValidHostERK8wxString
_ZN11wxTCPClientC1Ev
_ZN11wxTCPClientC2Ev
_ZN11wxTCPClientD0Ev
_ZN11wxTCPClientD1Ev
_ZN11wxTCPClientD2Ev
_ZN11wxTCPServer12ms_classInfoE
_ZN11wxTCPServer14wxCreateObjectEv
_ZN11wxTCPServer18OnAcceptConnectionERK8wxString
_ZN11wxTCPServer6CreateERK8wxString
_ZN11wxTCPServerC1Ev
_ZN11wxTCPServerC2Ev
_ZN11wxTCPServerD0Ev
_ZN11wxTCPServerD1Ev
_ZN11wxTCPServerD2Ev
_ZN11wxURLModule12ms_classInfoE
_ZN11wxURLModule14wxCreateObjectEv
_ZN11wxURLModule6OnExitEv
_ZN11wxURLModule6OnInitEv
_ZN11wxURLModuleC1Ev
_ZN11wxURLModuleC2Ev
_ZN11wxURLModuleD0Ev
_ZN11wxURLModuleD1Ev
_ZN12wxEvtHandler12TryValidatorER7wxEvent
_ZN12wxHTTPStream9OnSysReadEPvj
_ZN12wxHTTPStreamD0Ev
_ZN12wxHTTPStreamD1Ev
_ZN12wxObjectList10CreateNodeEP10wxNodeBaseS1_PvRK9wxListKey
_ZN12wxObjectListD0Ev
_ZN12wxObjectListD1Ev
_ZN12wxSocketBase10InitializeEv
_ZN12wxSocketBase10SetTimeoutEl
_ZN12wxSocketBase11GetPushbackEPvjb
_ZN12wxSocketBase11m_countInitE
_ZN12wxSocketBase11WaitForLostEll
_ZN12wxSocketBase11WaitForReadEll
_ZN12wxSocketBase12ms_classInfoE
_ZN12wxSocketBase12RestoreStateEv
_ZN12wxSocketBase12WaitForWriteEll
_ZN12wxSocketBase13IsInitializedEv
_ZN12wxSocketBase15SetEventHandlerER12wxEvtHandleri
_ZN12wxSocketBase4InitEv
_ZN12wxSocketBase4PeekEPvj
_ZN12wxSocketBase4ReadEPvj
_ZN12wxSocketBase4WaitEll
_ZN12wxSocketBase5CloseEv
_ZN12wxSocketBase5_ReadEPvj
_ZN12wxSocketBase5_WaitElli
_ZN12wxSocketBase5WriteEPKvj
_ZN12wxSocketBase6NotifyEb
_ZN12wxSocketBase6UnreadEPKvj
_ZN12wxSocketBase6_WriteEPKvj
_ZN12wxSocketBase7DestroyEv
_ZN12wxSocketBase7DiscardEv
_ZN12wxSocketBase7ReadMsgEPvj
_ZN12wxSocketBase8PushbackEPKvj
_ZN12wxSocketBase8SetFlagsEi
_ZN12wxSocketBase8SetLocalER13wxIPV4address
_ZN12wxSocketBase8ShutdownEv
_ZN12wxSocketBase8WriteMsgEPKvj
_ZN12wxSocketBase9GetOptionEiiPvPi
_ZN12wxSocketBase9OnRequestE14wxSocketNotify
_ZN12wxSocketBase9SaveStateEv
_ZN12wxSocketBase9SetNotifyEi
_ZN12wxSocketBase9SetOptionEiiPKvi
_ZN12wxSocketBaseC1Ei12wxSocketType
_ZN12wxSocketBaseC1Ev
_ZN12wxSocketBaseC2Ei12wxSocketType
_ZN12wxSocketBaseC2Ev
_ZN12wxSocketBaseD0Ev
_ZN12wxSocketBaseD1Ev
_ZN12wxSocketBaseD2Ev
_ZN13wxIPV4address10AnyAddressEv
_ZN13wxIPV4address12ms_classInfoE
_ZN13wxIPV4address14wxCreateObjectEv
_ZN13wxIPV4address4TypeEv
_ZN13wxIPV4address7ServiceERK8wxString
_ZN13wxIPV4address7ServiceEt
_ZN13wxIPV4address8HostnameEm
_ZN13wxIPV4address8HostnameERK8wxString
_ZN13wxIPV4address9LocalHostEv
_ZN13wxIPV4addressC1ERKS_
_ZN13wxIPV4addressC1Ev
_ZN13wxIPV4addressC2ERKS_
_ZN13wxIPV4addressC2Ev
_ZN13wxIPV4addressD0Ev
_ZN13wxIPV4addressD1Ev
_ZN13wxIPV4addressD2Ev
_ZN13wxSockAddress10SetAddressEP9_GAddress
_ZN13wxSockAddress12ms_classInfoE
_ZN13wxSockAddress4InitEv
_ZN13wxSockAddress5ClearEv
_ZN13wxSockAddressaSERKS_
_ZN13wxSockAddressC1ERKS_
_ZN13wxSockAddressC1Ev
_ZN13wxSockAddressC2ERKS_
_ZN13wxSockAddressC2Ev
_ZN13wxSockAddressD0Ev
_ZN13wxSockAddressD1Ev
_ZN13wxSockAddressD2Ev
_ZN13wxSocketEvent12ms_classInfoE
_ZN13wxSocketEvent14wxCreateObjectEv
_ZN13wxSocketEventD0Ev
_ZN13wxSocketEventD1Ev
_ZN13wxSocketStateD0Ev
_ZN13wxSocketStateD1Ev
_ZN13wxUNIXaddress12ms_classInfoE
_ZN13wxUNIXaddress14wxCreateObjectEv
_ZN13wxUNIXaddress4TypeEv
_ZN13wxUNIXaddress8FilenameERK8wxString
_ZN13wxUNIXaddress8FilenameEv
_ZN13wxUNIXaddressC1ERKS_
_ZN13wxUNIXaddressC1Ev
_ZN13wxUNIXaddressC2ERKS_
_ZN13wxUNIXaddressC2Ev
_ZN13wxUNIXaddressD0Ev
_ZN13wxUNIXaddressD1Ev
_ZN13wxUNIXaddressD2Ev
_ZN14wxOutputStream5CloseEv
_ZN14wxSocketClient12ms_classInfoE
_ZN14wxSocketClient13WaitOnConnectEll
_ZN14wxSocketClient7ConnectER13wxSockAddressb
_ZN14wxSocketClient7ConnectER13wxSockAddressS1_b
_ZN14wxSocketClient9DoConnectER13wxSockAddressPS0_b
_ZN14wxSocketClientC1Ei
_ZN14wxSocketClientC2Ei
_ZN14wxSocketClientD0Ev
_ZN14wxSocketClientD1Ev
_ZN14wxSocketClientD2Ev
_ZN14wxSocketModule12ms_classInfoE
_ZN14wxSocketModule14wxCreateObjectEv
_ZN14wxSocketModule6OnExitEv
_ZN14wxSocketModule6OnInitEv
_ZN14wxSocketModuleD0Ev
_ZN14wxSocketModuleD1Ev
_ZN14wxSocketServer10AcceptWithER12wxSocketBaseb
_ZN14wxSocketServer12ms_classInfoE
_ZN14wxSocketServer13WaitForAcceptEll
_ZN14wxSocketServer6AcceptEb
_ZN14wxSocketServerC1ERK13wxSockAddressi
_ZN14wxSocketServerC2ERK13wxSockAddressi
_ZN14wxSocketServerD0Ev
_ZN14wxSocketServerD1Ev
_ZN14wxSocketStreamC1ER12wxSocketBase
_ZN14wxSocketStreamC2ER12wxSocketBase
_ZN14wxSocketStreamD0Ev
_ZN14wxSocketStreamD1Ev
_ZN14wxSocketStreamD2Ev
_ZN15wxTCPConnection10DisconnectEv
_ZN15wxTCPConnection10StopAdviseERK8wxString
_ZN15wxTCPConnection11StartAdviseERK8wxString
_ZN15wxTCPConnection12ms_classInfoE
_ZN15wxTCPConnection12OnDisconnectEv
_ZN15wxTCPConnection4PokeERK8wxStringPci11wxIPCFormat
_ZN15wxTCPConnection6AdviseERK8wxStringPci11wxIPCFormat
_ZN15wxTCPConnection7ExecuteEPKci11wxIPCFormat
_ZN15wxTCPConnection7ExecuteERK8wxString
_ZN15wxTCPConnection7RequestERK8wxStringPi11wxIPCFormat
_ZN15wxTCPConnection8CompressEb
_ZN15wxTCPConnectionC1EPci
_ZN15wxTCPConnectionC1Ev
_ZN15wxTCPConnectionC2EPci
_ZN15wxTCPConnectionC2Ev
_ZN15wxTCPConnectionD0Ev
_ZN15wxTCPConnectionD1Ev
_ZN15wxTCPConnectionD2Ev
_ZN16wxConnectionBase12OnStopAdviseERK8wxStringS2_
_ZN16wxConnectionBase13OnStartAdviseERK8wxStringS2_
_ZN16wxConnectionBase6OnPokeERK8wxStringS2_Pci11wxIPCFormat
_ZN16wxConnectionBase8OnAdviseERK8wxStringS2_Pci11wxIPCFormat
_ZN16wxConnectionBase9OnExecuteERK8wxStringPci11wxIPCFormat
_ZN16wxConnectionBase9OnRequestERK8wxStringS2_Pi11wxIPCFormat
_ZN16wxDatagramSocket12ms_classInfoE
_ZN16wxDatagramSocket6SendToERK13wxSockAddressPKvj
_ZN16wxDatagramSocket8RecvFromER13wxSockAddressPvj
_ZN16wxDatagramSocketC1ERK13wxSockAddressi
_ZN16wxDatagramSocketC2ERK13wxSockAddressi
_ZN16wxDatagramSocketD0Ev
_ZN16wxDatagramSocketD1Ev
_ZN16wxInputFTPStreamD0Ev
_ZN16wxInputFTPStreamD1Ev
_ZN17wxOutputFTPStreamD0Ev
_ZN17wxOutputFTPStreamD1Ev
_ZN17wxStringTokenizerD0Ev
_ZN17wxStringTokenizerD1Ev
_ZN17wxTCPEventHandler13sm_eventTableE
_ZN17wxTCPEventHandler16Client_OnRequestER13wxSocketEvent
_ZN17wxTCPEventHandler16Server_OnRequestER13wxSocketEvent
_ZN17wxTCPEventHandler17sm_eventHashTableE
_ZN17wxTCPEventHandler20sm_eventTableEntriesE
_ZN17wxTCPEventHandlerD0Ev
_ZN17wxTCPEventHandlerD1Ev
_ZN19wxInternetFSHandler7CanOpenERK8wxString
_ZN19wxInternetFSHandler8OpenFileER12wxFileSystemRK8wxString
_ZN19wxInternetFSHandlerD0Ev
_ZN19wxInternetFSHandlerD1Ev
_ZN19wxSocketInputStream5SeekIEx10wxSeekMode
_ZN19wxSocketInputStream9OnSysReadEPvj
_ZN19wxSocketInputStreamC1ER12wxSocketBase
_ZN19wxSocketInputStreamC2ER12wxSocketBase
_ZN19wxSocketInputStreamD0Ev
_ZN19wxSocketInputStreamD1Ev
_ZN19wxSocketInputStreamD2Ev
_ZN20wxSocketOutputStream10OnSysWriteEPKvj
_ZN20wxSocketOutputStream5SeekOEx10wxSeekMode
_ZN20wxSocketOutputStreamC1ER12wxSocketBase
_ZN20wxSocketOutputStreamC2ER12wxSocketBase
_ZN20wxSocketOutputStreamD0Ev
_ZN20wxSocketOutputStreamD1Ev
_ZN20wxSocketOutputStreamD2Ev
_ZN20wxThreadHelperThread5EntryEv
_ZN20wxThreadHelperThreadD0Ev
_ZN20wxThreadHelperThreadD1Ev
_ZN23wxStringToStringHashMapixERK8wxString
_ZN23wxTCPEventHandlerModule12ms_classInfoE
_ZN23wxTCPEventHandlerModule14wxCreateObjectEv
_ZN23wxTCPEventHandlerModule6OnExitEv
_ZN23wxTCPEventHandlerModule6OnInitEv
_ZN23wxTCPEventHandlerModuleD0Ev
_ZN23wxTCPEventHandlerModuleD1Ev
_ZN24GSocketGUIFunctionsTableD0Ev
_ZN24GSocketGUIFunctionsTableD1Ev
_ZN26wxFileSystemInternetModule12ms_classInfoE
_ZN26wxFileSystemInternetModule14wxCreateObjectEv
_ZN26wxFileSystemInternetModule6OnExitEv
_ZN26wxFileSystemInternetModule6OnInitEv
_ZN26wxFileSystemInternetModuleD0Ev
_ZN26wxFileSystemInternetModuleD1Ev
_ZN26wxTemporaryFileInputStreamD0Ev
_ZN26wxTemporaryFileInputStreamD1Ev
_ZN28GSocketGUIFunctionsTableNull11Init_SocketEP7GSocket
_ZN28GSocketGUIFunctionsTableNull13Enable_EventsEP7GSocket
_ZN28GSocketGUIFunctionsTableNull14Destroy_SocketEP7GSocket
_ZN28GSocketGUIFunctionsTableNull14Disable_EventsEP7GSocket
_ZN28GSocketGUIFunctionsTableNull15CanUseEventLoopEv
_ZN28GSocketGUIFunctionsTableNull16Install_CallbackEP7GSocket12GSocketEvent
_ZN28GSocketGUIFunctionsTableNull18Uninstall_CallbackEP7GSocket12GSocketEvent
_ZN28GSocketGUIFunctionsTableNull6OnExitEv
_ZN28GSocketGUIFunctionsTableNull6OnInitEv
_ZN28GSocketGUIFunctionsTableNullD0Ev
_ZN28GSocketGUIFunctionsTableNullD1Ev
_ZN50wxStringToStringHashMap_wxImplementation_HashTable10DeleteNodeEP21_wxHashTable_NodeBase
_ZN50wxStringToStringHashMap_wxImplementation_HashTable16GetBucketForNodeEPS_PNS_4NodeE
_ZN5wxFTP10FileExistsERK8wxString
_ZN5wxFTP11GetFileSizeERK8wxString
_ZN5wxFTP11SendCommandERK8wxString
_ZN5wxFTP11SetPasswordERK8wxString
_ZN5wxFTP12ms_classInfoE
_ZN5wxFTP13GetActivePortEv
_ZN5wxFTP13g_proto_wxFTPE
_ZN5wxFTP14AcceptIfActiveEP12wxSocketBase
_ZN5wxFTP14GetInputStreamERK8wxString
_ZN5wxFTP14GetPassivePortEv
_ZN5wxFTP14wxCreateObjectEv
_ZN5wxFTP15DoSimpleCommandEPKcRK8wxString
_ZN5wxFTP15GetOutputStreamERK8wxString
_ZN5wxFTP15SetTransferModeENS_12TransferModeE
_ZN5wxFTP17SetDefaultTimeoutEj
_ZN5wxFTP18GetPortCmdArgumentERK13wxIPV4addressS2_
_ZN5wxFTP3PwdEv
_ZN5wxFTP5AbortEv
_ZN5wxFTP5ChDirERK8wxString
_ZN5wxFTP5CloseEv
_ZN5wxFTP5MkDirERK8wxString
_ZN5wxFTP5RmDirERK8wxString
_ZN5wxFTP6RenameERK8wxStringS2_
_ZN5wxFTP6RmFileERK8wxString
_ZN5wxFTP7ConnectER13wxSockAddressb
_ZN5wxFTP7ConnectERK8wxString
_ZN5wxFTP7GetListER13wxArrayStringRK8wxStringb
_ZN5wxFTP7GetPortEv
_ZN5wxFTP7SetUserERK8wxString
_ZN5wxFTP8GetErrorEv
_ZN5wxFTP9GetResultEv
_ZN5wxFTPC1Ev
_ZN5wxFTPC2Ev
_ZN5wxFTPD0Ev
_ZN5wxFTPD1Ev
_ZN5wxFTPD2Ev
_ZN5wxURL12ms_classInfoE
_ZN5wxURL12ms_protocolsE
_ZN5wxURL13FetchProtocolEv
_ZN5wxURL14GetInputStreamEv
_ZN5wxURL15ms_proxyDefaultE
_ZN5wxURL15SetDefaultProxyERK8wxString
_ZN5wxURL18ms_useDefaultProxyE
_ZN5wxURL4InitERK8wxString
_ZN5wxURL8ParseURLEv
_ZN5wxURL8SetProxyERK8wxString
_ZN5wxURL9CleanDataEv
_ZN5wxURLaSERK5wxURI
_ZN5wxURLaSERK8wxString
_ZN5wxURLC1ERK5wxURI
_ZN5wxURLC1ERK8wxString
_ZN5wxURLC2ERK5wxURI
_ZN5wxURLC2ERK8wxString
_ZN5wxURLD0Ev
_ZN5wxURLD1Ev
_ZN5wxURLD2Ev
_ZN6wxHTTP10FindHeaderERK8wxString
_ZN6wxHTTP11SendHeadersEv
_ZN6wxHTTP11SetPasswordERK8wxString
_ZN6wxHTTP12BuildRequestERK8wxStringNS_10wxHTTP_ReqE
_ZN6wxHTTP12ClearHeadersEv
_ZN6wxHTTP12ms_classInfoE
_ZN6wxHTTP12ParseHeadersEv
_ZN6wxHTTP12SetProxyModeEb
_ZN6wxHTTP13SetPostBufferERK8wxString
_ZN6wxHTTP14GetContentTypeEv
_ZN6wxHTTP14GetInputStreamERK8wxString
_ZN6wxHTTP14g_proto_wxHTTPE
_ZN6wxHTTP14wxCreateObjectEv
_ZN6wxHTTP5AbortEv
_ZN6wxHTTP7ConnectER13wxSockAddressb
_ZN6wxHTTP7ConnectERK8wxString
_ZN6wxHTTP7ConnectERK8wxStringt
_ZN6wxHTTP7SetUserERK8wxString
_ZN6wxHTTP8GetErrorEv
_ZN6wxHTTP9SetHeaderERK8wxStringS2_
_ZN6wxHTTPC1Ev
_ZN6wxHTTPC2Ev
_ZN6wxHTTPD0Ev
_ZN6wxHTTPD1Ev
_ZN6wxHTTPD2Ev
_ZN7GSocket10GetSockOptEiiPvPi
_ZN7GSocket10Recv_DgramEPci
_ZN7GSocket10Send_DgramEPKci
_ZN7GSocket10SetSockOptEiiPKvi
_ZN7GSocket10SetTimeoutEm
_ZN7GSocket11Recv_StreamEPci
_ZN7GSocket11Send_StreamEPKci
_ZN7GSocket11SetCallbackEiPFvPS_12GSocketEventPcES2_
_ZN7GSocket11SetReusableEv
_ZN7GSocket13Detected_ReadEv
_ZN7GSocket13Input_TimeoutEv
_ZN7GSocket13UnsetCallbackEi
_ZN7GSocket14Detected_WriteEv
_ZN7GSocket14Output_TimeoutEv
_ZN7GSocket14SetNonBlockingEb
_ZN7GSocket14SetNonOrientedEv
_ZN7GSocket14WaitConnectionEv
_ZN7GSocket4ReadEPci
_ZN7GSocket5CloseEv
_ZN7GSocket5WriteEPKci
_ZN7GSocket6EnableE12GSocketEvent
_ZN7GSocket6SelectEi
_ZN7GSocket7ConnectE13GSocketStream
_ZN7GSocket7DisableE12GSocketEvent
_ZN7GSocket7GetPeerEv
_ZN7GSocket7SetPeerEP9_GAddress
_ZN7GSocket8GetErrorEv
_ZN7GSocket8GetLocalEv
_ZN7GSocket8SetLocalEP9_GAddress
_ZN7GSocket8ShutdownEv
_ZN7GSocket9SetServerEv
_ZN7GSocketC1Ev
_ZN7GSocketC2Ev
_ZN7GSocketD0Ev
_ZN7GSocketD1Ev
_ZN7GSocketD2Ev
_ZN8wxThread6OnExitEv
_ZNK10wxProtocol12GetClassInfoEv
_ZNK11wxClassInfo8IsKindOfEPKS_
_ZNK11wxFileProto12GetClassInfoEv
_ZNK11wxIPaddress12GetClassInfoEv
_ZNK11wxProtoInfo12GetClassInfoEv
_ZNK11wxTCPClient12GetClassInfoEv
_ZNK11wxTCPServer12GetClassInfoEv
_ZNK11wxURLModule12GetClassInfoEv
_ZNK12wxHTTPStream7GetSizeEv
_ZNK12wxObjectList4FindERK9wxListKey
_ZNK12wxSocketBase12GetClassInfoEv
_ZNK12wxSocketBase7GetPeerER13wxSockAddress
_ZNK12wxSocketBase8GetLocalER13wxSockAddress
_ZNK12wxStreamBase10IsSeekableEv
_ZNK12wxStreamBase4IsOkEv
_ZNK12wxStreamBase9GetLengthEv
_ZNK13wxInputStream8LastReadEv
_ZNK13wxIPV4address11IsLocalHostEv
_ZNK13wxIPV4address12GetClassInfoEv
_ZNK13wxIPV4address5CloneEv
_ZNK13wxIPV4address7ServiceEv
_ZNK13wxIPV4address8HostnameEv
_ZNK13wxIPV4address9IPAddressEv
_ZNK13wxIPV4addresseqERKS_
_ZNK13wxSockAddress12GetClassInfoEv
_ZNK13wxSocketEvent12GetClassInfoEv
_ZNK13wxSocketEvent5CloneEv
_ZNK13wxUNIXaddress12GetClassInfoEv
_ZNK13wxUNIXaddress5CloneEv
_ZNK14wxOutputStream9LastWriteEv
_ZNK14wxSocketClient12GetClassInfoEv
_ZNK14wxSocketModule12GetClassInfoEv
_ZNK14wxSocketServer12GetClassInfoEv
_ZNK15wxTCPConnection12GetClassInfoEv
_ZNK16wxDatagramSocket12GetClassInfoEv
_ZNK17wxFileInputStream10IsSeekableEv
_ZNK17wxTCPEventHandler13GetEventTableEv
_ZNK17wxTCPEventHandler17GetEventHashTableEv
_ZNK19wxSocketInputStream5TellIEv
_ZNK20wxSocketOutputStream5TellOEv
_ZNK23wxTCPEventHandlerModule12GetClassInfoEv
_ZNK26wxFileSystemInternetModule12GetClassInfoEv
_ZNK5wxFTP12GetClassInfoEv
_ZNK5wxURL12GetClassInfoEv
_ZNK6wxHTTP10FindHeaderERK8wxString
_ZNK6wxHTTP12GetClassInfoEv
_ZNK6wxHTTP18GenerateAuthStringERK8wxStringS2_
_ZNK6wxHTTP9GetHeaderERK8wxString
_ZThn28_N14wxSocketStreamD0Ev
_ZThn28_N14wxSocketStreamD1Ev
_ZTI10wxProtocol
_ZTI11wxFileProto
_ZTI11wxIPaddress
_ZTI11wxProtoInfo
_ZTI11wxTCPClient
_ZTI11wxTCPServer
_ZTI11wxURLModule
_ZTI12wxHTTPStream
_ZTI12wxObjectList
_ZTI12wxSocketBase
_ZTI13wxIPV4address
_ZTI13wxSockAddress
_ZTI13wxSocketEvent
_ZTI13wxSocketState
_ZTI13wxUNIXaddress
_ZTI14wxSocketClient
_ZTI14wxSocketModule
_ZTI14wxSocketServer
_ZTI14wxSocketStream
_ZTI15wxTCPConnection
_ZTI16wxDatagramSocket
_ZTI16wxInputFTPStream
_ZTI17wxOutputFTPStream
_ZTI17wxStringTokenizer
_ZTI17wxTCPEventHandler
_ZTI19wxInternetFSHandler
_ZTI19wxSocketInputStream
_ZTI20wxSocketOutputStream
_ZTI20wxThreadHelperThread
_ZTI23wxTCPEventHandlerModule
_ZTI24GSocketGUIFunctionsTable
_ZTI26wxFileSystemInternetModule
_ZTI26wxTemporaryFileInputStream
_ZTI28GSocketGUIFunctionsTableNull
_ZTI5wxFTP
_ZTI5wxURL
_ZTI6wxHTTP
_ZTI7GSocket
_ZTS10wxProtocol
_ZTS11wxFileProto
_ZTS11wxIPaddress
_ZTS11wxProtoInfo
_ZTS11wxTCPClient
_ZTS11wxTCPServer
_ZTS11wxURLModule
_ZTS12wxHTTPStream
_ZTS12wxObjectList
_ZTS12wxSocketBase
_ZTS13wxIPV4address
_ZTS13wxSockAddress
_ZTS13wxSocketEvent
_ZTS13wxSocketState
_ZTS13wxUNIXaddress
_ZTS14wxSocketClient
_ZTS14wxSocketModule
_ZTS14wxSocketServer
_ZTS14wxSocketStream
_ZTS15wxTCPConnection
_ZTS16wxDatagramSocket
_ZTS16wxInputFTPStream
_ZTS17wxOutputFTPStream
_ZTS17wxStringTokenizer
_ZTS17wxTCPEventHandler
_ZTS19wxInternetFSHandler
_ZTS19wxSocketInputStream
_ZTS20wxSocketOutputStream
_ZTS20wxThreadHelperThread
_ZTS23wxTCPEventHandlerModule
_ZTS24GSocketGUIFunctionsTable
_ZTS26wxFileSystemInternetModule
_ZTS26wxTemporaryFileInputStream
_ZTS28GSocketGUIFunctionsTableNull
_ZTS5wxFTP
_ZTS5wxURL
_ZTS6wxHTTP
_ZTS7GSocket
_ZTV10wxProtocol
_ZTV11wxFileProto
_ZTV11wxIPaddress
_ZTV11wxProtoInfo
_ZTV11wxTCPClient
_ZTV11wxTCPServer
_ZTV11wxURLModule
_ZTV12wxHTTPStream
_ZTV12wxObjectList
_ZTV12wxSocketBase
_ZTV13wxIPV4address
_ZTV13wxSockAddress
_ZTV13wxSocketEvent
_ZTV13wxSocketState
_ZTV13wxUNIXaddress
_ZTV14wxSocketClient
_ZTV14wxSocketModule
_ZTV14wxSocketServer
_ZTV14wxSocketStream
_ZTV15wxTCPConnection
_ZTV16wxDatagramSocket
_ZTV16wxInputFTPStream
_ZTV17wxOutputFTPStream
_ZTV17wxStringTokenizer
_ZTV17wxTCPEventHandler
_ZTV19wxInternetFSHandler
_ZTV19wxSocketInputStream
_ZTV20wxSocketOutputStream
_ZTV20wxThreadHelperThread
_ZTV23wxTCPEventHandlerModule
_ZTV24GSocketGUIFunctionsTable
_ZTV26wxFileSystemInternetModule
_ZTV26wxTemporaryFileInputStream
_ZTV28GSocketGUIFunctionsTableNull
_ZTV5wxFTP
_ZTV5wxURL
_ZTV6wxHTTP
_ZTV7GSocket
__bss_start
_edata
_end
_fini
_init
WX_2.8
WX_2.8.1
WX_2.8.2
WX_2.8.4
WX_2.8.5
WX_2.8.7
WX_2.8.8
_ZN13wxXmlDocument12ms_classInfoE
_ZN13wxXmlDocument4LoadER13wxInputStreamRK8wxStringi
_ZN13wxXmlDocument4LoadERK8wxStringS2_i
_ZN13wxXmlDocument6DoCopyERKS_
_ZN13wxXmlDocumentaSERKS_
_ZN13wxXmlDocumentC1ER13wxInputStreamRK8wxString
_ZN13wxXmlDocumentC1ERK8wxStringS2_
_ZN13wxXmlDocumentC1ERKS_
_ZN13wxXmlDocumentC1Ev
_ZN13wxXmlDocumentC2ER13wxInputStreamRK8wxString
_ZN13wxXmlDocumentC2ERK8wxStringS2_
_ZN13wxXmlDocumentC2ERKS_
_ZN13wxXmlDocumentC2Ev
_ZN13wxXmlDocumentD0Ev
_ZN13wxXmlDocumentD1Ev
_ZN13wxXmlPropertyD0Ev
_ZN13wxXmlPropertyD1Ev
_ZN20wxThreadHelperThread5EntryEv
_ZN20wxThreadHelperThreadD0Ev
_ZN20wxThreadHelperThreadD1Ev
_ZN8wxThread6OnExitEv
_ZN9wxXmlNode11AddPropertyEP13wxXmlProperty
_ZN9wxXmlNode11AddPropertyERK8wxStringS2_
_ZN9wxXmlNode11InsertChildEPS_S0_
_ZN9wxXmlNode11RemoveChildEPS_
_ZN9wxXmlNode14DeletePropertyERK8wxString
_ZN9wxXmlNode16InsertChildAfterEPS_S0_
_ZN9wxXmlNode6DoCopyERKS_
_ZN9wxXmlNode8AddChildEPS_
_ZN9wxXmlNodeaSERKS_
_ZN9wxXmlNodeC1E13wxXmlNodeTypeRK8wxStringS3_
_ZN9wxXmlNodeC1EPS_13wxXmlNodeTypeRK8wxStringS4_P13wxXmlPropertyS0_
_ZN9wxXmlNodeC1ERKS_
_ZN9wxXmlNodeC2E13wxXmlNodeTypeRK8wxStringS3_
_ZN9wxXmlNodeC2EPS_13wxXmlNodeTypeRK8wxStringS4_P13wxXmlPropertyS0_
_ZN9wxXmlNodeC2ERKS_
_ZN9wxXmlNodeD0Ev
_ZN9wxXmlNodeD1Ev
_ZN9wxXmlNodeD2Ev
_ZNK13wxXmlDocument12GetClassInfoEv
_ZNK13wxXmlDocument4SaveER14wxOutputStreami
_ZNK13wxXmlDocument4SaveERK8wxStringi
_ZNK9wxXmlNode10GetPropValERK8wxStringPS0_
_ZNK9wxXmlNode10GetPropValERK8wxStringS2_
_ZNK9wxXmlNode14GetNodeContentEv
_ZNK9wxXmlNode16IsWhitespaceOnlyEv
_ZNK9wxXmlNode7HasPropERK8wxString
_ZNK9wxXmlNode8GetDepthEPS_
_ZTI13wxXmlDocument
_ZTI13wxXmlProperty
_ZTI20wxThreadHelperThread
_ZTI9wxXmlNode
_ZTS13wxXmlDocument
_ZTS13wxXmlProperty
_ZTS20wxThreadHelperThread
_ZTS9wxXmlNode
_ZTV13wxXmlDocument
_ZTV13wxXmlProperty
_ZTV20wxThreadHelperThread
_ZTV9wxXmlNode
__bss_start
_edata
egg_tray_icon_cancel_message
egg_tray_icon_get_orientation
egg_tray_icon_get_type
egg_tray_icon_new
egg_tray_icon_new_for_screen
egg_tray_icon_send_message
_end
_fini
_init
WX_2.8
WX_2.8.1
WX_2.8.2
WX_2.8.4
WX_2.8.5
WX_2.8.7
WX_2.8.8
wxAnimationCtrlNameStr
wxBitmapComboBoxNameStr
wxEVT_CALCULATE_LAYOUT
wxEVT_CALENDAR_DAY_CHANGED
wxEVT_CALENDAR_DOUBLECLICKED
wxEVT_CALENDAR_MONTH_CHANGED
wxEVT_CALENDAR_SEL_CHANGED
wxEVT_CALENDAR_WEEKDAY_CLICKED
wxEVT_CALENDAR_YEAR_CHANGED
wxEVT_COMMAND_HYPERLINK
wxEVT_DATE_CHANGED
wxEVT_GRID_CELL_BEGIN_DRAG
wxEVT_GRID_CELL_CHANGE
wxEVT_GRID_CELL_LEFT_CLICK
wxEVT_GRID_CELL_LEFT_DCLICK
wxEVT_GRID_CELL_RIGHT_CLICK
wxEVT_GRID_CELL_RIGHT_DCLICK
wxEVT_GRID_COL_MOVE
wxEVT_GRID_COL_SIZE
wxEVT_GRID_EDITOR_CREATED
wxEVT_GRID_EDITOR_HIDDEN
wxEVT_GRID_EDITOR_SHOWN
wxEVT_GRID_LABEL_LEFT_CLICK
wxEVT_GRID_LABEL_LEFT_DCLICK
wxEVT_GRID_LABEL_RIGHT_CLICK
wxEVT_GRID_LABEL_RIGHT_DCLICK
wxEVT_GRID_RANGE_SELECT
wxEVT_GRID_ROW_SIZE
wxEVT_GRID_SELECT_CELL
wxEVT_QUERY_LAYOUT_INFO
wxEVT_SASH_DRAGGED
wxEVT_TASKBAR_LEFT_DCLICK
wxEVT_TASKBAR_LEFT_DOWN
wxEVT_TASKBAR_LEFT_UP
wxEVT_TASKBAR_MOVE
wxEVT_TASKBAR_RIGHT_DCLICK
wxEVT_TASKBAR_RIGHT_DOWN
wxEVT_TASKBAR_RIGHT_UP
wxEVT_WIZARD_CANCEL
wxEVT_WIZARD_FINISHED
wxEVT_WIZARD_HELP
wxEVT_WIZARD_PAGE_CHANGED
wxEVT_WIZARD_PAGE_CHANGING
wxGridNameStr
wxGridNoCellCoords
wxGridNoCellRect
wxGtkAboutDialogOnClose
wxGtkAboutDialogOnLink
wxHyperlinkCtrlNameStr
wxNullAnimation
_Z10wxAboutBoxRK17wxAboutDialogInfo
_Z17wxGenericAboutBoxRK17wxAboutDialogInfo
_Z23gdk_pixbuf_area_updatedP16_GdkPixbufLoaderiiiiP11wxAnimation
_Z23wxCreateFileTipProviderRK8wxStringj
_Z9wxShowTipP8wxWindowP13wxTipProviderb
_ZN10wxFileNameD1Ev
_ZN10wxJoystick10SetCaptureEP8wxWindowi
_ZN10wxJoystick12ms_classInfoE
_ZN10wxJoystick14ReleaseCaptureEv
_ZN10wxJoystick14wxCreateObjectEv
_ZN10wxJoystick18GetNumberJoysticksEv
_ZN10wxJoystick20SetMovementThresholdEi
_ZN10wxJoystickC1Ei
_ZN10wxJoystickC2Ei
_ZN10wxJoystickD0Ev
_ZN10wxJoystickD1Ev
_ZN10wxJoystickD2Ev
_ZN11wxAnimation12ms_classInfoE
_ZN11wxAnimation14wxCreateObjectEv
_ZN11wxAnimation4LoadER13wxInputStream15wxAnimationType
_ZN11wxAnimation5UnRefEv
_ZN11wxAnimation8LoadFileERK8wxString15wxAnimationType
_ZN11wxAnimation9SetPixbufEP19_GdkPixbufAnimation
_ZN11wxAnimationaSERKS_
_ZN11wxAnimationC1EP19_GdkPixbufAnimation
_ZN11wxAnimationC1ERKS_
_ZN11wxAnimationC2EP19_GdkPixbufAnimation
_ZN11wxAnimationC2ERKS_
_ZN11wxAnimationD0Ev
_ZN11wxAnimationD1Ev
_ZN11wxBrushBaseD0Ev
_ZN11wxBrushBaseD1Ev
_ZN11wxDateEvent12ms_classInfoE
_ZN11wxDateEvent14wxCreateObjectEv
_ZN11wxDateEventD0Ev
_ZN11wxDateEventD1Ev
_ZN11wxFrameBase15PositionMenuBarEv
_ZN11wxFrameBase15PositionToolBarEv
_ZN11wxGridEvent12ms_classInfoE
_ZN11wxGridEvent14wxCreateObjectEv
_ZN11wxGridEvent6GetColEv
_ZN11wxGridEvent6GetRowEv
_ZN11wxGridEventC1EiiP8wxObjectiiiibbbbb
_ZN11wxGridEventC2EiiP8wxObjectiiiibbbbb
_ZN11wxGridEventD0Ev
_ZN11wxGridEventD1Ev
_ZN11wxSashEvent12ms_classInfoE
_ZN11wxSashEvent14wxCreateObjectEv
_ZN11wxSashEventD0Ev
_ZN11wxSashEventD1Ev
_ZN11wxSoundBaseD0Ev
_ZN11wxSoundBaseD1Ev
_ZN11wxSoundData6DecRefEv
_ZN11wxSoundData6IncRefEv
_ZN11wxSoundDataD1Ev
_ZN11wxSoundDataD2Ev
_ZN11wxTipDialog13sm_eventTableE
_ZN11wxTipDialog17sm_eventHashTableE
_ZN11wxTipDialog20sm_eventTableEntriesE
_ZN11wxTipDialog9OnNextTipER14wxCommandEvent
_ZN11wxTipDialogC1EP8wxWindowP13wxTipProviderb
_ZN11wxTipDialogC2EP8wxWindowP13wxTipProviderb
_ZN11wxTipDialogD0Ev
_ZN11wxTipDialogD1Ev
_ZN12wxButtonBase10SetDefaultEv
_ZN12wxButtonBase13SetImageLabelERK8wxBitmap
_ZN12wxButtonBase15SetImageMarginsEii
_ZN12wxButtonBaseD0Ev
_ZN12wxButtonBaseD1Ev
_ZN12wxEvtHandler12TryValidatorER7wxEvent
_ZN12wxGridWindow12ms_classInfoE
_ZN12wxGridWindow12OnMouseEventER12wxMouseEvent
_ZN12wxGridWindow12OnMouseWheelER12wxMouseEvent
_ZN12wxGridWindow12ScrollWindowEiiPK6wxRect
_ZN12wxGridWindow13sm_eventTableE
_ZN12wxGridWindow14wxCreateObjectEv
_ZN12wxGridWindow17OnEraseBackgroundER12wxEraseEvent
_ZN12wxGridWindow17sm_eventHashTableE
_ZN12wxGridWindow20sm_eventTableEntriesE
_ZN12wxGridWindow6OnCharER10wxKeyEvent
_ZN12wxGridWindow7OnFocusER12wxFocusEvent
_ZN12wxGridWindow7OnKeyUpER10wxKeyEvent
_ZN12wxGridWindow7OnPaintER12wxPaintEvent
_ZN12wxGridWindow9OnKeyDownER10wxKeyEvent
_ZN12wxGridWindowC1EP6wxGridP20wxGridRowLabelWindowP20wxGridColLabelWindowiRK7wxPointRK6wxSize
_ZN12wxGridWindowC2EP6wxGridP20wxGridRowLabelWindowP20wxGridColLabelWindowiRK7wxPointRK6wxSize
_ZN12wxGridWindowD0Ev
_ZN12wxGridWindowD1Ev
_ZN12wxObjectList10CreateNodeEP10wxNodeBaseS1_PvRK9wxListKey
_ZN12wxObjectListD0Ev
_ZN12wxObjectListD1Ev
_ZN12wxRegionBaseD0Ev
_ZN12wxRegionBaseD1Ev
_ZN12wxSashWindow10DrawSashesER4wxDC
_ZN12wxSashWindow11DrawBordersER4wxDC
_ZN12wxSashWindow11InitColoursEv
_ZN12wxSashWindow11SashHitTestEiii
_ZN12wxSashWindow11SizeWindowsEv
_ZN12wxSashWindow12ms_classInfoE
_ZN12wxSashWindow12OnMouseEventER12wxMouseEvent
_ZN12wxSashWindow13sm_eventTableE
_ZN12wxSashWindow14SetSashVisibleE18wxSashEdgePositionb
_ZN12wxSashWindow14wxCreateObjectEv
_ZN12wxSashWindow15DrawSashTrackerE18wxSashEdgePositionii
_ZN12wxSashWindow15SetMaximumSizeXEi
_ZN12wxSashWindow15SetMaximumSizeYEi
_ZN12wxSashWindow15SetMinimumSizeXEi
_ZN12wxSashWindow15SetMinimumSizeYEi
_ZN12wxSashWindow17sm_eventHashTableE
_ZN12wxSashWindow20sm_eventTableEntriesE
_ZN12wxSashWindow4InitEv
_ZN12wxSashWindow6CreateEP8wxWindowiRK7wxPointRK6wxSizelRK8wxString
_ZN12wxSashWindow6OnSizeER11wxSizeEvent
_ZN12wxSashWindow7OnPaintER12wxPaintEvent
_ZN12wxSashWindow8DrawSashE18wxSashEdgePositionR4wxDC
_ZN12wxSashWindowD0Ev
_ZN12wxSashWindowD1Ev
_ZN12wxSashWindowD2Ev
_ZN12wxStringBaseD2Ev
_ZN12wxWindowBase10SetMaxSizeERK6wxSize
_ZN12wxWindowBase10SetMinSizeERK6wxSize
_ZN12wxWindowBase12GetValidatorEv
_ZN12wxWindowBase12SetSizeHintsEiiiiii
_ZN12wxWindowBase13SetExtraStyleEl
_ZN12wxWindowBase14SetTransparentEh
_ZN12wxWindowBase15AssociateHandleEP10_GtkWidget
_ZN12wxWindowBase15SetFocusFromKbdEv
_ZN12wxWindowBase15SetThemeEnabledEb
_ZN12wxWindowBase16DissociateHandleEv
_ZN12wxWindowBase17CanSetTransparentEv
_ZN12wxWindowBase18SetInitialBestSizeERK6wxSize
_ZN12wxWindowBase19SetAcceleratorTableERK18wxAcceleratorTable
_ZN12wxWindowBase24HasTransparentBackgroundEv
_ZN12wxWindowBase31GetMainWindowOfCompositeControlEv
_ZN12wxWindowBase4ThawEv
_ZN12wxWindowBase6FreezeEv
_ZN12wxWindowBase7SetNameERK8wxString
_ZN12wxWindowBase9PrepareDCER4wxDC
_ZN12wxWizardBase11HasNextPageEP12wxWizardPage
_ZN12wxWizardBase11HasPrevPageEP12wxWizardPage
_ZN12wxWizardBase20TransferDataToWindowEv
_ZN12wxWizardBase22TransferDataFromWindowEv
_ZN12wxWizardBase8ValidateEv
_ZN12wxWizardBaseD0Ev
_ZN12wxWizardBaseD1Ev
_ZN12wxWizardPage12ms_classInfoE
_ZN12wxWizardPage20TransferDataToWindowEv
_ZN12wxWizardPage22TransferDataFromWindowEv
_ZN12wxWizardPage4InitEv
_ZN12wxWizardPage6CreateEP8wxWizardRK8wxBitmapPKc
_ZN12wxWizardPage8ValidateEv
_ZN12wxWizardPageC1EP8wxWizardRK8wxBitmapPKc
_ZN12wxWizardPageC2EP8wxWizardRK8wxBitmapPKc
_ZN12wxWizardPageD0Ev
_ZN12wxWizardPageD1Ev
_ZN13wxTaskBarIcon10RemoveIconEv
_ZN13wxTaskBarIcon12ms_classInfoE
_ZN13wxTaskBarIcon14wxCreateObjectEv
_ZN13wxTaskBarIcon7SetIconERK6wxIconRK8wxString
_ZN13wxTaskBarIcon9OnDestroyER20wxWindowDestroyEvent
_ZN13wxTaskBarIcon9PopupMenuEP6wxMenu
_ZN13wxTaskBarIconC1Ev
_ZN13wxTaskBarIconC2Ev
_ZN13wxTaskBarIconD0Ev
_ZN13wxTaskBarIconD1Ev
_ZN13wxTaskBarIconD2Ev
_ZN13wxTipProvider13PreprocessTipERK8wxString
_ZN13wxTipProviderD0Ev
_ZN13wxTipProviderD1Ev
_ZN13wxWizardEvent12ms_classInfoE
_ZN13wxWizardEvent14wxCreateObjectEv
_ZN13wxWizardEventC1EiibP12wxWizardPage
_ZN13wxWizardEventC2EiibP12wxWizardPage
_ZN13wxWizardEventD0Ev
_ZN13wxWizardEventD1Ev
_ZN13wxWizardSizer11RecalcSizesEv
_ZN13wxWizardSizer11SiblingSizeEP11wxSizerItem
_ZN13wxWizardSizer15GetMaxChildSizeEv
_ZN13wxWizardSizer6InsertEjP11wxSizerItem
_ZN13wxWizardSizer7CalcMinEv
_ZN13wxWizardSizer9HidePagesEv
_ZN13wxWizardSizerC1EP8wxWizard
_ZN13wxWizardSizerC2EP8wxWizard
_ZN13wxWizardSizerD0Ev
_ZN13wxWizardSizerD1Ev
_ZN14wxCalendarCtrl10SetHolidayEj
_ZN14wxCalendarCtrl11InitColoursEv
_ZN14wxCalendarCtrl11RefreshDateERK10wxDateTime
_ZN14wxCalendarCtrl12DoMoveWindowEiiii
_ZN14wxCalendarCtrl12ms_classInfoE
_ZN14wxCalendarCtrl12OnYearChangeER14wxCommandEvent
_ZN14wxCalendarCtrl12SetDateRangeERK10wxDateTimeS2_
_ZN14wxCalendarCtrl13GenerateEventEi
_ZN14wxCalendarCtrl13OnMonthChangeER14wxCommandEvent
_ZN14wxCalendarCtrl13sm_eventTableE
_ZN14wxCalendarCtrl14HighlightRangeEP9wxPaintDCRK10wxDateTimeS4_PK5wxPenPK7wxBrush
_ZN14wxCalendarCtrl14RecalcGeometryEv
_ZN14wxCalendarCtrl14wxCreateObjectEv
_ZN14wxCalendarCtrl15SetHolidayAttrsEv
_ZN14wxCalendarCtrl16EnableYearChangeEb
_ZN14wxCalendarCtrl16OnYearTextChangeER14wxCommandEvent
_ZN14wxCalendarCtrl16SetDateAndNotifyERK10wxDateTime
_ZN14wxCalendarCtrl17EnableMonthChangeEb
_ZN14wxCalendarCtrl17ResetHolidayAttrsEv
_ZN14wxCalendarCtrl17SetLowerDateLimitERK10wxDateTime
_ZN14wxCalendarCtrl17SetUpperDateLimitERK10wxDateTime
_ZN14wxCalendarCtrl17sm_eventHashTableE
_ZN14wxCalendarCtrl18CreateYearSpinCtrlEv
_ZN14wxCalendarCtrl18OnSysColourChangedER23wxSysColourChangedEvent
_ZN14wxCalendarCtrl18SetWindowStyleFlagEl
_ZN14wxCalendarCtrl19CreateMonthComboBoxEv
_ZN14wxCalendarCtrl19ShowCurrentControlsEv
_ZN14wxCalendarCtrl20EnableHolidayDisplayEb
_ZN14wxCalendarCtrl20sm_eventTableEntriesE
_ZN14wxCalendarCtrl25GetClassDefaultAttributesE15wxWindowVariant
_ZN14wxCalendarCtrl4InitEv
_ZN14wxCalendarCtrl4ShowEb
_ZN14wxCalendarCtrl6CreateEP8wxWindowiRK10wxDateTimeRK7wxPointRK6wxSizelRK8wxString
_ZN14wxCalendarCtrl6EnableEb
_ZN14wxCalendarCtrl6OnCharER10wxKeyEvent
_ZN14wxCalendarCtrl7DestroyEv
_ZN14wxCalendarCtrl7HitTestERK7wxPointP10wxDateTimePNS3_7WeekDayE
_ZN14wxCalendarCtrl7OnClickER12wxMouseEvent
_ZN14wxCalendarCtrl7OnPaintER12wxPaintEvent
_ZN14wxCalendarCtrl7SetDateERK10wxDateTime
_ZN14wxCalendarCtrl8OnDClickER12wxMouseEvent
_ZN14wxCalendarCtrl9ChangeDayERK10wxDateTime
_ZN14wxCalendarCtrl9DoSetSizeEiiiii
_ZN14wxCalendarCtrlC1EP8wxWindowiRK10wxDateTimeRK7wxPointRK6wxSizelRK8wxString
_ZN14wxCalendarCtrlC1Ev
_ZN14wxCalendarCtrlC2EP8wxWindowiRK10wxDateTimeRK7wxPointRK6wxSizelRK8wxString
_ZN14wxCalendarCtrlC2Ev
_ZN14wxCalendarCtrlD0Ev
_ZN14wxCalendarCtrlD1Ev
_ZN14wxCalendarCtrlD2Ev
_ZN14wxCheckBoxBase16DoSet3StateValueE15wxCheckBoxState
_ZN14wxCheckBoxBase16DoUpdateWindowUIER15wxUpdateUIEvent
_ZN14wxCheckBoxBase24HasTransparentBackgroundEv
_ZN14wxCheckBoxBaseD0Ev
_ZN14wxCheckBoxBaseD1Ev
_ZN14wxComboBoxBase20SetInsertionPointEndEv
_ZN14wxComboBoxBase6RemoveEll
_ZN14wxComboBoxBaseD0Ev
_ZN14wxComboBoxBaseD1Ev
_ZN14wxGridCellAttr4InitEPS_
_ZN14wxGridCellAttr7SetSizeEii
_ZN14wxGridCellAttr9MergeWithEPS_
_ZN14wxGridCellAttrD0Ev
_ZN14wxGridCellAttrD1Ev
_ZN14wxMemoryDCBase20SelectObjectAsSourceERK8wxBitmap
_ZN14wxMemoryDCBaseD0Ev
_ZN14wxMemoryDCBaseD1Ev
_ZN14wxMenuItemList10CreateNodeEP10wxNodeBaseS1_PvRK9wxListKey
_ZN14wxMenuItemListD0Ev
_ZN14wxMenuItemListD1Ev
_ZN14wxScrollHelper6OnDrawER4wxDC
_ZN14wxSoundBackendD0Ev
_ZN14wxSoundBackendD1Ev
_ZN14wxSplashScreen12ms_classInfoE
_ZN14wxSplashScreen13OnCloseWindowER12wxCloseEvent
_ZN14wxSplashScreen13sm_eventTableE
_ZN14wxSplashScreen14wxCreateObjectEv
_ZN14wxSplashScreen17sm_eventHashTableE
_ZN14wxSplashScreen20sm_eventTableEntriesE
_ZN14wxSplashScreen8OnNotifyER12wxTimerEvent
_ZN14wxSplashScreenC1ERK8wxBitmapliP8wxWindowiRK7wxPointRK6wxSizel
_ZN14wxSplashScreenC2ERK8wxBitmapliP8wxWindowiRK7wxPointRK6wxSizel
_ZN14wxSplashScreenD0Ev
_ZN14wxSplashScreenD1Ev
_ZN14wxSplashScreenD2Ev
_ZN15wxAnimationBase12ms_classInfoE
_ZN15wxAnimationBaseD0Ev
_ZN15wxAnimationBaseD1Ev
_ZN15wxAnimationCtrl12ms_classInfoE
_ZN15wxAnimationCtrl12SetAnimationERK11wxAnimation
_ZN15wxAnimationCtrl13sm_eventTableE
_ZN15wxAnimationCtrl14FitToAnimationEv
_ZN15wxAnimationCtrl14wxCreateObjectEv
_ZN15wxAnimationCtrl17sm_eventHashTableE
_ZN15wxAnimationCtrl18DisplayStaticImageEv
_ZN15wxAnimationCtrl19SetBackgroundColourERK8wxColour
_ZN15wxAnimationCtrl20sm_eventTableEntriesE
_ZN15wxAnimationCtrl23ClearToBackgroundColourEv
_ZN15wxAnimationCtrl4InitEv
_ZN15wxAnimationCtrl4PlayEv
_ZN15wxAnimationCtrl4StopEv
_ZN15wxAnimationCtrl6CreateEP8wxWindowiRK11wxAnimationRK7wxPointRK6wxSizelRK8wxString
_ZN15wxAnimationCtrl7OnTimerER12wxTimerEvent
_ZN15wxAnimationCtrl8LoadFileERK8wxString15wxAnimationType
_ZN15wxAnimationCtrl9ResetAnimEv
_ZN15wxAnimationCtrl9ResetIterEv
_ZN15wxAnimationCtrlD0Ev
_ZN15wxAnimationCtrlD1Ev
_ZN15wxAnimationCtrlD2Ev
_ZN15wxCalendarEvent12ms_classInfoE
_ZN15wxCalendarEvent14wxCreateObjectEv
_ZN15wxCalendarEventD0Ev
_ZN15wxCalendarEventD1Ev
_ZN15wxComboCtrlBase31GetMainWindowOfCompositeControlEv
_ZN15wxGridSelection10SelectCellEiibbbbb
_ZN15wxGridSelection10UpdateColsEji
_ZN15wxGridSelection10UpdateRowsEji
_ZN15wxGridSelection11IsSelectionEv
_ZN15wxGridSelection11SelectBlockEiiiibbbbb
_ZN15wxGridSelection12BlockContainEiiiiiiii
_ZN15wxGridSelection13IsInSelectionEii
_ZN15wxGridSelection14ClearSelectionEv
_ZN15wxGridSelection16SetSelectionModeEN6wxGrid20wxGridSelectionModesE
_ZN15wxGridSelection19ToggleCellSelectionEiibbbb
_ZN15wxGridSelection9SelectColEibbbb
_ZN15wxGridSelection9SelectRowEibbbb
_ZN15wxGridSelectionC1EP6wxGridNS0_20wxGridSelectionModesE
_ZN15wxGridSelectionC2EP6wxGridNS0_20wxGridSelectionModesE
_ZN15wxGridSizeEvent12ms_classInfoE
_ZN15wxGridSizeEvent14wxCreateObjectEv
_ZN15wxGridSizeEventC1EiiP8wxObjectiiibbbb
_ZN15wxGridSizeEventC2EiiP8wxObjectiiibbbb
_ZN15wxGridSizeEventD0Ev
_ZN15wxGridSizeEventD1Ev
_ZN15wxGridTableBase10AppendColsEj
_ZN15wxGridTableBase10AppendRowsEj
_ZN15wxGridTableBase10DeleteColsEjj
_ZN15wxGridTableBase10DeleteRowsEjj
_ZN15wxGridTableBase10InsertColsEjj
_ZN15wxGridTableBase10InsertRowsEjj
_ZN15wxGridTableBase10SetColAttrEP14wxGridCellAttri
_ZN15wxGridTableBase10SetRowAttrEP14wxGridCellAttri
_ZN15wxGridTableBase11GetTypeNameEii
_ZN15wxGridTableBase12ms_classInfoE
_ZN15wxGridTableBase13CanGetValueAsEiiRK8wxString
_ZN15wxGridTableBase13CanSetValueAsEiiRK8wxString
_ZN15wxGridTableBase14GetValueAsBoolEii
_ZN15wxGridTableBase14GetValueAsLongEii
_ZN15wxGridTableBase14SetValueAsBoolEiib
_ZN15wxGridTableBase14SetValueAsLongEiil
_ZN15wxGridTableBase15SetAttrProviderEP22wxGridCellAttrProvider
_ZN15wxGridTableBase16GetColLabelValueEi
_ZN15wxGridTableBase16GetRowLabelValueEi
_ZN15wxGridTableBase16GetValueAsCustomEiiRK8wxString
_ZN15wxGridTableBase16GetValueAsDoubleEii
_ZN15wxGridTableBase16SetColLabelValueEiRK8wxString
_ZN15wxGridTableBase16SetRowLabelValueEiRK8wxString
_ZN15wxGridTableBase16SetValueAsCustomEiiRK8wxStringPv
_ZN15wxGridTableBase16SetValueAsDoubleEiid
_ZN15wxGridTableBase17CanHaveAttributesEv
_ZN15wxGridTableBase5ClearEv
_ZN15wxGridTableBase7GetAttrEiiN14wxGridCellAttr10wxAttrKindE
_ZN15wxGridTableBase7SetAttrEP14wxGridCellAttrii
_ZN15wxGridTableBase7SetViewEP6wxGrid
_ZN15wxGridTableBaseC1Ev
_ZN15wxGridTableBaseC2Ev
_ZN15wxGridTableBaseD0Ev
_ZN15wxGridTableBaseD1Ev
_ZN15wxGridTableBaseD2Ev
_ZN15wxHyperlinkCtrl10OnLeftDownER12wxMouseEvent
_ZN15wxHyperlinkCtrl11OnPopUpCopyER14wxCommandEvent
_ZN15wxHyperlinkCtrl12ms_classInfoE
_ZN15wxHyperlinkCtrl13DoContextMenuERK7wxPoint
_ZN15wxHyperlinkCtrl13OnLeaveWindowER12wxMouseEvent
_ZN15wxHyperlinkCtrl13sm_eventTableE
_ZN15wxHyperlinkCtrl14wxCreateObjectEv
_ZN15wxHyperlinkCtrl15SetNormalColourERK8wxColour
_ZN15wxHyperlinkCtrl16SetVisitedColourERK8wxColour
_ZN15wxHyperlinkCtrl17sm_eventHashTableE
_ZN15wxHyperlinkCtrl20sm_eventTableEntriesE
_ZN15wxHyperlinkCtrl6CreateEP8wxWindowiRK8wxStringS4_RK7wxPointRK6wxSizelS4_
_ZN15wxHyperlinkCtrl6OnSizeER11wxSizeEvent
_ZN15wxHyperlinkCtrl7OnPaintER12wxPaintEvent
_ZN15wxHyperlinkCtrl8OnLeftUpER12wxMouseEvent
_ZN15wxHyperlinkCtrl8OnMotionER12wxMouseEvent
_ZN15wxHyperlinkCtrl9OnRightUpER12wxMouseEvent
_ZN15wxHyperlinkCtrlD0Ev
_ZN15wxHyperlinkCtrlD1Ev
_ZN15wxSizerItemList10CreateNodeEP10wxNodeBaseS1_PvRK9wxListKey
_ZN15wxSizerItemListD0Ev
_ZN15wxSizerItemListD1Ev
_ZN16wxBitmapComboBox10PostCreateEv
_ZN16wxBitmapComboBox11OnAddBitmapERK8wxBitmap
_ZN16wxBitmapComboBox12ms_classInfoE
_ZN16wxBitmapComboBox13SetItemBitmapEjRK8wxBitmap
_ZN16wxBitmapComboBox13sm_eventTableE
_ZN16wxBitmapComboBox14DoInsertBitmapERK8wxBitmapj
_ZN16wxBitmapComboBox14wxCreateObjectEv
_ZN16wxBitmapComboBox15DetermineIndentEv
_ZN16wxBitmapComboBox17DoAppendWithImageERK8wxStringRK8wxBitmap
_ZN16wxBitmapComboBox17DoInsertWithImageERK8wxStringRK8wxBitmapj
_ZN16wxBitmapComboBox17sm_eventHashTableE
_ZN16wxBitmapComboBox20sm_eventTableEntriesE
_ZN16wxBitmapComboBox4InitEv
_ZN16wxBitmapComboBox5ClearEv
_ZN16wxBitmapComboBox6CreateEP8wxWindowiRK8wxStringRK7wxPointRK6wxSizeiPS3_lRK11wxValidatorS4_
_ZN16wxBitmapComboBox6CreateEP8wxWindowiRK8wxStringRK7wxPointRK6wxSizeRK13wxArrayStringlRK11wxValidatorS4_
_ZN16wxBitmapComboBox6DeleteEj
_ZN16wxBitmapComboBox6InsertERK8wxStringRK8wxBitmapjP12wxClientData
_ZN16wxBitmapComboBox6InsertERK8wxStringRK8wxBitmapjPv
_ZN16wxBitmapComboBox6OnSizeER11wxSizeEvent
_ZN16wxBitmapComboBox7SetFontERK6wxFont
_ZN16wxBitmapComboBox8DoAppendERK8wxString
_ZN16wxBitmapComboBox8DoInsertERK8wxStringj
_ZN16wxBitmapComboBoxC1EP8wxWindowiRK8wxStringRK7wxPointRK6wxSizeRK13wxArrayStringlRK11wxValidatorS4_
_ZN16wxBitmapComboBoxC2EP8wxWindowiRK8wxStringRK7wxPointRK6wxSizeRK13wxArrayStringlRK11wxValidatorS4_
_ZN16wxBitmapComboBoxD0Ev
_ZN16wxBitmapComboBoxD1Ev
_ZN16wxBitmapComboBoxD2Ev
_ZN16wxDatePickerCtrl12ms_classInfoE
_ZN16wxDatePickerCtrl14wxCreateObjectEv
_ZN16wxDatePickerCtrlD0Ev
_ZN16wxDatePickerCtrlD1Ev
_ZN16wxGridCellEditor11StartingKeyER10wxKeyEvent
_ZN16wxGridCellEditor12HandleReturnER10wxKeyEvent
_ZN16wxGridCellEditor13IsAcceptedKeyER10wxKeyEvent
_ZN16wxGridCellEditor13StartingClickEv
_ZN16wxGridCellEditor15PaintBackgroundERK6wxRectP14wxGridCellAttr
_ZN16wxGridCellEditor4ShowEbP14wxGridCellAttr
_ZN16wxGridCellEditor6CreateEP8wxWindowiP12wxEvtHandler
_ZN16wxGridCellEditor7DestroyEv
_ZN16wxGridCellEditor7SetSizeERK6wxRect
_ZN16wxGridCellEditorC1Ev
_ZN16wxGridCellEditorC2Ev
_ZN16wxGridCellEditorD0Ev
_ZN16wxGridCellEditorD1Ev
_ZN16wxGridCellEditorD2Ev
_ZN16wxGridCellWorker13SetParametersERK8wxString
_ZN16wxGridCellWorkerD0Ev
_ZN16wxGridCellWorkerD1Ev
_ZN16wxGridCellWorkerD2Ev
_ZN16wxHyperlinkEvent12ms_classInfoE
_ZN16wxHyperlinkEvent14wxCreateObjectEv
_ZN16wxHyperlinkEventD0Ev
_ZN16wxHyperlinkEventD1Ev
_ZN16wxJoystickThread5EntryEv
_ZN16wxJoystickThreadC1Eii
_ZN16wxJoystickThreadC2Eii
_ZN16wxJoystickThreadD0Ev
_ZN16wxJoystickThreadD1Ev
_ZN16wxScrolledWindow16DoSetVirtualSizeEii
_ZN16wxScrolledWindow6LayoutEv
_ZN16wxScrolledWindow9PrepareDCER4wxDC
_ZN17wxExtHelpMapEntryD0Ev
_ZN17wxExtHelpMapEntryD1Ev
_ZN17wxFileTipProvider6GetTipEv
_ZN17wxFileTipProviderC1ERK8wxStringj
_ZN17wxFileTipProviderC2ERK8wxStringj
_ZN17wxFileTipProviderD0Ev
_ZN17wxFileTipProviderD1Ev
_ZN17wxGridStringArray3AddERK13wxArrayStringj
_ZN17wxGridStringArray6DoCopyERKS_
_ZN17wxGridStringArray6InsertERK13wxArrayStringjj
_ZN17wxGridStringArray7DoEmptyEv
_ZN17wxGridStringArray8RemoveAtEjj
_ZN17wxGridStringArrayaSERKS_
_ZN17wxGridStringArrayC1ERKS_
_ZN17wxGridStringArrayC2ERKS_
_ZN17wxGridStringArrayD1Ev
_ZN17wxGridStringArrayD2Ev
_ZN17wxGridStringTable10AppendColsEj
_ZN17wxGridStringTable10AppendRowsEj
_ZN17wxGridStringTable10DeleteColsEjj
_ZN17wxGridStringTable10DeleteRowsEjj
_ZN17wxGridStringTable10InsertColsEjj
_ZN17wxGridStringTable10InsertRowsEjj
_ZN17wxGridStringTable11IsEmptyCellEii
_ZN17wxGridStringTable12ms_classInfoE
_ZN17wxGridStringTable13GetNumberColsEv
_ZN17wxGridStringTable13GetNumberRowsEv
_ZN17wxGridStringTable14wxCreateObjectEv
_ZN17wxGridStringTable16GetColLabelValueEi
_ZN17wxGridStringTable16GetRowLabelValueEi
_ZN17wxGridStringTable16SetColLabelValueEiRK8wxString
_ZN17wxGridStringTable16SetRowLabelValueEiRK8wxString
_ZN17wxGridStringTable5ClearEv
_ZN17wxGridStringTable8GetValueEii
_ZN17wxGridStringTable8SetValueEiiRK8wxString
_ZN17wxGridStringTableC1Eii
_ZN17wxGridStringTableC1Ev
_ZN17wxGridStringTableC2Eii
_ZN17wxGridStringTableC2Ev
_ZN17wxGridStringTableD0Ev
_ZN17wxGridStringTableD1Ev
_ZN17wxGridStringTableD2Ev
_ZN17wxLayoutAlgorithm11LayoutFrameEP7wxFrameP8wxWindow
_ZN17wxLayoutAlgorithm12LayoutWindowEP8wxWindowS1_
_ZN17wxLayoutAlgorithm14LayoutMDIFrameEP16wxMDIParentFrameP6wxRect
_ZN17wxLayoutAlgorithmD0Ev
_ZN17wxLayoutAlgorithmD1Ev
_ZN17wxSoundBackendOSS4PlayEP11wxSoundDatajPV21wxSoundPlaybackStatus
_ZN17wxSoundBackendOSS4StopEv
_ZN17wxSoundBackendOSS7InitDSPEiPK11wxSoundData
_ZN17wxSoundBackendOSS7OpenDSPEPK11wxSoundData
_ZN17wxSoundBackendOSSD0Ev
_ZN17wxSoundBackendOSSD1Ev
_ZN17wxStringTokenizerD0Ev
_ZN17wxStringTokenizerD1Ev
_ZN17wxTaskBarIconArea11OnMenuEventER14wxCommandEvent
_ZN17wxTaskBarIconArea11SetTrayIconERK8wxBitmap
_ZN17wxTaskBarIconArea12OnMouseEventER12wxMouseEvent
_ZN17wxTaskBarIconArea12OnSizeChangeER11wxSizeEvent
_ZN17wxTaskBarIconArea13sm_eventTableE
_ZN17wxTaskBarIconArea17sm_eventHashTableE
_ZN17wxTaskBarIconArea20sm_eventTableEntriesE
_ZN17wxTaskBarIconArea21SetLegacyWMPropertiesEv
_ZN17wxTaskBarIconArea7OnPaintER12wxPaintEvent
_ZN17wxTaskBarIconAreaC1EP13wxTaskBarIconRK8wxBitmap
_ZN17wxTaskBarIconAreaC2EP13wxTaskBarIconRK8wxBitmap
_ZN17wxTaskBarIconAreaD0Ev
_ZN17wxTaskBarIconAreaD1Ev
_ZN17wxTaskBarIconBase13sm_eventTableE
_ZN17wxTaskBarIconBase15CreatePopupMenuEv
_ZN17wxTaskBarIconBase17OnRightButtonDownER18wxTaskBarIconEvent
_ZN17wxTaskBarIconBase17sm_eventHashTableE
_ZN17wxTaskBarIconBase20sm_eventTableEntriesE
_ZN17wxTaskBarIconBaseD0Ev
_ZN17wxTaskBarIconBaseD1Ev
_ZN18wxDataObjectSimple7SetDataEjPKv
_ZN18wxDataObjectSimple7SetDataERK12wxDataFormatjPKv
_ZN18wxDataObjectSimpleD0Ev
_ZN18wxDataObjectSimpleD1Ev
_ZN18wxGridCellAttrData14UpdateAttrColsEji
_ZN18wxGridCellAttrData14UpdateAttrRowsEji
_ZN18wxGridCellAttrData7SetAttrEP14wxGridCellAttrii
_ZN18wxGridCellRenderer4DrawER6wxGridR14wxGridCellAttrR4wxDCRK6wxRectiib
_ZN18wxGridCellRendererD0Ev
_ZN18wxGridCellRendererD1Ev
_ZN18wxGridTableMessageC1EP15wxGridTableBaseiii
_ZN18wxGridTableMessageC1Ev
_ZN18wxGridTableMessageC2EP15wxGridTableBaseiii
_ZN18wxGridTableMessageC2Ev
_ZN18wxGridTypeRegistry11GetRendererEi
_ZN18wxGridTypeRegistry12FindDataTypeERK8wxString
_ZN18wxGridTypeRegistry16RegisterDataTypeERK8wxStringP18wxGridCellRendererP16wxGridCellEditor
_ZN18wxGridTypeRegistry19FindOrCloneDataTypeERK8wxString
_ZN18wxGridTypeRegistry22FindRegisteredDataTypeERK8wxString
_ZN18wxGridTypeRegistry9GetEditorEi
_ZN18wxGridTypeRegistryD1Ev
_ZN18wxGridTypeRegistryD2Ev
_ZN18wxSashLayoutWindow12ms_classInfoE
_ZN18wxSashLayoutWindow13sm_eventTableE
_ZN18wxSashLayoutWindow17OnCalculateLayoutER22wxCalculateLayoutEvent
_ZN18wxSashLayoutWindow17OnQueryLayoutInfoER22wxQueryLayoutInfoEvent
_ZN18wxSashLayoutWindow17sm_eventHashTableE
_ZN18wxSashLayoutWindow20sm_eventTableEntriesE
_ZN18wxSashLayoutWindow4InitEv
_ZN18wxSashLayoutWindow6CreateEP8wxWindowiRK7wxPointRK6wxSizelRK8wxString
_ZN18wxSashLayoutWindowD0Ev
_ZN18wxSashLayoutWindowD1Ev
_ZN18wxSoundBackendNull4PlayEP11wxSoundDatajPV21wxSoundPlaybackStatus
_ZN18wxSoundBackendNull4StopEv
_ZN18wxSoundBackendNullD0Ev
_ZN18wxSoundBackendNullD1Ev
_ZN18wxTaskBarIconEventD0Ev
_ZN18wxTaskBarIconEventD1Ev
_ZN18wxWizardPageSimple12ms_classInfoE
_ZN18wxWizardPageSimple14wxCreateObjectEv
_ZN18wxWizardPageSimpleD0Ev
_ZN18wxWizardPageSimpleD1Ev
_ZN19wxAnimationCtrlBase12ms_classInfoE
_ZN19wxAnimationCtrlBase17SetInactiveBitmapERK8wxBitmap
_ZN19wxAnimationCtrlBase17UpdateStaticImageEv
_ZN19wxAnimationCtrlBaseD0Ev
_ZN19wxAnimationCtrlBaseD1Ev
_ZN19wxExtHelpController10DeleteListEv
_ZN19wxExtHelpController10InitializeERK8wxString
_ZN19wxExtHelpController10InitializeERK8wxStringi
_ZN19wxExtHelpController10SetBrowserERK8wxStringb
_ZN19wxExtHelpController11DisplayHelpERK8wxString
_ZN19wxExtHelpController12DisplayBlockEl
_ZN19wxExtHelpController12ms_classInfoE
_ZN19wxExtHelpController13KeywordSearchERK8wxString16wxHelpSearchMode
_ZN19wxExtHelpController14DisplaySectionEi
_ZN19wxExtHelpController14DisplaySectionERK8wxString
_ZN19wxExtHelpController15DisplayContentsEv
_ZN19wxExtHelpController16ParseMapFileLineERK8wxString
_ZN19wxExtHelpController18GetFrameParametersEP6wxSizeP7wxPointPb
_ZN19wxExtHelpController18SetFrameParametersERK8wxStringRK6wxSizeRK7wxPointb
_ZN19wxExtHelpController4QuitEv
_ZN19wxExtHelpController6OnQuitEv
_ZN19wxExtHelpController8LoadFileERK8wxString
_ZN19wxExtHelpController9SetViewerERK8wxStringl
_ZN19wxExtHelpControllerC1EP8wxWindow
_ZN19wxExtHelpControllerC2EP8wxWindow
_ZN19wxExtHelpControllerD0Ev
_ZN19wxExtHelpControllerD1Ev
_ZN19wxExtHelpControllerD2Ev
_ZN20wxBitmapComboBoxBaseD0Ev
_ZN20wxBitmapComboBoxBaseD1Ev
_ZN20wxCalendarComboPopup10GetControlEv
_ZN20wxCalendarComboPopup11OnSelChangeER15wxCalendarEvent
_ZN20wxCalendarComboPopup13SendDateEventERK10wxDateTime
_ZN20wxCalendarComboPopup13sm_eventTableE
_ZN20wxCalendarComboPopup14SetStringValueERK8wxString
_ZN20wxCalendarComboPopup15GetAdjustedSizeEiii
_ZN20wxCalendarComboPopup15OnKillTextFocusER12wxFocusEvent
_ZN20wxCalendarComboPopup17sm_eventHashTableE
_ZN20wxCalendarComboPopup20sm_eventTableEntriesE
_ZN20wxCalendarComboPopup4InitEv
_ZN20wxCalendarComboPopup6CreateEP8wxWindow
_ZN20wxCalendarComboPopup8OnCalKeyER10wxKeyEvent
_ZN20wxCalendarComboPopup9SetFormatEPKc
_ZN20wxCalendarComboPopupD0Ev
_ZN20wxCalendarComboPopupD1Ev
_ZN20wxDatePickerCtrlBaseD0Ev
_ZN20wxDatePickerCtrlBaseD1Ev
_ZN20wxGenericAboutDialog10AddControlEP8wxWindow
_ZN20wxGenericAboutDialog10AddControlEP8wxWindowRK12wxSizerFlags
_ZN20wxGenericAboutDialog18AddCollapsiblePaneERK8wxStringS2_
_ZN20wxGenericAboutDialog19DoAddCustomControlsEv
_ZN20wxGenericAboutDialog6CreateERK17wxAboutDialogInfo
_ZN20wxGenericAboutDialog7AddTextERK8wxString
_ZN20wxGenericAboutDialogD0Ev
_ZN20wxGenericAboutDialogD1Ev
_ZN20wxGridCellBoolEditor11IsTrueValueERK8wxString
_ZN20wxGridCellBoolEditor11StartingKeyER10wxKeyEvent
_ZN20wxGridCellBoolEditor13IsAcceptedKeyER10wxKeyEvent
_ZN20wxGridCellBoolEditor13StartingClickEv
_ZN20wxGridCellBoolEditor15ms_stringValuesE
_ZN20wxGridCellBoolEditor15UseStringValuesERK8wxStringS2_
_ZN20wxGridCellBoolEditor4ShowEbP14wxGridCellAttr
_ZN20wxGridCellBoolEditor5ResetEv
_ZN20wxGridCellBoolEditor6CreateEP8wxWindowiP12wxEvtHandler
_ZN20wxGridCellBoolEditor7EndEditEiiP6wxGrid
_ZN20wxGridCellBoolEditor7SetSizeERK6wxRect
_ZN20wxGridCellBoolEditor9BeginEditEiiP6wxGrid
_ZN20wxGridCellBoolEditorD0Ev
_ZN20wxGridCellBoolEditorD1Ev
_ZN20wxGridCellEnumEditor7EndEditEiiP6wxGrid
_ZN20wxGridCellEnumEditor9BeginEditEiiP6wxGrid
_ZN20wxGridCellEnumEditorC1ERK8wxString
_ZN20wxGridCellEnumEditorC2ERK8wxString
_ZN20wxGridCellEnumEditorD0Ev
_ZN20wxGridCellEnumEditorD1Ev
_ZN20wxGridCellTextEditor11DoBeginEditERK8wxString
_ZN20wxGridCellTextEditor11StartingKeyER10wxKeyEvent
_ZN20wxGridCellTextEditor12HandleReturnER10wxKeyEvent
_ZN20wxGridCellTextEditor13IsAcceptedKeyER10wxKeyEvent
_ZN20wxGridCellTextEditor13SetParametersERK8wxString
_ZN20wxGridCellTextEditor15PaintBackgroundERK6wxRectP14wxGridCellAttr
_ZN20wxGridCellTextEditor5ResetEv
_ZN20wxGridCellTextEditor6CreateEP8wxWindowiP12wxEvtHandler
_ZN20wxGridCellTextEditor7DoResetERK8wxString
_ZN20wxGridCellTextEditor7EndEditEiiP6wxGrid
_ZN20wxGridCellTextEditor7SetSizeERK6wxRect
_ZN20wxGridCellTextEditor9BeginEditEiiP6wxGrid
_ZN20wxGridCellTextEditorC1Ev
_ZN20wxGridCellTextEditorC2Ev
_ZN20wxGridCellTextEditorD0Ev
_ZN20wxGridCellTextEditorD1Ev
_ZN20wxGridColLabelWindow12ms_classInfoE
_ZN20wxGridColLabelWindow12OnMouseEventER12wxMouseEvent
_ZN20wxGridColLabelWindow12OnMouseWheelER12wxMouseEvent
_ZN20wxGridColLabelWindow13sm_eventTableE
_ZN20wxGridColLabelWindow14wxCreateObjectEv
_ZN20wxGridColLabelWindow17sm_eventHashTableE
_ZN20wxGridColLabelWindow20sm_eventTableEntriesE
_ZN20wxGridColLabelWindow6OnCharER10wxKeyEvent
_ZN20wxGridColLabelWindow7OnKeyUpER10wxKeyEvent
_ZN20wxGridColLabelWindow7OnPaintER12wxPaintEvent
_ZN20wxGridColLabelWindow9OnKeyDownER10wxKeyEvent
_ZN20wxGridColLabelWindowC1EP6wxGridiRK7wxPointRK6wxSize
_ZN20wxGridColLabelWindowC2EP6wxGridiRK7wxPointRK6wxSize
_ZN20wxGridColLabelWindowD0Ev
_ZN20wxGridColLabelWindowD1Ev
_ZN20wxGridRowLabelWindow12ms_classInfoE
_ZN20wxGridRowLabelWindow12OnMouseEventER12wxMouseEvent
_ZN20wxGridRowLabelWindow12OnMouseWheelER12wxMouseEvent
_ZN20wxGridRowLabelWindow13sm_eventTableE
_ZN20wxGridRowLabelWindow14wxCreateObjectEv
_ZN20wxGridRowLabelWindow17sm_eventHashTableE
_ZN20wxGridRowLabelWindow20sm_eventTableEntriesE
_ZN20wxGridRowLabelWindow6OnCharER10wxKeyEvent
_ZN20wxGridRowLabelWindow7OnKeyUpER10wxKeyEvent
_ZN20wxGridRowLabelWindow7OnPaintER12wxPaintEvent
_ZN20wxGridRowLabelWindow9OnKeyDownER10wxKeyEvent
_ZN20wxGridRowLabelWindowC1EP6wxGridiRK7wxPointRK6wxSize
_ZN20wxGridRowLabelWindowC2EP6wxGridiRK7wxPointRK6wxSize
_ZN20wxGridRowLabelWindowD0Ev
_ZN20wxGridRowLabelWindowD1Ev
_ZN20wxHelpControllerBase15SetParentWindowEP8wxWindow
_ZN20wxHelpControllerBase16DisplayTextPopupERK8wxStringRK7wxPoint
_ZN20wxHelpControllerBase19DisplayContextPopupEi
_ZN20wxOwnerDrawnComboBox12ms_classInfoE
_ZN20wxOwnerDrawnComboBox12SetSelectionEi
_ZN20wxOwnerDrawnComboBox12SetSelectionEll
_ZN20wxOwnerDrawnComboBox13GetWidestItemEv
_ZN20wxOwnerDrawnComboBox13sm_eventTableE
_ZN20wxOwnerDrawnComboBox14wxCreateObjectEv
_ZN20wxOwnerDrawnComboBox17DoSetPopupControlEP12wxComboPopup
_ZN20wxOwnerDrawnComboBox17sm_eventHashTableE
_ZN20wxOwnerDrawnComboBox18GetWidestItemWidthEv
_ZN20wxOwnerDrawnComboBox19DoSetItemClientDataEjPv
_ZN20wxOwnerDrawnComboBox20sm_eventTableEntriesE
_ZN20wxOwnerDrawnComboBox21DoSetItemClientObjectEjP12wxClientData
_ZN20wxOwnerDrawnComboBox4InitEv
_ZN20wxOwnerDrawnComboBox5ClearEv
_ZN20wxOwnerDrawnComboBox6CreateEP8wxWindowiRK8wxStringRK7wxPointRK6wxSizeiPS3_lRK11wxValidatorS4_
_ZN20wxOwnerDrawnComboBox6CreateEP8wxWindowiRK8wxStringRK7wxPointRK6wxSizelRK11wxValidatorS4_
_ZN20wxOwnerDrawnComboBox6CreateEP8wxWindowiRK8wxStringRK7wxPointRK6wxSizeRK13wxArrayStringlRK11wxValidatorS4_
_ZN20wxOwnerDrawnComboBox6DeleteEj
_ZN20wxOwnerDrawnComboBox6SelectEi
_ZN20wxOwnerDrawnComboBox8DoAppendERK8wxString
_ZN20wxOwnerDrawnComboBox8DoInsertERK8wxStringj
_ZN20wxOwnerDrawnComboBox9SetStringEjRK8wxString
_ZN20wxOwnerDrawnComboBoxC1EP8wxWindowiRK8wxStringRK7wxPointRK6wxSizeRK13wxArrayStringlRK11wxValidatorS4_
_ZN20wxOwnerDrawnComboBoxC2EP8wxWindowiRK8wxStringRK7wxPointRK6wxSizeRK13wxArrayStringlRK11wxValidatorS4_
_ZN20wxOwnerDrawnComboBoxC2Ev
_ZN20wxOwnerDrawnComboBoxD0Ev
_ZN20wxOwnerDrawnComboBoxD1Ev
_ZN20wxOwnerDrawnComboBoxD2Ev
_ZN20wxSoundCleanupModule12ms_classInfoE
_ZN20wxSoundCleanupModule14wxCreateObjectEv
_ZN20wxSoundCleanupModule6OnExitEv
_ZN20wxSoundCleanupModule6OnInitEv
_ZN20wxSoundCleanupModuleD0Ev
_ZN20wxSoundCleanupModuleD1Ev
_ZN20wxSplashScreenWindow12OnMouseEventER12wxMouseEvent
_ZN20wxSplashScreenWindow13sm_eventTableE
_ZN20wxSplashScreenWindow17OnEraseBackgroundER12wxEraseEvent
_ZN20wxSplashScreenWindow17sm_eventHashTableE
_ZN20wxSplashScreenWindow20sm_eventTableEntriesE
_ZN20wxSplashScreenWindow6OnCharER10wxKeyEvent
_ZN20wxSplashScreenWindow7OnPaintER12wxPaintEvent
_ZN20wxSplashScreenWindowC1ERK8wxBitmapP8wxWindowiRK7wxPointRK6wxSizel
_ZN20wxSplashScreenWindowC2ERK8wxBitmapP8wxWindowiRK7wxPointRK6wxSizel
_ZN20wxSplashScreenWindowD0Ev
_ZN20wxSplashScreenWindowD1Ev
_ZN20wxThreadHelperThread5EntryEv
_ZN20wxThreadHelperThreadD0Ev
_ZN20wxThreadHelperThreadD1Ev
_ZN20wxVListBoxComboPopup10CalcWidthsEv
_ZN20wxVListBoxComboPopup10GetControlEv
_ZN20wxVListBoxComboPopup10LazyCreateEv
_ZN20wxVListBoxComboPopup11OnLeftClickER12wxMouseEvent
_ZN20wxVListBoxComboPopup11OnMouseMoveER12wxMouseEvent
_ZN20wxVListBoxComboPopup12SetSelectionEi
_ZN20wxVListBoxComboPopup13sm_eventTableE
_ZN20wxVListBoxComboPopup14SetStringValueERK8wxString
_ZN20wxVListBoxComboPopup15GetAdjustedSizeEiii
_ZN20wxVListBoxComboPopup15OnComboKeyEventER10wxKeyEvent
_ZN20wxVListBoxComboPopup16ClearClientDatasEv
_ZN20wxVListBoxComboPopup16DismissWithEventEv
_ZN20wxVListBoxComboPopup17PaintComboControlER4wxDCRK6wxRect
_ZN20wxVListBoxComboPopup17SendComboBoxEventEi
_ZN20wxVListBoxComboPopup17SetItemClientDataEjPv16wxClientDataType
_ZN20wxVListBoxComboPopup17sm_eventHashTableE
_ZN20wxVListBoxComboPopup18OnComboDoubleClickEv
_ZN20wxVListBoxComboPopup20sm_eventTableEntriesE
_ZN20wxVListBoxComboPopup21StopPartialCompletionEv
_ZN20wxVListBoxComboPopup4InitEv
_ZN20wxVListBoxComboPopup5ClearEv
_ZN20wxVListBoxComboPopup5OnKeyER10wxKeyEvent
_ZN20wxVListBoxComboPopup6AppendERK8wxString
_ZN20wxVListBoxComboPopup6CreateEP8wxWindow
_ZN20wxVListBoxComboPopup6DeleteEj
_ZN20wxVListBoxComboPopup6InsertERK8wxStringi
_ZN20wxVListBoxComboPopup7OnPopupEv
_ZN20wxVListBoxComboPopup8PopulateERK13wxArrayString
_ZN20wxVListBoxComboPopup9HandleKeyEibc
_ZN20wxVListBoxComboPopup9SetStringEiRK8wxString
_ZN20wxVListBoxComboPopupD0Ev
_ZN20wxVListBoxComboPopupD1Ev
_ZN20wxVListBoxComboPopupD2Ev
_ZN21wxCollapsiblePaneBaseD0Ev
_ZN21wxCollapsiblePaneBaseD1Ev
_ZN21wxGridCellCoordsArray3AddERK16wxGridCellCoordsj
_ZN21wxGridCellCoordsArray6DoCopyERKS_
_ZN21wxGridCellCoordsArray6InsertERK16wxGridCellCoordsjj
_ZN21wxGridCellCoordsArray7DoEmptyEv
_ZN21wxGridCellCoordsArray8RemoveAtEjj
_ZN21wxGridCellCoordsArrayaSERKS_
_ZN21wxGridCellCoordsArrayC1ERKS_
_ZN21wxGridCellCoordsArrayC2ERKS_
_ZN21wxGridCellCoordsArrayD1Ev
_ZN21wxGridCellCoordsArrayD2Ev
_ZN21wxGridCellFloatEditor11StartingKeyER10wxKeyEvent
_ZN21wxGridCellFloatEditor13IsAcceptedKeyER10wxKeyEvent
_ZN21wxGridCellFloatEditor13SetParametersERK8wxString
_ZN21wxGridCellFloatEditor5ResetEv
_ZN21wxGridCellFloatEditor6CreateEP8wxWindowiP12wxEvtHandler
_ZN21wxGridCellFloatEditor7EndEditEiiP6wxGrid
_ZN21wxGridCellFloatEditor9BeginEditEiiP6wxGrid
_ZN21wxGridCellFloatEditorC1Eii
_ZN21wxGridCellFloatEditorC2Eii
_ZN21wxGridCellFloatEditorD0Ev
_ZN21wxGridCellFloatEditorD1Ev
_ZN21wxPropertySheetDialog10OnActivateER15wxActivateEvent
_ZN21wxPropertySheetDialog11AddBookCtrlEP7wxSizer
_ZN21wxPropertySheetDialog12LayoutDialogEi
_ZN21wxPropertySheetDialog12ms_classInfoE
_ZN21wxPropertySheetDialog13CreateButtonsEi
_ZN21wxPropertySheetDialog13sm_eventTableE
_ZN21wxPropertySheetDialog14CreateBookCtrlEv
_ZN21wxPropertySheetDialog14wxCreateObjectEv
_ZN21wxPropertySheetDialog17sm_eventHashTableE
_ZN21wxPropertySheetDialog20sm_eventTableEntriesE
_ZN21wxPropertySheetDialog4InitEv
_ZN21wxPropertySheetDialog6CreateEP8wxWindowiRK8wxStringRK7wxPointRK6wxSizelS4_
_ZN21wxPropertySheetDialog6OnIdleER11wxIdleEvent
_ZN21wxPropertySheetDialogD0Ev
_ZN21wxPropertySheetDialogD1Ev
_ZN21wxTaskBarIconAreaBase11DoPopupMenuEP6wxMenuii
_ZN21wxTaskBarIconAreaBase19IsProtocolSupportedEv
_ZN21wxTaskBarIconAreaBaseC1Ev
_ZN21wxTaskBarIconAreaBaseC2Ev
_ZN21wxTaskBarIconAreaBaseD0Ev
_ZN21wxTaskBarIconAreaBaseD1Ev
_ZN22wxCalculateLayoutEvent12ms_classInfoE
_ZN22wxCalculateLayoutEvent14wxCreateObjectEv
_ZN22wxCalculateLayoutEventD0Ev
_ZN22wxCalculateLayoutEventD1Ev
_ZN22wxGridCellAttrProvider10SetColAttrEP14wxGridCellAttri
_ZN22wxGridCellAttrProvider10SetRowAttrEP14wxGridCellAttri
_ZN22wxGridCellAttrProvider14UpdateAttrColsEji
_ZN22wxGridCellAttrProvider14UpdateAttrRowsEji
_ZN22wxGridCellAttrProvider7SetAttrEP14wxGridCellAttrii
_ZN22wxGridCellAttrProvider8InitDataEv
_ZN22wxGridCellAttrProviderC1Ev
_ZN22wxGridCellAttrProviderC2Ev
_ZN22wxGridCellAttrProviderD0Ev
_ZN22wxGridCellAttrProviderD1Ev
_ZN22wxGridCellAttrProviderD2Ev
_ZN22wxGridCellBoolRenderer11GetBestSizeER6wxGridR14wxGridCellAttrR4wxDCii
_ZN22wxGridCellBoolRenderer16ms_sizeCheckMarkE
_ZN22wxGridCellBoolRenderer4DrawER6wxGridR14wxGridCellAttrR4wxDCRK6wxRectiib
_ZN22wxGridCellBoolRendererD0Ev
_ZN22wxGridCellBoolRendererD1Ev
_ZN22wxGridCellChoiceEditor13SetParametersERK8wxString
_ZN22wxGridCellChoiceEditor15PaintBackgroundERK6wxRectP14wxGridCellAttr
_ZN22wxGridCellChoiceEditor5ResetEv
_ZN22wxGridCellChoiceEditor6CreateEP8wxWindowiP12wxEvtHandler
_ZN22wxGridCellChoiceEditor7EndEditEiiP6wxGrid
_ZN22wxGridCellChoiceEditor9BeginEditEiiP6wxGrid
_ZN22wxGridCellChoiceEditorC1EjPK8wxStringb
_ZN22wxGridCellChoiceEditorC1ERK13wxArrayStringb
_ZN22wxGridCellChoiceEditorC2EjPK8wxStringb
_ZN22wxGridCellChoiceEditorC2ERK13wxArrayStringb
_ZN22wxGridCellChoiceEditorD0Ev
_ZN22wxGridCellChoiceEditorD1Ev
_ZN22wxGridCellEnumRenderer11GetBestSizeER6wxGridR14wxGridCellAttrR4wxDCii
_ZN22wxGridCellEnumRenderer13SetParametersERK8wxString
_ZN22wxGridCellEnumRenderer4DrawER6wxGridR14wxGridCellAttrR4wxDCRK6wxRectiib
_ZN22wxGridCellEnumRenderer9GetStringERK6wxGridii
_ZN22wxGridCellEnumRendererC1ERK8wxString
_ZN22wxGridCellEnumRendererC2ERK8wxString
_ZN22wxGridCellEnumRendererD0Ev
_ZN22wxGridCellEnumRendererD1Ev
_ZN22wxGridCellNumberEditor11StartingKeyER10wxKeyEvent
_ZN22wxGridCellNumberEditor13IsAcceptedKeyER10wxKeyEvent
_ZN22wxGridCellNumberEditor13SetParametersERK8wxString
_ZN22wxGridCellNumberEditor5ResetEv
_ZN22wxGridCellNumberEditor6CreateEP8wxWindowiP12wxEvtHandler
_ZN22wxGridCellNumberEditor7EndEditEiiP6wxGrid
_ZN22wxGridCellNumberEditor9BeginEditEiiP6wxGrid
_ZN22wxGridCellNumberEditorC1Eii
_ZN22wxGridCellNumberEditorC2Eii
_ZN22wxGridCellNumberEditorD0Ev
_ZN22wxGridCellNumberEditorD1Ev
_ZN22wxGridRangeSelectEvent12ms_classInfoE
_ZN22wxGridRangeSelectEvent14wxCreateObjectEv
_ZN22wxGridRangeSelectEventC1EiiP8wxObjectRK16wxGridCellCoordsS4_bbbbb
_ZN22wxGridRangeSelectEventC2EiiP8wxObjectRK16wxGridCellCoordsS4_bbbbb
_ZN22wxGridRangeSelectEventD0Ev
_ZN22wxGridRangeSelectEventD1Ev
_ZN22wxGridRowOrColAttrData20UpdateAttrRowsOrColsEji
_ZN22wxGridRowOrColAttrData7SetAttrEP14wxGridCellAttri
_ZN22wxGridRowOrColAttrDataD1Ev
_ZN22wxGridRowOrColAttrDataD2Ev
_ZN22wxQueryLayoutInfoEvent12ms_classInfoE
_ZN22wxQueryLayoutInfoEvent14wxCreateObjectEv
_ZN22wxQueryLayoutInfoEventD0Ev
_ZN22wxQueryLayoutInfoEventD1Ev
_ZN22wxSoundSyncOnlyAdaptor4PlayEP11wxSoundDatajPV21wxSoundPlaybackStatus
_ZN22wxSoundSyncOnlyAdaptor4StopEv
_ZN22wxSoundSyncOnlyAdaptorD0Ev
_ZN22wxSoundSyncOnlyAdaptorD1Ev
_ZN23wxDatePickerCtrlGeneric12SetDateRangeERK10wxDateTimeS2_
_ZN23wxDatePickerCtrlGeneric13sm_eventTableE
_ZN23wxDatePickerCtrlGeneric17sm_eventHashTableE
_ZN23wxDatePickerCtrlGeneric20sm_eventTableEntriesE
_ZN23wxDatePickerCtrlGeneric4InitEv
_ZN23wxDatePickerCtrlGeneric6CreateEP8wxWindowiRK10wxDateTimeRK7wxPointRK6wxSizelRK11wxValidatorRK8wxString
_ZN23wxDatePickerCtrlGeneric6OnSizeER11wxSizeEvent
_ZN23wxDatePickerCtrlGeneric6OnTextER14wxCommandEvent
_ZN23wxDatePickerCtrlGeneric7DestroyEv
_ZN23wxDatePickerCtrlGeneric7OnFocusER12wxFocusEvent
_ZN23wxDatePickerCtrlGeneric8SetRangeERK10wxDateTimeS2_
_ZN23wxDatePickerCtrlGeneric8SetValueERK10wxDateTime
_ZN23wxDatePickerCtrlGenericD0Ev
_ZN23wxDatePickerCtrlGenericD1Ev
_ZN23wxDatePickerCtrlGenericD2Ev
_ZN23wxGridCellFloatRenderer11GetBestSizeER6wxGridR14wxGridCellAttrR4wxDCii
_ZN23wxGridCellFloatRenderer13SetParametersERK8wxString
_ZN23wxGridCellFloatRenderer4DrawER6wxGridR14wxGridCellAttrR4wxDCRK6wxRectiib
_ZN23wxGridCellFloatRenderer9GetStringERK6wxGridii
_ZN23wxGridCellFloatRendererC1Eii
_ZN23wxGridCellFloatRendererC2Eii
_ZN23wxGridCellFloatRendererD0Ev
_ZN23wxGridCellFloatRendererD1Ev
_ZN23wxGridCellWithAttrArray3AddERK18wxGridCellWithAttrj
_ZN23wxGridCellWithAttrArray6DoCopyERKS_
_ZN23wxGridCellWithAttrArray6InsertERK18wxGridCellWithAttrjj
_ZN23wxGridCellWithAttrArray7DoEmptyEv
_ZN23wxGridCellWithAttrArray8RemoveAtEjj
_ZN23wxGridCellWithAttrArrayaSERKS_
_ZN23wxGridCellWithAttrArrayC1ERKS_
_ZN23wxGridCellWithAttrArrayC2ERKS_
_ZN23wxGridCellWithAttrArrayD1Ev
_ZN23wxGridCellWithAttrArrayD2Ev
_ZN23wxGridCornerLabelWindow12ms_classInfoE
_ZN23wxGridCornerLabelWindow12OnMouseEventER12wxMouseEvent
_ZN23wxGridCornerLabelWindow12OnMouseWheelER12wxMouseEvent
_ZN23wxGridCornerLabelWindow13sm_eventTableE
_ZN23wxGridCornerLabelWindow14wxCreateObjectEv
_ZN23wxGridCornerLabelWindow17sm_eventHashTableE
_ZN23wxGridCornerLabelWindow20sm_eventTableEntriesE
_ZN23wxGridCornerLabelWindow6OnCharER10wxKeyEvent
_ZN23wxGridCornerLabelWindow7OnKeyUpER10wxKeyEvent
_ZN23wxGridCornerLabelWindow7OnPaintER12wxPaintEvent
_ZN23wxGridCornerLabelWindow9OnKeyDownER10wxKeyEvent
_ZN23wxGridCornerLabelWindowC1EP6wxGridiRK7wxPointRK6wxSize
_ZN23wxGridCornerLabelWindowC2EP6wxGridiRK7wxPointRK6wxSize
_ZN23wxGridCornerLabelWindowD0Ev
_ZN23wxGridCornerLabelWindowD1Ev
_ZN24wxGridCellNumberRenderer11GetBestSizeER6wxGridR14wxGridCellAttrR4wxDCii
_ZN24wxGridCellNumberRenderer4DrawER6wxGridR14wxGridCellAttrR4wxDCRK6wxRectiib
_ZN24wxGridCellNumberRenderer9GetStringERK6wxGridii
_ZN24wxGridCellNumberRendererD0Ev
_ZN24wxGridCellNumberRendererD1Ev
_ZN24wxGridCellStringRenderer11GetBestSizeER6wxGridR14wxGridCellAttrR4wxDCii
_ZN24wxGridCellStringRenderer13DoGetBestSizeERK14wxGridCellAttrR4wxDCRK8wxString
_ZN24wxGridCellStringRenderer21SetTextColoursAndFontERK6wxGridRK14wxGridCellAttrR4wxDCb
_ZN24wxGridCellStringRenderer4DrawER6wxGridR14wxGridCellAttrR4wxDCRK6wxRectiib
_ZN24wxGridCellStringRendererD0Ev
_ZN24wxGridCellStringRendererD1Ev
_ZN24wxGridEditorCreatedEvent12ms_classInfoE
_ZN24wxGridEditorCreatedEvent14wxCreateObjectEv
_ZN24wxGridEditorCreatedEventC1EiiP8wxObjectiiP9wxControl
_ZN24wxGridEditorCreatedEventC2EiiP8wxObjectiiP9wxControl
_ZN24wxGridEditorCreatedEventD0Ev
_ZN24wxGridEditorCreatedEventD1Ev
_ZN26wxGridCellDateTimeRenderer11GetBestSizeER6wxGridR14wxGridCellAttrR4wxDCii
_ZN26wxGridCellDateTimeRenderer13SetParametersERK8wxString
_ZN26wxGridCellDateTimeRenderer4DrawER6wxGridR14wxGridCellAttrR4wxDCRK6wxRectiib
_ZN26wxGridCellDateTimeRenderer9GetStringERK6wxGridii
_ZN26wxGridCellDateTimeRendererC1ERK8wxStringS2_
_ZN26wxGridCellDateTimeRendererC2ERK8wxStringS2_
_ZN26wxGridCellDateTimeRendererD0Ev
_ZN26wxGridCellDateTimeRendererD1Ev
_ZN26wxGridCellEditorEvtHandler11OnKillFocusER12wxFocusEvent
_ZN26wxGridCellEditorEvtHandler12ms_classInfoE
_ZN26wxGridCellEditorEvtHandler13sm_eventTableE
_ZN26wxGridCellEditorEvtHandler17sm_eventHashTableE
_ZN26wxGridCellEditorEvtHandler20sm_eventTableEntriesE
_ZN26wxGridCellEditorEvtHandler6OnCharER10wxKeyEvent
_ZN26wxGridCellEditorEvtHandler9OnKeyDownER10wxKeyEvent
_ZN26wxGridCellEditorEvtHandlerD0Ev
_ZN26wxGridCellEditorEvtHandlerD1Ev
_ZN26wxSoundAsyncPlaybackThread5EntryEv
_ZN26wxSoundAsyncPlaybackThreadD0Ev
_ZN26wxSoundAsyncPlaybackThreadD1Ev
_ZN30wxGridCellAutoWrapStringEditor6CreateEP8wxWindowiP12wxEvtHandler
_ZN30wxGridCellAutoWrapStringEditorD0Ev
_ZN30wxGridCellAutoWrapStringEditorD1Ev
_ZN32wxGridCellAutoWrapStringRenderer11GetBestSizeER6wxGridR14wxGridCellAttrR4wxDCii
_ZN32wxGridCellAutoWrapStringRenderer12GetTextLinesER6wxGridR4wxDCRK14wxGridCellAttrRK6wxRectii
_ZN32wxGridCellAutoWrapStringRenderer4DrawER6wxGridR14wxGridCellAttrR4wxDCRK6wxRectiib
_ZN32wxGridCellAutoWrapStringRendererD0Ev
_ZN32wxGridCellAutoWrapStringRendererD1Ev
_ZN46wxLongToLongHashMap_wxImplementation_HashTable10DeleteNodeEP21_wxHashTable_NodeBase
_ZN46wxLongToLongHashMap_wxImplementation_HashTable16GetBucketForNodeEPS_PNS_4NodeE
_ZN46wxLongToLongHashMap_wxImplementation_HashTable8CopyNodeEPNS_4NodeE
_ZN6wxGrid10AppendColsEib
_ZN6wxGrid10AppendRowsEib
_ZN6wxGrid10CellToRectEii
_ZN6wxGrid10CreateGridEiiNS_20wxGridSelectionModesE
_ZN6wxGrid10DeleteColsEiib
_ZN6wxGrid10DeleteRowsEiib
_ZN6wxGrid10GetColSizeEi
_ZN6wxGrid10GetRowSizeEi
_ZN6wxGrid10InsertColsEiib
_ZN6wxGrid10InsertRowsEiib
_ZN6wxGrid10MovePageUpEv
_ZN6wxGrid10SetColAttrEiP14wxGridCellAttr
_ZN6wxGrid10SetColSizeEii
_ZN6wxGrid10SetRowAttrEiP14wxGridCellAttr
_ZN6wxGrid10SetRowSizeEii
_ZN6wxGrid11DeselectColEi
_ZN6wxGrid11DeselectRowEi
_ZN6wxGrid11GetCellFontEii
_ZN6wxGrid11GetCellSizeEiiPiS0_
_ZN6wxGrid11IsSelectionEv
_ZN6wxGrid11RedimensionER18wxGridTableMessage
_ZN6wxGrid11SelectBlockEiiiib
_ZN6wxGrid11SetCellFontEiiRK6wxFont
_ZN6wxGrid11SetCellSizeEiiii
_ZN6wxGrid11SetReadOnlyEiib
_ZN6wxGrid12DeselectCellEii
_ZN6wxGrid12DrawColLabelER4wxDCi
_ZN6wxGrid12DrawRowLabelER4wxDCi
_ZN6wxGrid12ForceRefreshEv
_ZN6wxGrid12MoveCursorUpEb
_ZN6wxGrid12MovePageDownEv
_ZN6wxGrid12ms_classInfoE
_ZN6wxGrid12SetCellValueEiiRK8wxString
_ZN6wxGrid12SetLabelFontERK6wxFont
_ZN6wxGrid12XToEdgeOfColEi
_ZN6wxGrid12YToEdgeOfRowEi
_ZN6wxGrid13DrawColLabelsER4wxDCRK10wxArrayInt
_ZN6wxGrid13DrawGridSpaceER4wxDC
_ZN6wxGrid13DrawHighlightER4wxDCRK21wxGridCellCoordsArray
_ZN6wxGrid13DrawRowLabelsER4wxDCRK10wxArrayInt
_ZN6wxGrid13EnableEditingEb
_ZN6wxGrid13GetCellEditorEii
_ZN6wxGrid13InitColWidthsEv
_ZN6wxGrid13SetCellEditorEiiP16wxGridCellEditor
_ZN6wxGrid13sm_eventTableE
_ZN6wxGrid13StringToLinesERK8wxStringR13wxArrayString
_ZN6wxGrid14CalcDimensionsEv
_ZN6wxGrid14ClearAttrCacheEv
_ZN6wxGrid14ClearSelectionEv
_ZN6wxGrid14DrawCellBorderER4wxDCRK16wxGridCellCoords
_ZN6wxGrid14EnableDragCellEb
_ZN6wxGrid14GetModelValuesEv
_ZN6wxGrid14GetTextBoxSizeERK4wxDCRK13wxArrayStringPlS6_
_ZN6wxGrid14HighlightBlockEiiii
_ZN6wxGrid14InitRowHeightsEv
_ZN6wxGrid14MoveCursorDownEb
_ZN6wxGrid14MoveCursorLeftEb
_ZN6wxGrid14SetCurrentCellERK16wxGridCellCoords
_ZN6wxGrid14SetModelValuesEv
_ZN6wxGrid14wxCreateObjectEv
_ZN6wxGrid15CalcWindowSizesEv
_ZN6wxGrid15EnableGridLinesEb
_ZN6wxGrid15GetCellOverflowEii
_ZN6wxGrid15GetCellRendererEii
_ZN6wxGrid15MakeCellVisibleEii
_ZN6wxGrid15MoveCursorRightEb
_ZN6wxGrid15SetCellOverflowEiib
_ZN6wxGrid15SetCellRendererEiiP18wxGridCellRenderer
_ZN6wxGrid15SetColLabelSizeEi
_ZN6wxGrid15SetRowLabelSizeEi
_ZN6wxGrid16AutoSizeColOrRowEibb
_ZN6wxGrid16CalcCellsExposedERK8wxRegion
_ZN6wxGrid16ChangeCursorModeENS_10CursorModeEP8wxWindowb
_ZN6wxGrid16DoEndDragMoveColEv
_ZN6wxGrid16DrawAllGridLinesER4wxDCRK8wxRegion
_ZN6wxGrid16DrawGridCellAreaER4wxDCRK21wxGridCellCoordsArray
_ZN6wxGrid16GetCellAlignmentEiiPiS0_
_ZN6wxGrid16GetColLabelValueEi
_ZN6wxGrid16GetRowLabelValueEi
_ZN6wxGrid16RegisterDataTypeERK8wxStringP18wxGridCellRendererP16wxGridCellEditor
_ZN6wxGrid16SetCellAlignmentEiiii
_ZN6wxGrid16SetColFormatBoolEi
_ZN6wxGrid16SetColLabelValueEiRK8wxString
_ZN6wxGrid16SetDefaultEditorEP16wxGridCellEditor
_ZN6wxGrid16SetRowLabelValueEiRK8wxString
_ZN6wxGrid16SetSelectionModeENS_20wxGridSelectionModesE
_ZN6wxGrid17BlockToDeviceRectERK16wxGridCellCoordsS2_
_ZN6wxGrid17CanHaveAttributesEv
_ZN6wxGrid17DrawCellHighlightER4wxDCPK14wxGridCellAttr
_ZN6wxGrid17DrawTextRectangleER4wxDCRK13wxArrayStringRK6wxRectiii
_ZN6wxGrid17DrawTextRectangleER4wxDCRK8wxStringRK6wxRectiii
_ZN6wxGrid17EnableDragColMoveEb
_ZN6wxGrid17EnableDragColSizeEb
_ZN6wxGrid17EnableDragRowSizeEb
_ZN6wxGrid17GetCellTextColourEii
_ZN6wxGrid17GetColGridLinePenEi
_ZN6wxGrid17GetDefaultColSizeEv
_ZN6wxGrid17GetDefaultRowSizeEv
_ZN6wxGrid17GetRowGridLinePenEi
_ZN6wxGrid17MoveCursorUpBlockEb
_ZN6wxGrid17OnEraseBackgroundER12wxEraseEvent
_ZN6wxGrid17SetCellTextColourEiiRK8wxColour
_ZN6wxGrid17SetColFormatFloatEiii
_ZN6wxGrid17SetDefaultColSizeEib
_ZN6wxGrid17SetDefaultRowSizeEib
_ZN6wxGrid17SetGridLineColourERK8wxColour
_ZN6wxGrid17SetOrCalcRowSizesEbb
_ZN6wxGrid17sm_eventHashTableE
_ZN6wxGrid18DoEndDragResizeColEv
_ZN6wxGrid18DoEndDragResizeRowEv
_ZN6wxGrid18EnableDragGridSizeEb
_ZN6wxGrid18GetDefaultCellFontEv
_ZN6wxGrid18SetColFormatCustomEiRK8wxString
_ZN6wxGrid18SetColFormatNumberEi
_ZN6wxGrid18SetColMinimalWidthEii
_ZN6wxGrid18SetDefaultCellFontERK6wxFont
_ZN6wxGrid18SetDefaultRendererEP18wxGridCellRenderer
_ZN6wxGrid18SetLabelTextColourERK8wxColour
_ZN6wxGrid19HideCellEditControlEv
_ZN6wxGrid19MoveCursorDownBlockEb
_ZN6wxGrid19MoveCursorLeftBlockEb
_ZN6wxGrid19ProcessTableMessageER18wxGridTableMessage
_ZN6wxGrid19SetRowMinimalHeightEii
_ZN6wxGrid19ShowCellEditControlEv
_ZN6wxGrid20AutoSizeColLabelSizeEi
_ZN6wxGrid20AutoSizeRowLabelSizeEi
_ZN6wxGrid20CalcColLabelsExposedERK8wxRegion
_ZN6wxGrid20CalcRowLabelsExposedERK8wxRegion
_ZN6wxGrid20GetColLabelAlignmentEPiS0_
_ZN6wxGrid20GetRowLabelAlignmentEPiS0_
_ZN6wxGrid20MoveCursorRightBlockEb
_ZN6wxGrid20SaveEditControlValueEv
_ZN6wxGrid20SetColLabelAlignmentEii
_ZN6wxGrid20SetOrCalcColumnSizesEbb
_ZN6wxGrid20SetRowLabelAlignmentEii
_ZN6wxGrid20sm_eventTableEntriesE
_ZN6wxGrid21EnableCellEditControlEb
_ZN6wxGrid21GetDefaultGridLinePenEv
_ZN6wxGrid22GetDefaultCellOverflowEv
_ZN6wxGrid22SetCellHighlightColourERK8wxColour
_ZN6wxGrid22SetDefaultCellOverflowEb
_ZN6wxGrid23GetCellBackgroundColourEii
_ZN6wxGrid23GetDefaultCellAlignmentEPiS0_
_ZN6wxGrid23SetCellBackgroundColourEiiRK8wxColour
_ZN6wxGrid23SetDefaultCellAlignmentEii
_ZN6wxGrid24GetDefaultCellTextColourEv
_ZN6wxGrid24SetCellHighlightPenWidthEi
_ZN6wxGrid24SetDefaultCellTextColourERK8wxColour
_ZN6wxGrid24SetLabelBackgroundColourERK8wxColour
_ZN6wxGrid25ProcessColLabelMouseEventER12wxMouseEvent
_ZN6wxGrid25ProcessGridCellMouseEventER12wxMouseEvent
_ZN6wxGrid25ProcessRowLabelMouseEventER12wxMouseEvent
_ZN6wxGrid26GetColLabelTextOrientationEv
_ZN6wxGrid26SetCellHighlightROPenWidthEi
_ZN6wxGrid26SetColLabelTextOrientationEi
_ZN6wxGrid28CalcColOrRowLabelAreaMinSizeEb
_ZN6wxGrid28ProcessCornerLabelMouseEventER12wxMouseEvent
_ZN6wxGrid28SetColMinimalAcceptableWidthEi
_ZN6wxGrid29SetRowMinimalAcceptableHeightEi
_ZN6wxGrid30GetDefaultCellBackgroundColourEv
_ZN6wxGrid30SetDefaultCellBackgroundColourERK8wxColour
_ZN6wxGrid3FitEv
_ZN6wxGrid4InitEv
_ZN6wxGrid6CreateEP8wxWindowiRK7wxPointRK6wxSizelRK8wxString
_ZN6wxGrid6CreateEv
_ZN6wxGrid6EnableEb
_ZN6wxGrid6OnCharER10wxKeyEvent
_ZN6wxGrid6OnSizeER11wxSizeEvent
_ZN6wxGrid6XToColEib
_ZN6wxGrid6YToRowEi
_ZN6wxGrid7OnKeyUpER10wxKeyEvent
_ZN6wxGrid7OnPaintER12wxPaintEvent
_ZN6wxGrid7RefreshEbPK6wxRect
_ZN6wxGrid7SetAttrEiiP14wxGridCellAttr
_ZN6wxGrid8AutoSizeEv
_ZN6wxGrid8DrawCellER4wxDCRK16wxGridCellCoords
_ZN6wxGrid8EndBatchEv
_ZN6wxGrid8SetTableEP15wxGridTableBasebNS_20wxGridSelectionModesE
_ZN6wxGrid8XYToCellEiiR16wxGridCellCoords
_ZN6wxGrid9ClearGridEv
_ZN6wxGrid9IsVisibleEiib
_ZN6wxGrid9OnKeyDownER10wxKeyEvent
_ZN6wxGrid9SelectAllEv
_ZN6wxGrid9SelectColEib
_ZN6wxGrid9SelectRowEib
_ZN6wxGrid9SendEventEiii
_ZN6wxGrid9SendEventEiiiR12wxMouseEvent
_ZN6wxGrid9SetColPosEii
_ZN6wxGridC1EP8wxWindowiRK7wxPointRK6wxSizelRK8wxString
_ZN6wxGridC1Ev
_ZN6wxGridC2EP8wxWindowiRK7wxPointRK6wxSizelRK8wxString
_ZN6wxGridC2Ev
_ZN6wxGridD0Ev
_ZN6wxGridD1Ev
_ZN6wxGridD2Ev
_ZN7wxSound10ms_backendE
_ZN7wxSound13EnsureBackendEv
_ZN7wxSound13UnloadBackendEv
_ZN7wxSound4FreeEv
_ZN7wxSound4StopEv
_ZN7wxSound6CreateEiPKh
_ZN7wxSound6CreateERK8wxStringb
_ZN7wxSound7LoadWAVEPKhjb
_ZN7wxSound9IsPlayingEv
_ZN7wxSoundC1EiPKh
_ZN7wxSoundC1ERK8wxStringb
_ZN7wxSoundC1Ev
_ZN7wxSoundC2EiPKh
_ZN7wxSoundC2ERK8wxStringb
_ZN7wxSoundC2Ev
_ZN7wxSoundD0Ev
_ZN7wxSoundD1Ev
_ZN7wxSoundD2Ev
_ZN8wxThread6OnExitEv
_ZN8wxWindow14OnParentEnableEb
_ZN8wxWindow15FixUpMouseEventEP10_GtkWidgetRiS2_
_ZN8wxWindow8SetLabelERK8wxString
_ZN8wxWizard10OnWizEventER13wxWizardEvent
_ZN8wxWizard11SetPageSizeERK6wxSize
_ZN8wxWizard12AddBitmapRowEP10wxBoxSizer
_ZN8wxWizard12AddButtonRowEP10wxBoxSizer
_ZN8wxWizard12ms_classInfoE
_ZN8wxWizard12OnBackOrNextER14wxCommandEvent
_ZN8wxWizard13AddStaticLineEP10wxBoxSizer
_ZN8wxWizard13sm_eventTableE
_ZN8wxWizard14wxCreateObjectEv
_ZN8wxWizard15AddBackNextPairEP10wxBoxSizer
_ZN8wxWizard16DoCreateControlsEv
_ZN8wxWizard17sm_eventHashTableE
_ZN8wxWizard20sm_eventTableEntriesE
_ZN8wxWizard4InitEv
_ZN8wxWizard6CreateEP8wxWindowiRK8wxStringRK8wxBitmapRK7wxPointl
_ZN8wxWizard6OnHelpER14wxCommandEvent
_ZN8wxWizard8OnCancelER14wxCommandEvent
_ZN8wxWizard8ShowPageEP12wxWizardPageb
_ZN8wxWizard9FitToPageEPK12wxWizardPage
_ZN8wxWizard9RunWizardEP12wxWizardPage
_ZN8wxWizard9SetBitmapERK8wxBitmap
_ZN8wxWizard9SetBorderEi
_ZN8wxWizardD0Ev
_ZN8wxWizardD1Ev
_ZN8wxWizardD2Ev
_ZNK10wxJoystick10GetMaxAxesEv
_ZNK10wxJoystick10HasPOV4DirEv
_ZNK10wxJoystick11GetPositionEv
_ZNK10wxJoystick12GetClassInfoEv
_ZNK10wxJoystick12GetProductIdEv
_ZNK10wxJoystick12GetRudderMaxEv
_ZNK10wxJoystick12GetRudderMinEv
_ZNK10wxJoystick12GetUPositionEv
_ZNK10wxJoystick12GetVPositionEv
_ZNK10wxJoystick12GetZPositionEv
_ZNK10wxJoystick13GetMaxButtonsEv
_ZNK10wxJoystick13GetNumberAxesEv
_ZNK10wxJoystick13GetPollingMaxEv
_ZNK10wxJoystick13GetPollingMinEv
_ZNK10wxJoystick14GetButtonStateEv
_ZNK10wxJoystick14GetPOVPositionEv
_ZNK10wxJoystick14GetProductNameEv
_ZNK10wxJoystick16GetNumberButtonsEv
_ZNK10wxJoystick17GetManufacturerIdEv
_ZNK10wxJoystick17GetPOVCTSPositionEv
_ZNK10wxJoystick17GetRudderPositionEv
_ZNK10wxJoystick20GetMovementThresholdEv
_ZNK10wxJoystick4HasUEv
_ZNK10wxJoystick4HasVEv
_ZNK10wxJoystick4HasZEv
_ZNK10wxJoystick4IsOkEv
_ZNK10wxJoystick6HasPOVEv
_ZNK10wxJoystick7GetUMaxEv
_ZNK10wxJoystick7GetUMinEv
_ZNK10wxJoystick7GetVMaxEv
_ZNK10wxJoystick7GetVMinEv
_ZNK10wxJoystick7GetXMaxEv
_ZNK10wxJoystick7GetXMinEv
_ZNK10wxJoystick7GetYMaxEv
_ZNK10wxJoystick7GetYMinEv
_ZNK10wxJoystick7GetZMaxEv
_ZNK10wxJoystick7GetZMinEv
_ZNK10wxJoystick9HasPOVCTSEv
_ZNK10wxJoystick9HasRudderEv
_ZNK10wxVListBox20GetDefaultAttributesEv
_ZNK11wxAnimation12GetClassInfoEv
_ZNK11wxAnimation13GetFrameCountEv
_ZNK11wxAnimation4IsOkEv
_ZNK11wxAnimation7GetSizeEv
_ZNK11wxAnimation8GetDelayEj
_ZNK11wxAnimation8GetFrameEj
_ZNK11wxBrushBase7IsHatchEv
_ZNK11wxClassInfo8IsKindOfEPKS_
_ZNK11wxDateEvent12GetClassInfoEv
_ZNK11wxDateEvent5CloneEv
_ZNK11wxFrameBase10GetMenuBarEv
_ZNK11wxFrameBase10GetToolBarEv
_ZNK11wxFrameBase12GetStatusBarEv
_ZNK11wxGridEvent12GetClassInfoEv
_ZNK11wxGridEvent5CloneEv
_ZNK11wxSashEvent12GetClassInfoEv
_ZNK11wxTipDialog13GetEventTableEv
_ZNK11wxTipDialog17GetEventHashTableEv
_ZNK12wxButtonBase20ShouldInheritColoursEv
_ZNK12wxGridWindow12GetClassInfoEv
_ZNK12wxGridWindow13GetEventTableEv
_ZNK12wxGridWindow17GetEventHashTableEv
_ZNK12wxObjectList4FindERK9wxListKey
_ZNK12wxSashWindow12GetClassInfoEv
_ZNK12wxSashWindow13GetEventTableEv
_ZNK12wxSashWindow15GetMaximumSizeXEv
_ZNK12wxSashWindow15GetMaximumSizeYEv
_ZNK12wxSashWindow15GetMinimumSizeXEv
_ZNK12wxSashWindow15GetMinimumSizeYEv
_ZNK12wxSashWindow17GetEventHashTableEv
_ZNK12wxWindowBase10GetMaxSizeEv
_ZNK12wxWindowBase10GetMinSizeEv
_ZNK12wxWindowBase10HasCaptureEv
_ZNK12wxWindowBase13GetDropTargetEv
_ZNK12wxWindowBase15GetThemeEnabledEv
_ZNK12wxWindowBase16HasMultiplePagesEv
_ZNK12wxWindowBase18GetBackgroundStyleEv
_ZNK12wxWindowBase18GetBestVirtualSizeEv
_ZNK12wxWindowBase18GetWindowStyleFlagEv
_ZNK12wxWindowBase20GetDefaultAttributesEv
_ZNK12wxWindowBase20ShouldInheritColoursEv
_ZNK12wxWindowBase24AcceptsFocusFromKeyboardEv
_ZNK12wxWindowBase27GetWindowSizeForVirtualSizeERK6wxSize
_ZNK12wxWindowBase7GetNameEv
_ZNK12wxWindowBase7IsShownEv
_ZNK12wxWindowBase8IsFrozenEv
_ZNK12wxWindowBase9IsEnabledEv
_ZNK12wxWizardPage12GetClassInfoEv
_ZNK12wxWizardPage9GetBitmapEv
_ZNK13wxControlBase20ShouldInheritColoursEv
_ZNK13wxNotifyEvent5CloneEv
_ZNK13wxTaskBarIcon12GetClassInfoEv
_ZNK13wxTaskBarIcon15IsIconInstalledEv
_ZNK13wxTaskBarIcon4IsOkEv
_ZNK13wxWizardEvent12GetClassInfoEv
_ZNK13wxWizardSizer9GetBorderEv
_ZNK14wxCalendarCtrl10ChangeYearEP10wxDateTime
_ZNK14wxCalendarCtrl11ChangeMonthEP10wxDateTime
_ZNK14wxCalendarCtrl11IsDateShownERK10wxDateTime
_ZNK14wxCalendarCtrl12GetClassInfoEv
_ZNK14wxCalendarCtrl12GetDateCoordERK10wxDateTimePiS3_
_ZNK14wxCalendarCtrl12GetStartDateEv
_ZNK14wxCalendarCtrl13DoGetBestSizeEv
_ZNK14wxCalendarCtrl13DoGetPositionEPiS0_
_ZNK14wxCalendarCtrl13GetEventTableEv
_ZNK14wxCalendarCtrl13IsDateInRangeERK10wxDateTime
_ZNK14wxCalendarCtrl14GetYearControlEv
_ZNK14wxCalendarCtrl15GetMonthControlEv
_ZNK14wxCalendarCtrl17GetEventHashTableEv
_ZNK14wxCalendarCtrl20GetDefaultAttributesEv
_ZNK14wxCalendarCtrl7GetWeekERK10wxDateTime
_ZNK14wxCalendarCtrl9DoGetSizeEPiS0_
_ZNK14wxCheckBoxBase16DoGet3StateValueEv
_ZNK14wxComboBoxBase19GetCurrentSelectionEv
_ZNK14wxCommandEvent5CloneEv
_ZNK14wxGridCellAttr11GetRendererEP6wxGridii
_ZNK14wxGridCellAttr12GetAlignmentEPiS0_
_ZNK14wxGridCellAttr13GetTextColourEv
_ZNK14wxGridCellAttr19GetBackgroundColourEv
_ZNK14wxGridCellAttr5CloneEv
_ZNK14wxGridCellAttr7GetFontEv
_ZNK14wxGridCellAttr7GetSizeEPiS0_
_ZNK14wxGridCellAttr9GetEditorEP6wxGridii
_ZNK14wxMenuItemList4FindERK9wxListKey
_ZNK14wxSplashScreen12GetClassInfoEv
_ZNK14wxSplashScreen13GetEventTableEv
_ZNK14wxSplashScreen17GetEventHashTableEv
_ZNK15wxAnimationBase12GetClassInfoEv
_ZNK15wxAnimationCtrl12GetAnimationEv
_ZNK15wxAnimationCtrl12GetClassInfoEv
_ZNK15wxAnimationCtrl13DoGetBestSizeEv
_ZNK15wxAnimationCtrl13GetEventTableEv
_ZNK15wxAnimationCtrl17GetEventHashTableEv
_ZNK15wxAnimationCtrl9IsPlayingEv
_ZNK15wxCalendarEvent12GetClassInfoEv
_ZNK15wxGridSizeEvent12GetClassInfoEv
_ZNK15wxGridSizeEvent5CloneEv
_ZNK15wxGridTableBase12GetClassInfoEv
_ZNK15wxGridTableBase7GetViewEv
_ZNK15wxHyperlinkCtrl12GetClassInfoEv
_ZNK15wxHyperlinkCtrl12GetLabelRectEv
_ZNK15wxHyperlinkCtrl13DoGetBestSizeEv
_ZNK15wxHyperlinkCtrl13GetEventTableEv
_ZNK15wxHyperlinkCtrl17GetEventHashTableEv
_ZNK15wxSizerItemList4FindERK9wxListKey
_ZNK16wxBitmapComboBox10OnDrawItemER4wxDCRK6wxRectii
_ZNK16wxBitmapComboBox12GetClassInfoEv
_ZNK16wxBitmapComboBox13DoGetBestSizeEv
_ZNK16wxBitmapComboBox13GetBitmapSizeEv
_ZNK16wxBitmapComboBox13GetEventTableEv
_ZNK16wxBitmapComboBox13GetItemBitmapEj
_ZNK16wxBitmapComboBox13OnMeasureItemEj
_ZNK16wxBitmapComboBox16OnDrawBackgroundER4wxDCRK6wxRectii
_ZNK16wxBitmapComboBox17GetEventHashTableEv
_ZNK16wxBitmapComboBox18OnMeasureItemWidthEj
_ZNK16wxDatePickerCtrl12GetClassInfoEv
_ZNK16wxHyperlinkEvent12GetClassInfoEv
_ZNK16wxHyperlinkEvent5CloneEv
_ZNK16wxScrolledWindow18GetBestVirtualSizeEv
_ZNK16wxScrolledWindow27GetWindowSizeForVirtualSizeERK6wxSize
_ZNK17wxAboutDialogInfo24GetDescriptionAndCreditsEv
_ZNK17wxAboutDialogInfo7GetIconEv
_ZNK17wxGridStringArray5IndexERK13wxArrayStringb
_ZNK17wxGridStringTable12GetClassInfoEv
_ZNK17wxSoundBackendOSS11GetPriorityEv
_ZNK17wxSoundBackendOSS11IsAvailableEv
_ZNK17wxSoundBackendOSS22HasNativeAsyncPlaybackEv
_ZNK17wxSoundBackendOSS7GetNameEv
_ZNK17wxSoundBackendOSS9IsPlayingEv
_ZNK17wxTaskBarIconArea13GetEventTableEv
_ZNK17wxTaskBarIconArea17GetEventHashTableEv
_ZNK17wxTaskBarIconBase13GetEventTableEv
_ZNK17wxTaskBarIconBase17GetEventHashTableEv
_ZNK17wxVScrolledWindow14OnGetLinesHintEjj
_ZNK18wxDataObjectSimple11GetDataHereEPv
_ZNK18wxDataObjectSimple11GetDataHereERK12wxDataFormatPv
_ZNK18wxDataObjectSimple11GetDataSizeERK12wxDataFormat
_ZNK18wxDataObjectSimple11GetDataSizeEv
_ZNK18wxDataObjectSimple13GetAllFormatsEP12wxDataFormatN16wxDataObjectBase9DirectionE
_ZNK18wxDataObjectSimple14GetFormatCountEN16wxDataObjectBase9DirectionE
_ZNK18wxDataObjectSimple18GetPreferredFormatEN16wxDataObjectBase9DirectionE
_ZNK18wxGridCellAttrData7GetAttrEii
_ZNK18wxGridCellAttrData9FindIndexEii
_ZNK18wxSashLayoutWindow12GetClassInfoEv
_ZNK18wxSashLayoutWindow13GetEventTableEv
_ZNK18wxSashLayoutWindow17GetEventHashTableEv
_ZNK18wxSoundBackendNull11GetPriorityEv
_ZNK18wxSoundBackendNull11IsAvailableEv
_ZNK18wxSoundBackendNull22HasNativeAsyncPlaybackEv
_ZNK18wxSoundBackendNull7GetNameEv
_ZNK18wxSoundBackendNull9IsPlayingEv
_ZNK18wxTaskBarIconEvent5CloneEv
_ZNK18wxWizardPageSimple12GetClassInfoEv
_ZNK18wxWizardPageSimple7GetNextEv
_ZNK18wxWizardPageSimple7GetPrevEv
_ZNK19wxAnimationCtrlBase12GetClassInfoEv
_ZNK19wxExtHelpController12GetClassInfoEv
_ZNK19wxTopLevelWindowGTK12IsFullScreenEv
_ZNK19wxTopLevelWindowGTK8GetTitleEv
_ZNK19wxTopLevelWindowGTK9IsGrabbedEv
_ZNK20wxCalendarComboPopup13GetEventTableEv
_ZNK20wxCalendarComboPopup14GetStringValueEv
_ZNK20wxCalendarComboPopup17GetEventHashTableEv
_ZNK20wxGridCellBoolEditor5CloneEv
_ZNK20wxGridCellBoolEditor8GetValueEv
_ZNK20wxGridCellEnumEditor5CloneEv
_ZNK20wxGridCellTextEditor5CloneEv
_ZNK20wxGridCellTextEditor8GetValueEv
_ZNK20wxGridColLabelWindow12AcceptsFocusEv
_ZNK20wxGridColLabelWindow12GetClassInfoEv
_ZNK20wxGridColLabelWindow13GetEventTableEv
_ZNK20wxGridColLabelWindow17GetEventHashTableEv
_ZNK20wxGridRowLabelWindow12AcceptsFocusEv
_ZNK20wxGridRowLabelWindow12GetClassInfoEv
_ZNK20wxGridRowLabelWindow13GetEventTableEv
_ZNK20wxGridRowLabelWindow17GetEventHashTableEv
_ZNK20wxHelpControllerBase15GetParentWindowEv
_ZNK20wxOwnerDrawnComboBox10FindStringERK8wxStringb
_ZNK20wxOwnerDrawnComboBox10OnDrawItemER4wxDCRK6wxRectii
_ZNK20wxOwnerDrawnComboBox12GetClassInfoEv
_ZNK20wxOwnerDrawnComboBox12GetSelectionEv
_ZNK20wxOwnerDrawnComboBox13GetEventTableEv
_ZNK20wxOwnerDrawnComboBox13OnMeasureItemEj
_ZNK20wxOwnerDrawnComboBox16OnDrawBackgroundER4wxDCRK6wxRectii
_ZNK20wxOwnerDrawnComboBox17GetEventHashTableEv
_ZNK20wxOwnerDrawnComboBox18OnMeasureItemWidthEj
_ZNK20wxOwnerDrawnComboBox19DoGetItemClientDataEj
_ZNK20wxOwnerDrawnComboBox21DoGetItemClientObjectEj
_ZNK20wxOwnerDrawnComboBox8GetCountEv
_ZNK20wxOwnerDrawnComboBox9GetStringEj
_ZNK20wxSoundCleanupModule12GetClassInfoEv
_ZNK20wxSplashScreenWindow13GetEventTableEv
_ZNK20wxSplashScreenWindow17GetEventHashTableEv
_ZNK20wxTopLevelWindowBase10IsTopLevelEv
_ZNK20wxTopLevelWindowBase11IsOneOfBarsEPK8wxWindow
_ZNK20wxTopLevelWindowBase19DoGetScreenPositionEPiS0_
_ZNK20wxTopLevelWindowBase20ShouldPreventAppExitEv
_ZNK20wxTopLevelWindowBase9IsVisibleEv
_ZNK20wxVListBoxComboPopup10FindStringERK8wxStringb
_ZNK20wxVListBoxComboPopup10OnDrawItemER4wxDCRK6wxRectii
_ZNK20wxVListBoxComboPopup10OnDrawItemER4wxDCRK6wxRectj
_ZNK20wxVListBoxComboPopup12GetSelectionEv
_ZNK20wxVListBoxComboPopup13GetEventTableEv
_ZNK20wxVListBoxComboPopup13OnMeasureItemEj
_ZNK20wxVListBoxComboPopup14GetStringValueEv
_ZNK20wxVListBoxComboPopup16OnDrawBackgroundER4wxDCRK6wxRectj
_ZNK20wxVListBoxComboPopup17GetEventHashTableEv
_ZNK20wxVListBoxComboPopup17GetItemClientDataEj
_ZNK20wxVListBoxComboPopup18OnMeasureItemWidthEj
_ZNK20wxVListBoxComboPopup8GetCountEv
_ZNK20wxVListBoxComboPopup8OnDrawBgER4wxDCRK6wxRectii
_ZNK20wxVListBoxComboPopup9GetStringEi
_ZNK21wxGridCellCoordsArray5IndexERK16wxGridCellCoordsb
_ZNK21wxGridCellFloatEditor5CloneEv
_ZNK21wxGridCellFloatEditor9GetStringEv
_ZNK21wxPropertySheetDialog12GetClassInfoEv
_ZNK21wxPropertySheetDialog13GetEventTableEv
_ZNK21wxPropertySheetDialog17GetEventHashTableEv
_ZNK22wxCalculateLayoutEvent12GetClassInfoEv
_ZNK22wxCalculateLayoutEvent5CloneEv
_ZNK22wxGridCellAttrProvider7GetAttrEiiN14wxGridCellAttr10wxAttrKindE
_ZNK22wxGridCellBoolRenderer5CloneEv
_ZNK22wxGridCellChoiceEditor5CloneEv
_ZNK22wxGridCellChoiceEditor8GetValueEv
_ZNK22wxGridCellEnumRenderer5CloneEv
_ZNK22wxGridCellNumberEditor5CloneEv
_ZNK22wxGridCellNumberEditor8GetValueEv
_ZNK22wxGridRangeSelectEvent12GetClassInfoEv
_ZNK22wxGridRangeSelectEvent5CloneEv
_ZNK22wxGridRowOrColAttrData7GetAttrEi
_ZNK22wxQueryLayoutInfoEvent12GetClassInfoEv
_ZNK22wxQueryLayoutInfoEvent5CloneEv
_ZNK22wxSoundSyncOnlyAdaptor11GetPriorityEv
_ZNK22wxSoundSyncOnlyAdaptor11IsAvailableEv
_ZNK22wxSoundSyncOnlyAdaptor22HasNativeAsyncPlaybackEv
_ZNK22wxSoundSyncOnlyAdaptor7GetNameEv
_ZNK22wxSoundSyncOnlyAdaptor9IsPlayingEv
_ZNK23wxDatePickerCtrlGeneric13DoGetBestSizeEv
_ZNK23wxDatePickerCtrlGeneric13GetEventTableEv
_ZNK23wxDatePickerCtrlGeneric17GetEventHashTableEv
_ZNK23wxDatePickerCtrlGeneric8GetRangeEP10wxDateTimeS1_
_ZNK23wxDatePickerCtrlGeneric8GetValueEv
_ZNK23wxGridCellFloatRenderer5CloneEv
_ZNK23wxGridCellWithAttrArray5IndexERK18wxGridCellWithAttrb
_ZNK23wxGridCornerLabelWindow12AcceptsFocusEv
_ZNK23wxGridCornerLabelWindow12GetClassInfoEv
_ZNK23wxGridCornerLabelWindow13GetEventTableEv
_ZNK23wxGridCornerLabelWindow17GetEventHashTableEv
_ZNK24wxGridCellNumberRenderer5CloneEv
_ZNK24wxGridCellStringRenderer5CloneEv
_ZNK24wxGridEditorCreatedEvent12GetClassInfoEv
_ZNK24wxGridEditorCreatedEvent5CloneEv
_ZNK24wxItemContainerImmutable10FindStringERK8wxStringb
_ZNK26wxGridCellDateTimeRenderer5CloneEv
_ZNK26wxGridCellEditorEvtHandler12GetClassInfoEv
_ZNK26wxGridCellEditorEvtHandler13GetEventTableEv
_ZNK26wxGridCellEditorEvtHandler17GetEventHashTableEv
_ZNK30wxGridCellAutoWrapStringEditor5CloneEv
_ZNK32wxGridCellAutoWrapStringRenderer5CloneEv
_ZNK6wxGrid10GetColLeftEi
_ZNK6wxGrid10IsReadOnlyEii
_ZNK6wxGrid10LookupAttrEiiPP14wxGridCellAttr
_ZNK6wxGrid11GetCellAttrEii
_ZNK6wxGrid11GetColRightEi
_ZNK6wxGrid11GetColWidthEi
_ZNK6wxGrid12GetClassInfoEv
_ZNK6wxGrid12GetRowBottomEi
_ZNK6wxGrid12GetRowHeightEi
_ZNK6wxGrid13DoGetBestSizeEv
_ZNK6wxGrid13GetDividerPenEv
_ZNK6wxGrid13GetEventTableEv
_ZNK6wxGrid13IsInSelectionEii
_ZNK6wxGrid15GetSelectedColsEv
_ZNK6wxGrid15GetSelectedRowsEv
_ZNK6wxGrid16GetDefaultEditorEv
_ZNK6wxGrid16GetSelectedCellsEv
_ZNK6wxGrid16GetSelectionModeEv
_ZNK6wxGrid17GetEventHashTableEv
_ZNK6wxGrid18GetColMinimalWidthEi
_ZNK6wxGrid18GetDefaultRendererEv
_ZNK6wxGrid19GetOrCreateCellAttrEii
_ZNK6wxGrid19GetRowMinimalHeightEi
_ZNK6wxGrid20CanEnableCellControlEv
_ZNK6wxGrid21IsCurrentCellReadOnlyEv
_ZNK6wxGrid22IsCellEditControlShownEv
_ZNK6wxGrid23GetDefaultEditorForCellEii
_ZNK6wxGrid23GetDefaultEditorForTypeERK8wxString
_ZNK6wxGrid24GetSelectionBlockTopLeftEv
_ZNK6wxGrid24IsCellEditControlEnabledEv
_ZNK6wxGrid25GetDefaultRendererForCellEii
_ZNK6wxGrid25GetDefaultRendererForTypeERK8wxString
_ZNK6wxGrid28GetColMinimalAcceptableWidthEv
_ZNK6wxGrid28GetSelectionBlockBottomRightEv
_ZNK6wxGrid29GetRowMinimalAcceptableHeightEv
_ZNK6wxGrid9CacheAttrEiiP14wxGridCellAttr
_ZNK6wxGrid9GetRowTopEi
_ZNK7wxFrame19GetClientAreaOriginEv
_ZNK7wxSound6DoPlayEj
_ZNK8wxWindow13IsRadioButtonEv
_ZNK8wxWindow21IsTransparentForMouseEv
_ZNK8wxWindow8GetLabelEv
_ZNK8wxWindow9GetHandleEv
_ZNK8wxWizard11GetPageSizeEv
_ZNK8wxWizard12GetClassInfoEv
_ZNK8wxWizard13GetEventTableEv
_ZNK8wxWizard14GetCurrentPageEv
_ZNK8wxWizard16GetPageAreaSizerEv
_ZNK8wxWizard17GetEventHashTableEv
_ZNK9wxControl15UseGTKStyleBaseEv
_ZThn348_N6wxGridD0Ev
_ZThn348_N6wxGridD1Ev
_ZThn396_N20wxVListBoxComboPopup10GetControlEv
_ZThn396_N20wxVListBoxComboPopup10LazyCreateEv
_ZThn396_N20wxVListBoxComboPopup14SetStringValueERK8wxString
_ZThn396_N20wxVListBoxComboPopup15GetAdjustedSizeEiii
_ZThn396_N20wxVListBoxComboPopup15OnComboKeyEventER10wxKeyEvent
_ZThn396_N20wxVListBoxComboPopup17PaintComboControlER4wxDCRK6wxRect
_ZThn396_N20wxVListBoxComboPopup18OnComboDoubleClickEv
_ZThn396_N20wxVListBoxComboPopup4InitEv
_ZThn396_N20wxVListBoxComboPopup6CreateEP8wxWindow
_ZThn396_N20wxVListBoxComboPopup7OnPopupEv
_ZThn396_N20wxVListBoxComboPopupD0Ev
_ZThn396_N20wxVListBoxComboPopupD1Ev
_ZThn396_NK20wxVListBoxComboPopup14GetStringValueEv
_ZThn532_N16wxBitmapComboBox5ClearEv
_ZThn532_N16wxBitmapComboBox6DeleteEj
_ZThn532_N16wxBitmapComboBox8DoAppendERK8wxString
_ZThn532_N16wxBitmapComboBox8DoInsertERK8wxStringj
_ZThn532_N16wxBitmapComboBoxD0Ev
_ZThn532_N16wxBitmapComboBoxD1Ev
_ZThn532_N20wxOwnerDrawnComboBox12SetSelectionEi
_ZThn532_N20wxOwnerDrawnComboBox19DoSetItemClientDataEjPv
_ZThn532_N20wxOwnerDrawnComboBox21DoSetItemClientObjectEjP12wxClientData
_ZThn532_N20wxOwnerDrawnComboBox5ClearEv
_ZThn532_N20wxOwnerDrawnComboBox6DeleteEj
_ZThn532_N20wxOwnerDrawnComboBox8DoAppendERK8wxString
_ZThn532_N20wxOwnerDrawnComboBox8DoInsertERK8wxStringj
_ZThn532_N20wxOwnerDrawnComboBox9SetStringEjRK8wxString
_ZThn532_N20wxOwnerDrawnComboBoxD0Ev
_ZThn532_N20wxOwnerDrawnComboBoxD1Ev
_ZThn532_NK20wxOwnerDrawnComboBox10FindStringERK8wxStringb
_ZThn532_NK20wxOwnerDrawnComboBox12GetSelectionEv
_ZThn532_NK20wxOwnerDrawnComboBox19DoGetItemClientDataEj
_ZThn532_NK20wxOwnerDrawnComboBox21DoGetItemClientObjectEj
_ZThn532_NK20wxOwnerDrawnComboBox8GetCountEv
_ZThn532_NK20wxOwnerDrawnComboBox9GetStringEj
_ZThn556_N16wxBitmapComboBox13SetItemBitmapEjRK8wxBitmap
_ZThn556_N16wxBitmapComboBoxD0Ev
_ZThn556_N16wxBitmapComboBoxD1Ev
_ZThn556_NK16wxBitmapComboBox13GetBitmapSizeEv
_ZThn556_NK16wxBitmapComboBox13GetItemBitmapEj
_ZThn644_N20wxCalendarComboPopup10GetControlEv
_ZThn644_N20wxCalendarComboPopup14SetStringValueERK8wxString
_ZThn644_N20wxCalendarComboPopup15GetAdjustedSizeEiii
_ZThn644_N20wxCalendarComboPopup4InitEv
_ZThn644_N20wxCalendarComboPopup6CreateEP8wxWindow
_ZThn644_N20wxCalendarComboPopupD0Ev
_ZThn644_N20wxCalendarComboPopupD1Ev
_ZThn644_NK20wxCalendarComboPopup14GetStringValueEv
_ZThn8_N13wxWizardSizerD0Ev
_ZThn8_N13wxWizardSizerD1Ev
_ZThn8_N15wxGridTableBaseD0Ev
_ZThn8_N15wxGridTableBaseD1Ev
_ZThn8_N17wxGridStringTableD0Ev
_ZThn8_N17wxGridStringTableD1Ev
_ZTI10wxJoystick
_ZTI11wxAnimation
_ZTI11wxBrushBase
_ZTI11wxDateEvent
_ZTI11wxGridEvent
_ZTI11wxSashEvent
_ZTI11wxSoundBase
_ZTI11wxTipDialog
_ZTI12wxButtonBase
_ZTI12wxGridWindow
_ZTI12wxObjectList
_ZTI12wxRegionBase
_ZTI12wxSashWindow
_ZTI12wxWizardBase
_ZTI12wxWizardPage
_ZTI13wxTaskBarIcon
_ZTI13wxTipProvider
_ZTI13wxWizardEvent
_ZTI13wxWizardSizer
_ZTI14wxCalendarCtrl
_ZTI14wxCheckBoxBase
_ZTI14wxComboBoxBase
_ZTI14wxGridCellAttr
_ZTI14wxMemoryDCBase
_ZTI14wxMenuItemList
_ZTI14wxSoundBackend
_ZTI14wxSplashScreen
_ZTI15wxAnimationBase
_ZTI15wxAnimationCtrl
_ZTI15wxCalendarEvent
_ZTI15wxGridSizeEvent
_ZTI15wxGridTableBase
_ZTI15wxHyperlinkCtrl
_ZTI15wxSizerItemList
_ZTI16wxBitmapComboBox
_ZTI16wxDatePickerCtrl
_ZTI16wxGridCellEditor
_ZTI16wxGridCellWorker
_ZTI16wxHyperlinkEvent
_ZTI16wxJoystickThread
_ZTI17wxExtHelpMapEntry
_ZTI17wxFileTipProvider
_ZTI17wxGridStringTable
_ZTI17wxLayoutAlgorithm
_ZTI17wxSoundBackendOSS
_ZTI17wxStringTokenizer
_ZTI17wxTaskBarIconArea
_ZTI17wxTaskBarIconBase
_ZTI18wxDataObjectSimple
_ZTI18wxGridCellRenderer
_ZTI18wxSashLayoutWindow
_ZTI18wxSoundBackendNull
_ZTI18wxTaskBarIconEvent
_ZTI18wxWizardPageSimple
_ZTI19wxAnimationCtrlBase
_ZTI19wxExtHelpController
_ZTI20wxBitmapComboBoxBase
_ZTI20wxCalendarComboPopup
_ZTI20wxDatePickerCtrlBase
_ZTI20wxGenericAboutDialog
_ZTI20wxGridCellBoolEditor
_ZTI20wxGridCellEnumEditor
_ZTI20wxGridCellTextEditor
_ZTI20wxGridColLabelWindow
_ZTI20wxGridRowLabelWindow
_ZTI20wxOwnerDrawnComboBox
_ZTI20wxSoundCleanupModule
_ZTI20wxSplashScreenWindow
_ZTI20wxThreadHelperThread
_ZTI20wxVListBoxComboPopup
_ZTI21wxCollapsiblePaneBase
_ZTI21wxGridCellFloatEditor
_ZTI21wxPropertySheetDialog
_ZTI21wxTaskBarIconAreaBase
_ZTI22wxCalculateLayoutEvent
_ZTI22wxGridCellAttrProvider
_ZTI22wxGridCellBoolRenderer
_ZTI22wxGridCellChoiceEditor
_ZTI22wxGridCellEnumRenderer
_ZTI22wxGridCellNumberEditor
_ZTI22wxGridRangeSelectEvent
_ZTI22wxQueryLayoutInfoEvent
_ZTI22wxSoundSyncOnlyAdaptor
_ZTI23wxDatePickerCtrlGeneric
_ZTI23wxGridCellFloatRenderer
_ZTI23wxGridCornerLabelWindow
_ZTI24wxGridCellNumberRenderer
_ZTI24wxGridCellStringRenderer
_ZTI24wxGridEditorCreatedEvent
_ZTI26wxGridCellDateTimeRenderer
_ZTI26wxGridCellEditorEvtHandler
_ZTI26wxSoundAsyncPlaybackThread
_ZTI30wxGridCellAutoWrapStringEditor
_ZTI32wxGridCellAutoWrapStringRenderer
_ZTI6wxGrid
_ZTI7wxSound
_ZTI8wxWizard
_ZTS10wxJoystick
_ZTS11wxAnimation
_ZTS11wxBrushBase
_ZTS11wxDateEvent
_ZTS11wxGridEvent
_ZTS11wxSashEvent
_ZTS11wxSoundBase
_ZTS11wxTipDialog
_ZTS12wxButtonBase
_ZTS12wxGridWindow
_ZTS12wxObjectList
_ZTS12wxRegionBase
_ZTS12wxSashWindow
_ZTS12wxWizardBase
_ZTS12wxWizardPage
_ZTS13wxTaskBarIcon
_ZTS13wxTipProvider
_ZTS13wxWizardEvent
_ZTS13wxWizardSizer
_ZTS14wxCalendarCtrl
_ZTS14wxCheckBoxBase
_ZTS14wxComboBoxBase
_ZTS14wxGridCellAttr
_ZTS14wxMemoryDCBase
_ZTS14wxMenuItemList
_ZTS14wxSoundBackend
_ZTS14wxSplashScreen
_ZTS15wxAnimationBase
_ZTS15wxAnimationCtrl
_ZTS15wxCalendarEvent
_ZTS15wxGridSizeEvent
_ZTS15wxGridTableBase
_ZTS15wxHyperlinkCtrl
_ZTS15wxSizerItemList
_ZTS16wxBitmapComboBox
_ZTS16wxDatePickerCtrl
_ZTS16wxGridCellEditor
_ZTS16wxGridCellWorker
_ZTS16wxHyperlinkEvent
_ZTS16wxJoystickThread
_ZTS17wxExtHelpMapEntry
_ZTS17wxFileTipProvider
_ZTS17wxGridStringTable
_ZTS17wxLayoutAlgorithm
_ZTS17wxSoundBackendOSS
_ZTS17wxStringTokenizer
_ZTS17wxTaskBarIconArea
_ZTS17wxTaskBarIconBase
_ZTS18wxDataObjectSimple
_ZTS18wxGridCellRenderer
_ZTS18wxSashLayoutWindow
_ZTS18wxSoundBackendNull
_ZTS18wxTaskBarIconEvent
_ZTS18wxWizardPageSimple
_ZTS19wxAnimationCtrlBase
_ZTS19wxExtHelpController
_ZTS20wxBitmapComboBoxBase
_ZTS20wxCalendarComboPopup
_ZTS20wxDatePickerCtrlBase
_ZTS20wxGenericAboutDialog
_ZTS20wxGridCellBoolEditor
_ZTS20wxGridCellEnumEditor
_ZTS20wxGridCellTextEditor
_ZTS20wxGridColLabelWindow
_ZTS20wxGridRowLabelWindow
_ZTS20wxOwnerDrawnComboBox
_ZTS20wxSoundCleanupModule
_ZTS20wxSplashScreenWindow
_ZTS20wxThreadHelperThread
_ZTS20wxVListBoxComboPopup
_ZTS21wxCollapsiblePaneBase
_ZTS21wxGridCellFloatEditor
_ZTS21wxPropertySheetDialog
_ZTS21wxTaskBarIconAreaBase
_ZTS22wxCalculateLayoutEvent
_ZTS22wxGridCellAttrProvider
_ZTS22wxGridCellBoolRenderer
_ZTS22wxGridCellChoiceEditor
_ZTS22wxGridCellEnumRenderer
_ZTS22wxGridCellNumberEditor
_ZTS22wxGridRangeSelectEvent
_ZTS22wxQueryLayoutInfoEvent
_ZTS22wxSoundSyncOnlyAdaptor
_ZTS23wxDatePickerCtrlGeneric
_ZTS23wxGridCellFloatRenderer
_ZTS23wxGridCornerLabelWindow
_ZTS24wxGridCellNumberRenderer
_ZTS24wxGridCellStringRenderer
_ZTS24wxGridEditorCreatedEvent
_ZTS26wxGridCellDateTimeRenderer
_ZTS26wxGridCellEditorEvtHandler
_ZTS26wxSoundAsyncPlaybackThread
_ZTS30wxGridCellAutoWrapStringEditor
_ZTS32wxGridCellAutoWrapStringRenderer
_ZTS6wxGrid
_ZTS7wxSound
_ZTS8wxWizard
_ZTV10wxJoystick
_ZTV11wxAnimation
_ZTV11wxBrushBase
_ZTV11wxDateEvent
_ZTV11wxGridEvent
_ZTV11wxSashEvent
_ZTV11wxSoundBase
_ZTV11wxTipDialog
_ZTV12wxButtonBase
_ZTV12wxGridWindow
_ZTV12wxObjectList
_ZTV12wxRegionBase
_ZTV12wxSashWindow
_ZTV12wxWizardBase
_ZTV12wxWizardPage
_ZTV13wxTaskBarIcon
_ZTV13wxTipProvider
_ZTV13wxWizardEvent
_ZTV13wxWizardSizer
_ZTV14wxCalendarCtrl
_ZTV14wxCheckBoxBase
_ZTV14wxComboBoxBase
_ZTV14wxGridCellAttr
_ZTV14wxMemoryDCBase
_ZTV14wxMenuItemList
_ZTV14wxSoundBackend
_ZTV14wxSplashScreen
_ZTV15wxAnimationBase
_ZTV15wxAnimationCtrl
_ZTV15wxCalendarEvent
_ZTV15wxGridSizeEvent
_ZTV15wxGridTableBase
_ZTV15wxHyperlinkCtrl
_ZTV15wxSizerItemList
_ZTV16wxBitmapComboBox
_ZTV16wxDatePickerCtrl
_ZTV16wxGridCellEditor
_ZTV16wxGridCellWorker
_ZTV16wxHyperlinkEvent
_ZTV16wxJoystickThread
_ZTV17wxExtHelpMapEntry
_ZTV17wxFileTipProvider
_ZTV17wxGridStringTable
_ZTV17wxLayoutAlgorithm
_ZTV17wxSoundBackendOSS
_ZTV17wxStringTokenizer
_ZTV17wxTaskBarIconArea
_ZTV17wxTaskBarIconBase
_ZTV18wxDataObjectSimple
_ZTV18wxGridCellRenderer
_ZTV18wxSashLayoutWindow
_ZTV18wxSoundBackendNull
_ZTV18wxTaskBarIconEvent
_ZTV18wxWizardPageSimple
_ZTV19wxAnimationCtrlBase
_ZTV19wxExtHelpController
_ZTV20wxBitmapComboBoxBase
_ZTV20wxCalendarComboPopup
_ZTV20wxDatePickerCtrlBase
_ZTV20wxGenericAboutDialog
_ZTV20wxGridCellBoolEditor
_ZTV20wxGridCellEnumEditor
_ZTV20wxGridCellTextEditor
_ZTV20wxGridColLabelWindow
_ZTV20wxGridRowLabelWindow
_ZTV20wxOwnerDrawnComboBox
_ZTV20wxSoundCleanupModule
_ZTV20wxSplashScreenWindow
_ZTV20wxThreadHelperThread
_ZTV20wxVListBoxComboPopup
_ZTV21wxCollapsiblePaneBase
_ZTV21wxGridCellFloatEditor
_ZTV21wxPropertySheetDialog
_ZTV21wxTaskBarIconAreaBase
_ZTV22wxCalculateLayoutEvent
_ZTV22wxGridCellAttrProvider
_ZTV22wxGridCellBoolRenderer
_ZTV22wxGridCellChoiceEditor
_ZTV22wxGridCellEnumRenderer
_ZTV22wxGridCellNumberEditor
_ZTV22wxGridRangeSelectEvent
_ZTV22wxQueryLayoutInfoEvent
_ZTV22wxSoundSyncOnlyAdaptor
_ZTV23wxDatePickerCtrlGeneric
_ZTV23wxGridCellFloatRenderer
_ZTV23wxGridCornerLabelWindow
_ZTV24wxGridCellNumberRenderer
_ZTV24wxGridCellStringRenderer
_ZTV24wxGridEditorCreatedEvent
_ZTV26wxGridCellDateTimeRenderer
_ZTV26wxGridCellEditorEvtHandler
_ZTV26wxSoundAsyncPlaybackThread
_ZTV30wxGridCellAutoWrapStringEditor
_ZTV32wxGridCellAutoWrapStringRenderer
_ZTV6wxGrid
_ZTV7wxSound
_ZTV8wxWizard
__bss_start
_edata
_end
_fini
_init
WX_2.8
WX_2.8.1
WX_2.8.2
WX_2.8.4
WX_2.8.5
WX_2.8.7
WX_2.8.8
wxAuiNullDockInfo
wxAuiNullPaneInfo
wxEVT_AUI_FIND_MANAGER
wxEVT_AUI_PANE_BUTTON
wxEVT_AUI_PANE_CLOSE
wxEVT_AUI_PANE_MAXIMIZE
wxEVT_AUI_PANE_RESTORE
wxEVT_AUI_RENDER
wxEVT_COMMAND_AUINOTEBOOK_ALLOW_DND
wxEVT_COMMAND_AUINOTEBOOK_BEGIN_DRAG
wxEVT_COMMAND_AUINOTEBOOK_BG_DCLICK
wxEVT_COMMAND_AUINOTEBOOK_BUTTON
wxEVT_COMMAND_AUINOTEBOOK_DRAG_DONE
wxEVT_COMMAND_AUINOTEBOOK_DRAG_MOTION
wxEVT_COMMAND_AUINOTEBOOK_END_DRAG
wxEVT_COMMAND_AUINOTEBOOK_PAGE_CHANGED
wxEVT_COMMAND_AUINOTEBOOK_PAGE_CHANGING
wxEVT_COMMAND_AUINOTEBOOK_PAGE_CLOSE
wxEVT_COMMAND_AUINOTEBOOK_PAGE_CLOSED
wxEVT_COMMAND_AUINOTEBOOK_TAB_MIDDLE_DOWN
wxEVT_COMMAND_AUINOTEBOOK_TAB_MIDDLE_UP
wxEVT_COMMAND_AUINOTEBOOK_TAB_RIGHT_DOWN
wxEVT_COMMAND_AUINOTEBOOK_TAB_RIGHT_UP
_Z13wxAuiChopTextR4wxDCRK8wxStringi
_Z15wxAuiStepColourRK8wxColouri
_Z16wxAuiBlendColourhhd
_Z19wxAuiBitmapFromBitsPKhiiRK8wxColour
_Z24wxAuiLightContrastColourRK8wxColour
_Z26wxAuiManager_HasLiveResizeR12wxAuiManager
_ZN10wxTabFrame4ShowEb
_ZN10wxTabFrame6UpdateEv
_ZN10wxTabFrame9DoSetSizeEiiiii
_ZN10wxTabFrameD0Ev
_ZN10wxTabFrameD1Ev
_ZN11wxAuiTabArtD0Ev
_ZN11wxAuiTabArtD1Ev
_ZN11wxBrushBaseD0Ev
_ZN11wxBrushBaseD1Ev
_ZN11wxFrameBase15PositionMenuBarEv
_ZN11wxFrameBase15PositionToolBarEv
_ZN12wxAuiDockArtD0Ev
_ZN12wxAuiDockArtD1Ev
_ZN12wxAuiManager10DetachPaneEP8wxWindow
_ZN12wxAuiManager10GetManagerEP8wxWindow
_ZN12wxAuiManager10InsertPaneEP8wxWindowRK13wxAuiPaneInfoi
_ZN12wxAuiManager10OnLeftDownER12wxMouseEvent
_ZN12wxAuiManager11GetAllPanesEv
_ZN12wxAuiManager11GetPanePartEP8wxWindow
_ZN12wxAuiManager11OnSetCursorER16wxSetCursorEvent
_ZN12wxAuiManager11RestorePaneER13wxAuiPaneInfo
_ZN12wxAuiManager12DrawHintRectEP8wxWindowRK7wxPointS4_
_ZN12wxAuiManager12LoadPaneInfoE8wxStringR13wxAuiPaneInfo
_ZN12wxAuiManager12MaximizePaneER13wxAuiPaneInfo
_ZN12wxAuiManager12ms_classInfoE
_ZN12wxAuiManager12OnChildFocusER17wxChildFocusEvent
_ZN12wxAuiManager12OnPaneButtonER17wxAuiManagerEvent
_ZN12wxAuiManager12SavePaneInfoER13wxAuiPaneInfo
_ZN12wxAuiManager13DoFrameLayoutEv
_ZN12wxAuiManager13LayoutAddDockEP7wxSizerR13wxAuiDockInfoR20wxAuiDockUIPartArrayb
_ZN12wxAuiManager13LayoutAddPaneEP7wxSizerR13wxAuiDockInfoR13wxAuiPaneInfoR20wxAuiDockUIPartArrayb
_ZN12wxAuiManager13OnFindManagerER17wxAuiManagerEvent
_ZN12wxAuiManager13OnLeaveWindowER12wxMouseEvent
_ZN12wxAuiManager13sm_eventTableE
_ZN12wxAuiManager13StartPaneDragEP8wxWindowRK7wxPoint
_ZN12wxAuiManager14SetArtProviderEP12wxAuiDockArt
_ZN12wxAuiManager15LoadPerspectiveERK8wxStringb
_ZN12wxAuiManager15OnHintFadeTimerER12wxTimerEvent
_ZN12wxAuiManager15ProcessMgrEventER17wxAuiManagerEvent
_ZN12wxAuiManager15SavePerspectiveEv
_ZN12wxAuiManager16SetManagedWindowEP8wxWindow
_ZN12wxAuiManager17CalculateHintRectEP8wxWindowRK7wxPointS4_
_ZN12wxAuiManager17DoEndResizeActionER12wxMouseEvent
_ZN12wxAuiManager17OnEraseBackgroundER12wxEraseEvent
_ZN12wxAuiManager17ProcessDockResultER13wxAuiPaneInfoRKS0_
_ZN12wxAuiManager17sm_eventHashTableE
_ZN12wxAuiManager18GetDockPixelOffsetER13wxAuiPaneInfo
_ZN12wxAuiManager19CreateFloatingFrameEP8wxWindowRK13wxAuiPaneInfo
_ZN12wxAuiManager19OnFloatingPaneMovedEP8wxWindow11wxDirection
_ZN12wxAuiManager20OnFloatingPaneClosedEP8wxWindowR12wxCloseEvent
_ZN12wxAuiManager20OnFloatingPaneMovingEP8wxWindow11wxDirection
_ZN12wxAuiManager20RestoreMaximizedPaneEv
_ZN12wxAuiManager20sm_eventTableEntriesE
_ZN12wxAuiManager20UpdateButtonOnScreenEP15wxAuiDockUIPartRK12wxMouseEvent
_ZN12wxAuiManager21OnFloatingPaneResizedEP8wxWindowRK6wxSize
_ZN12wxAuiManager21SetDockSizeConstraintEdd
_ZN12wxAuiManager22UpdateHintWindowConfigEv
_ZN12wxAuiManager23OnFloatingPaneActivatedEP8wxWindow
_ZN12wxAuiManager23OnFloatingPaneMoveStartEP8wxWindow
_ZN12wxAuiManager24GetPanePositionsAndSizesER13wxAuiDockInfoR10wxArrayIntS3_
_ZN12wxAuiManager6DoDropER18wxAuiDockInfoArrayR18wxAuiPaneInfoArrayR13wxAuiPaneInfoRK7wxPointS8_
_ZN12wxAuiManager6OnSizeER11wxSizeEvent
_ZN12wxAuiManager6RenderEP4wxDC
_ZN12wxAuiManager6UnInitEv
_ZN12wxAuiManager6UpdateEv
_ZN12wxAuiManager7AddPaneEP8wxWindowiRK8wxString
_ZN12wxAuiManager7AddPaneEP8wxWindowRK13wxAuiPaneInfo
_ZN12wxAuiManager7AddPaneEP8wxWindowRK13wxAuiPaneInfoRK7wxPoint
_ZN12wxAuiManager7GetPaneEP8wxWindow
_ZN12wxAuiManager7GetPaneERK8wxString
_ZN12wxAuiManager7HitTestEii
_ZN12wxAuiManager7OnPaintER12wxPaintEvent
_ZN12wxAuiManager7RepaintEP4wxDC
_ZN12wxAuiManager8HideHintEv
_ZN12wxAuiManager8OnLeftUpER12wxMouseEvent
_ZN12wxAuiManager8OnMotionER12wxMouseEvent
_ZN12wxAuiManager8OnRenderER17wxAuiManagerEvent
_ZN12wxAuiManager8SetFlagsEj
_ZN12wxAuiManager8SetFrameEP7wxFrame
_ZN12wxAuiManager8ShowHintERK6wxRect
_ZN12wxAuiManager9ClosePaneER13wxAuiPaneInfo
_ZN12wxAuiManager9LayoutAllER18wxAuiPaneInfoArrayR18wxAuiDockInfoArrayR20wxAuiDockUIPartArrayb
_ZN12wxAuiManagerC1EP8wxWindowj
_ZN12wxAuiManagerC2EP8wxWindowj
_ZN12wxAuiManagerD0Ev
_ZN12wxAuiManagerD1Ev
_ZN12wxAuiManagerD2Ev
_ZN12wxAuiTabCtrl10OnLeftDownER12wxMouseEvent
_ZN12wxAuiTabCtrl10OnMiddleUpER12wxMouseEvent
_ZN12wxAuiTabCtrl10OnSetFocusER12wxFocusEvent
_ZN12wxAuiTabCtrl11OnKillFocusER12wxFocusEvent
_ZN12wxAuiTabCtrl11OnRightDownER12wxMouseEvent
_ZN12wxAuiTabCtrl12ms_classInfoE
_ZN12wxAuiTabCtrl12OnLeftDClickER12wxMouseEvent
_ZN12wxAuiTabCtrl12OnMiddleDownER12wxMouseEvent
_ZN12wxAuiTabCtrl13OnCaptureLostER23wxMouseCaptureLostEvent
_ZN12wxAuiTabCtrl13OnLeaveWindowER12wxMouseEvent
_ZN12wxAuiTabCtrl13sm_eventTableE
_ZN12wxAuiTabCtrl17OnEraseBackgroundER12wxEraseEvent
_ZN12wxAuiTabCtrl17sm_eventHashTableE
_ZN12wxAuiTabCtrl20sm_eventTableEntriesE
_ZN12wxAuiTabCtrl6OnCharER10wxKeyEvent
_ZN12wxAuiTabCtrl6OnSizeER11wxSizeEvent
_ZN12wxAuiTabCtrl7OnPaintER12wxPaintEvent
_ZN12wxAuiTabCtrl8OnButtonER18wxAuiNotebookEvent
_ZN12wxAuiTabCtrl8OnLeftUpER12wxMouseEvent
_ZN12wxAuiTabCtrl8OnMotionER12wxMouseEvent
_ZN12wxAuiTabCtrl9OnRightUpER12wxMouseEvent
_ZN12wxAuiTabCtrlC1EP8wxWindowiRK7wxPointRK6wxSizel
_ZN12wxAuiTabCtrlC2EP8wxWindowiRK7wxPointRK6wxSizel
_ZN12wxAuiTabCtrlD0Ev
_ZN12wxAuiTabCtrlD1Ev
_ZN12wxAuiTabCtrlD2Ev
_ZN12wxEvtHandler12TryValidatorER7wxEvent
_ZN12wxRegionBaseD0Ev
_ZN12wxRegionBaseD1Ev
_ZN12wxWindowBase10SetMaxSizeERK6wxSize
_ZN12wxWindowBase10SetMinSizeERK6wxSize
_ZN12wxWindowBase12GetValidatorEv
_ZN12wxWindowBase12SetSizeHintsEiiiiii
_ZN12wxWindowBase13SetExtraStyleEl
_ZN12wxWindowBase14SetTransparentEh
_ZN12wxWindowBase15AssociateHandleEP10_GtkWidget
_ZN12wxWindowBase15SetFocusFromKbdEv
_ZN12wxWindowBase15SetThemeEnabledEb
_ZN12wxWindowBase16DissociateHandleEv
_ZN12wxWindowBase17CanSetTransparentEv
_ZN12wxWindowBase18SetInitialBestSizeERK6wxSize
_ZN12wxWindowBase19SetAcceleratorTableERK18wxAcceleratorTable
_ZN12wxWindowBase24HasTransparentBackgroundEv
_ZN12wxWindowBase31GetMainWindowOfCompositeControlEv
_ZN12wxWindowBase4ThawEv
_ZN12wxWindowBase6FreezeEv
_ZN12wxWindowBase7SetNameERK8wxString
_ZN12wxWindowBase9PrepareDCER4wxDC
_ZN13wxAuiNotebook10DeletePageEj
_ZN13wxAuiNotebook10InsertPageEjP8wxWindowRK8wxStringbRK8wxBitmap
_ZN13wxAuiNotebook10RemovePageEj
_ZN13wxAuiNotebook11OnTabButtonER14wxCommandEvent
_ZN13wxAuiNotebook11SetPageTextEjRK8wxString
_ZN13wxAuiNotebook12InitNotebookEl
_ZN13wxAuiNotebook12ms_classInfoE
_ZN13wxAuiNotebook12OnChildFocusER17wxChildFocusEvent
_ZN13wxAuiNotebook12OnTabClickedER14wxCommandEvent
_ZN13wxAuiNotebook12OnTabEndDragER14wxCommandEvent
_ZN13wxAuiNotebook12OnTabRightUpER14wxCommandEvent
_ZN13wxAuiNotebook12SetSelectionEj
_ZN13wxAuiNotebook13OnTabBgDClickER14wxCommandEvent
_ZN13wxAuiNotebook13OnTabMiddleUpER14wxCommandEvent
_ZN13wxAuiNotebook13SetNormalFontERK6wxFont
_ZN13wxAuiNotebook13SetPageBitmapEjRK8wxBitmap
_ZN13wxAuiNotebook13sm_eventTableE
_ZN13wxAuiNotebook14OnTabBeginDragER14wxCommandEvent
_ZN13wxAuiNotebook14OnTabRightDownER14wxCommandEvent
_ZN13wxAuiNotebook14SetArtProviderEP11wxAuiTabArt
_ZN13wxAuiNotebook14ShowWindowMenuEv
_ZN13wxAuiNotebook15OnNavigationKeyER20wxNavigationKeyEvent
_ZN13wxAuiNotebook15OnTabDragMotionER14wxCommandEvent
_ZN13wxAuiNotebook15OnTabMiddleDownER14wxCommandEvent
_ZN13wxAuiNotebook15SetSelectedFontERK6wxFont
_ZN13wxAuiNotebook16AdvanceSelectionEb
_ZN13wxAuiNotebook16GetActiveTabCtrlEv
_ZN13wxAuiNotebook16SetMeasuringFontERK6wxFont
_ZN13wxAuiNotebook16SetTabCtrlHeightEi
_ZN13wxAuiNotebook17sm_eventHashTableE
_ZN13wxAuiNotebook18SetWindowStyleFlagEl
_ZN13wxAuiNotebook19GetTabCtrlFromPointERK7wxPoint
_ZN13wxAuiNotebook19UpdateTabCtrlHeightEv
_ZN13wxAuiNotebook20RemoveEmptyTabFramesEv
_ZN13wxAuiNotebook20SetUniformBitmapSizeERK6wxSize
_ZN13wxAuiNotebook20sm_eventTableEntriesE
_ZN13wxAuiNotebook20UpdateHintWindowSizeEv
_ZN13wxAuiNotebook21CalculateNewSplitSizeEv
_ZN13wxAuiNotebook22CalculateTabCtrlHeightEv
_ZN13wxAuiNotebook22GetHeightForPageHeightEi
_ZN13wxAuiNotebook22GetTabFrameFromTabCtrlEP8wxWindow
_ZN13wxAuiNotebook5SplitEji
_ZN13wxAuiNotebook6CreateEP8wxWindowiRK7wxPointRK6wxSizel
_ZN13wxAuiNotebook6OnSizeER11wxSizeEvent
_ZN13wxAuiNotebook7AddPageEP8wxWindowRK8wxStringbRK8wxBitmap
_ZN13wxAuiNotebook7FindTabEP8wxWindowPP12wxAuiTabCtrlPi
_ZN13wxAuiNotebook7SetFontERK6wxFont
_ZN13wxAuiNotebook8DoSizingEv
_ZN13wxAuiNotebookC1EP8wxWindowiRK7wxPointRK6wxSizel
_ZN13wxAuiNotebookC1Ev
_ZN13wxAuiNotebookC2EP8wxWindowiRK7wxPointRK6wxSizel
_ZN13wxAuiNotebookC2Ev
_ZN13wxAuiNotebookD0Ev
_ZN13wxAuiNotebookD1Ev
_ZN13wxAuiNotebookD2Ev
_ZN14wxAuiRectArray3AddERK6wxRectj
_ZN14wxAuiRectArray6DoCopyERKS_
_ZN14wxAuiRectArray6InsertERK6wxRectjj
_ZN14wxAuiRectArray7DoEmptyEv
_ZN14wxAuiRectArray8RemoveAtEjj
_ZN14wxAuiRectArrayaSERKS_
_ZN14wxAuiRectArrayC1ERKS_
_ZN14wxAuiRectArrayC2ERKS_
_ZN14wxAuiRectArrayD1Ev
_ZN14wxAuiRectArrayD2Ev
_ZN14wxMemoryDCBase20SelectObjectAsSourceERK8wxBitmap
_ZN14wxMemoryDCBaseD0Ev
_ZN14wxMemoryDCBaseD1Ev
_ZN14wxMenuItemList10CreateNodeEP10wxNodeBaseS1_PvRK9wxListKey
_ZN14wxMenuItemListD0Ev
_ZN14wxMenuItemListD1Ev
_ZN17wxAuiManagerEvent12ms_classInfoE
_ZN17wxAuiManagerEvent14wxCreateObjectEv
_ZN17wxAuiManagerEventD0Ev
_ZN17wxAuiManagerEventD1Ev
_ZN17wxAuiSimpleTabArt10DrawButtonER4wxDCP8wxWindowRK6wxRectiiiPS4_
_ZN17wxAuiSimpleTabArt10GetTabSizeER4wxDCP8wxWindowRK8wxStringRK8wxBitmapbiPi
_ZN17wxAuiSimpleTabArt12ShowDropDownEP8wxWindowRK22wxAuiNotebookPageArrayi
_ZN17wxAuiSimpleTabArt13GetIndentSizeEv
_ZN17wxAuiSimpleTabArt13SetNormalFontERK6wxFont
_ZN17wxAuiSimpleTabArt13SetSizingInfoERK6wxSizej
_ZN17wxAuiSimpleTabArt14DrawBackgroundER4wxDCP8wxWindowRK6wxRect
_ZN17wxAuiSimpleTabArt15SetSelectedFontERK6wxFont
_ZN17wxAuiSimpleTabArt16SetMeasuringFontERK6wxFont
_ZN17wxAuiSimpleTabArt18GetBestTabCtrlSizeEP8wxWindowRK22wxAuiNotebookPageArrayRK6wxSize
_ZN17wxAuiSimpleTabArt5CloneEv
_ZN17wxAuiSimpleTabArt7DrawTabER4wxDCP8wxWindowRK17wxAuiNotebookPageRK6wxRectiPS7_SA_Pi
_ZN17wxAuiSimpleTabArt8SetFlagsEj
_ZN17wxAuiSimpleTabArtC1Ev
_ZN17wxAuiSimpleTabArtC2Ev
_ZN17wxAuiSimpleTabArtD0Ev
_ZN17wxAuiSimpleTabArtD1Ev
_ZN17wxAuiSimpleTabArtD2Ev
_ZN17wxAuiTabContainer10DoShowHideEv
_ZN17wxAuiTabContainer10InsertPageEP8wxWindowRK17wxAuiNotebookPagej
_ZN17wxAuiTabContainer10RemovePageEP8wxWindow
_ZN17wxAuiTabContainer12IsTabVisibleEiiP4wxDCP8wxWindow
_ZN17wxAuiTabContainer12RemoveButtonEi
_ZN17wxAuiTabContainer12SetTabOffsetEj
_ZN17wxAuiTabContainer13SetActivePageEj
_ZN17wxAuiTabContainer13SetActivePageEP8wxWindow
_ZN17wxAuiTabContainer13SetNoneActiveEv
_ZN17wxAuiTabContainer13SetNormalFontERK6wxFont
_ZN17wxAuiTabContainer14MakeTabVisibleEiP8wxWindow
_ZN17wxAuiTabContainer14SetArtProviderEP11wxAuiTabArt
_ZN17wxAuiTabContainer15SetSelectedFontERK6wxFont
_ZN17wxAuiTabContainer16SetMeasuringFontERK6wxFont
_ZN17wxAuiTabContainer6RenderEP4wxDCP8wxWindow
_ZN17wxAuiTabContainer7AddPageEP8wxWindowRK17wxAuiNotebookPage
_ZN17wxAuiTabContainer7GetPageEj
_ZN17wxAuiTabContainer7SetRectERK6wxRect
_ZN17wxAuiTabContainer8GetPagesEv
_ZN17wxAuiTabContainer8MovePageEP8wxWindowj
_ZN17wxAuiTabContainer8SetFlagsEj
_ZN17wxAuiTabContainer9AddButtonEiiRK8wxBitmapS2_
_ZN17wxAuiTabContainerC1Ev
_ZN17wxAuiTabContainerC2Ev
_ZN17wxAuiTabContainerD0Ev
_ZN17wxAuiTabContainerD1Ev
_ZN17wxAuiTabContainerD2Ev
_ZN18wxAuiDefaultTabArt10DrawButtonER4wxDCP8wxWindowRK6wxRectiiiPS4_
_ZN18wxAuiDefaultTabArt10GetTabSizeER4wxDCP8wxWindowRK8wxStringRK8wxBitmapbiPi
_ZN18wxAuiDefaultTabArt12ShowDropDownEP8wxWindowRK22wxAuiNotebookPageArrayi
_ZN18wxAuiDefaultTabArt13GetIndentSizeEv
_ZN18wxAuiDefaultTabArt13SetNormalFontERK6wxFont
_ZN18wxAuiDefaultTabArt13SetSizingInfoERK6wxSizej
_ZN18wxAuiDefaultTabArt14DrawBackgroundER4wxDCP8wxWindowRK6wxRect
_ZN18wxAuiDefaultTabArt15SetSelectedFontERK6wxFont
_ZN18wxAuiDefaultTabArt16SetMeasuringFontERK6wxFont
_ZN18wxAuiDefaultTabArt18GetBestTabCtrlSizeEP8wxWindowRK22wxAuiNotebookPageArrayRK6wxSize
_ZN18wxAuiDefaultTabArt5CloneEv
_ZN18wxAuiDefaultTabArt7DrawTabER4wxDCP8wxWindowRK17wxAuiNotebookPageRK6wxRectiPS7_SA_Pi
_ZN18wxAuiDefaultTabArt8SetFlagsEj
_ZN18wxAuiDefaultTabArtC1Ev
_ZN18wxAuiDefaultTabArtC2Ev
_ZN18wxAuiDefaultTabArtD0Ev
_ZN18wxAuiDefaultTabArtD1Ev
_ZN18wxAuiDefaultTabArtD2Ev
_ZN18wxAuiDockInfoArray3AddERK13wxAuiDockInfoj
_ZN18wxAuiDockInfoArray6DoCopyERKS_
_ZN18wxAuiDockInfoArray6InsertERK13wxAuiDockInfojj
_ZN18wxAuiDockInfoArray7DoEmptyEv
_ZN18wxAuiDockInfoArray8RemoveAtEjj
_ZN18wxAuiDockInfoArrayaSERKS_
_ZN18wxAuiDockInfoArrayC1ERKS_
_ZN18wxAuiDockInfoArrayC2ERKS_
_ZN18wxAuiDockInfoArrayD1Ev
_ZN18wxAuiDockInfoArrayD2Ev
_ZN18wxAuiFloatingFrame10OnActivateER15wxActivateEvent
_ZN18wxAuiFloatingFrame11isMouseDownEv
_ZN18wxAuiFloatingFrame11OnMoveEventER11wxMoveEvent
_ZN18wxAuiFloatingFrame11OnMoveStartEv
_ZN18wxAuiFloatingFrame12ms_classInfoE
_ZN18wxAuiFloatingFrame13SetPaneWindowERK13wxAuiPaneInfo
_ZN18wxAuiFloatingFrame13sm_eventTableE
_ZN18wxAuiFloatingFrame14OnMoveFinishedEv
_ZN18wxAuiFloatingFrame17sm_eventHashTableE
_ZN18wxAuiFloatingFrame20sm_eventTableEntriesE
_ZN18wxAuiFloatingFrame6OnIdleER11wxIdleEvent
_ZN18wxAuiFloatingFrame6OnSizeER11wxSizeEvent
_ZN18wxAuiFloatingFrame7OnCloseER12wxCloseEvent
_ZN18wxAuiFloatingFrame8OnMovingERK6wxRect11wxDirection
_ZN18wxAuiFloatingFrameC1EP8wxWindowP12wxAuiManagerRK13wxAuiPaneInfoil
_ZN18wxAuiFloatingFrameC2EP8wxWindowP12wxAuiManagerRK13wxAuiPaneInfoil
_ZN18wxAuiFloatingFrameD0Ev
_ZN18wxAuiFloatingFrameD1Ev
_ZN18wxAuiFloatingFrameD2Ev
_ZN18wxAuiMDIChildFrame10OnActivateER15wxActivateEvent
_ZN18wxAuiMDIChildFrame10SetMenuBarEP9wxMenuBar
_ZN18wxAuiMDIChildFrame12DoMoveWindowEiiii
_ZN18wxAuiMDIChildFrame12ms_classInfoE
_ZN18wxAuiMDIChildFrame13CreateToolBarEliRK8wxString
_ZN18wxAuiMDIChildFrame13OnCloseWindowER12wxCloseEvent
_ZN18wxAuiMDIChildFrame13SetStatusTextERK8wxStringi
_ZN18wxAuiMDIChildFrame13sm_eventTableE
_ZN18wxAuiMDIChildFrame14DoSetSizeHintsEiiiiii
_ZN18wxAuiMDIChildFrame14ShowFullScreenEbl
_ZN18wxAuiMDIChildFrame14wxCreateObjectEv
_ZN18wxAuiMDIChildFrame15CreateStatusBarEiliRK8wxString
_ZN18wxAuiMDIChildFrame15OnMenuHighlightER11wxMenuEvent
_ZN18wxAuiMDIChildFrame15SetStatusWidthsEiPKi
_ZN18wxAuiMDIChildFrame17SetMDIParentFrameEP19wxAuiMDIParentFrame
_ZN18wxAuiMDIChildFrame17sm_eventHashTableE
_ZN18wxAuiMDIChildFrame20sm_eventTableEntriesE
_ZN18wxAuiMDIChildFrame22ApplyMDIChildFrameRectEv
_ZN18wxAuiMDIChildFrame4InitEv
_ZN18wxAuiMDIChildFrame4ShowEb
_ZN18wxAuiMDIChildFrame6CreateEP19wxAuiMDIParentFrameiRK8wxStringRK7wxPointRK6wxSizelS4_
_ZN18wxAuiMDIChildFrame6DoShowEb
_ZN18wxAuiMDIChildFrame7DestroyEv
_ZN18wxAuiMDIChildFrame7IconizeEb
_ZN18wxAuiMDIChildFrame7RestoreEv
_ZN18wxAuiMDIChildFrame7SetIconERK6wxIcon
_ZN18wxAuiMDIChildFrame8ActivateEv
_ZN18wxAuiMDIChildFrame8MaximizeEb
_ZN18wxAuiMDIChildFrame8SetIconsERK12wxIconBundle
_ZN18wxAuiMDIChildFrame8SetTitleERK8wxString
_ZN18wxAuiMDIChildFrame9DoSetSizeEiiiii
_ZN18wxAuiMDIChildFrameC1EP19wxAuiMDIParentFrameiRK8wxStringRK7wxPointRK6wxSizelS4_
_ZN18wxAuiMDIChildFrameC1Ev
_ZN18wxAuiMDIChildFrameC2EP19wxAuiMDIParentFrameiRK8wxStringRK7wxPointRK6wxSizelS4_
_ZN18wxAuiMDIChildFrameC2Ev
_ZN18wxAuiMDIChildFrameD0Ev
_ZN18wxAuiMDIChildFrameD1Ev
_ZN18wxAuiMDIChildFrameD2Ev
_ZN18wxAuiNotebookEvent12ms_classInfoE
_ZN18wxAuiNotebookEvent14wxCreateObjectEv
_ZN18wxAuiNotebookEventD0Ev
_ZN18wxAuiNotebookEventD1Ev
_ZN18wxAuiPaneInfoArray3AddERK13wxAuiPaneInfoj
_ZN18wxAuiPaneInfoArray6DoCopyERKS_
_ZN18wxAuiPaneInfoArray6InsertERK13wxAuiPaneInfojj
_ZN18wxAuiPaneInfoArray7DoEmptyEv
_ZN18wxAuiPaneInfoArray8RemoveAtEjj
_ZN18wxAuiPaneInfoArrayaSERKS_
_ZN18wxAuiPaneInfoArrayC1ERKS_
_ZN18wxAuiPaneInfoArrayC2ERKS_
_ZN18wxAuiPaneInfoArrayD1Ev
_ZN18wxAuiPaneInfoArrayD2Ev
_ZN19wxAuiCommandCapture12ProcessEventER7wxEvent
_ZN19wxAuiCommandCaptureD0Ev
_ZN19wxAuiCommandCaptureD1Ev
_ZN19wxAuiDefaultDockArt10DrawBorderER4wxDCP8wxWindowRK6wxRectR13wxAuiPaneInfo
_ZN19wxAuiDefaultDockArt11DrawCaptionER4wxDCP8wxWindowRK8wxStringRK6wxRectR13wxAuiPaneInfo
_ZN19wxAuiDefaultDockArt11DrawGripperER4wxDCP8wxWindowRK6wxRectR13wxAuiPaneInfo
_ZN19wxAuiDefaultDockArt14DrawBackgroundER4wxDCP8wxWindowiRK6wxRect
_ZN19wxAuiDefaultDockArt14DrawPaneButtonER4wxDCP8wxWindowiiRK6wxRectR13wxAuiPaneInfo
_ZN19wxAuiDefaultDockArt21DrawCaptionBackgroundER4wxDCRK6wxRectb
_ZN19wxAuiDefaultDockArt7GetFontEi
_ZN19wxAuiDefaultDockArt7SetFontEiRK6wxFont
_ZN19wxAuiDefaultDockArt8DrawSashER4wxDCP8wxWindowiRK6wxRect
_ZN19wxAuiDefaultDockArt9GetColourEi
_ZN19wxAuiDefaultDockArt9GetMetricEi
_ZN19wxAuiDefaultDockArt9SetColourEiRK8wxColour
_ZN19wxAuiDefaultDockArt9SetMetricEii
_ZN19wxAuiDefaultDockArtC1Ev
_ZN19wxAuiDefaultDockArtC2Ev
_ZN19wxAuiDefaultDockArtD0Ev
_ZN19wxAuiDefaultDockArtD1Ev
_ZN19wxAuiMDIParentFrame10SetMenuBarEP9wxMenuBar
_ZN19wxAuiMDIParentFrame12ActivateNextEv
_ZN19wxAuiMDIParentFrame12ArrangeIconsEv
_ZN19wxAuiMDIParentFrame12DoHandleMenuER14wxCommandEvent
_ZN19wxAuiMDIParentFrame12ms_classInfoE
_ZN19wxAuiMDIParentFrame12ProcessEventER7wxEvent
_ZN19wxAuiMDIParentFrame13AddWindowMenuEP9wxMenuBar
_ZN19wxAuiMDIParentFrame13SetWindowMenuEP6wxMenu
_ZN19wxAuiMDIParentFrame13sm_eventTableE
_ZN19wxAuiMDIParentFrame14GetArtProviderEv
_ZN19wxAuiMDIParentFrame14OnCreateClientEv
_ZN19wxAuiMDIParentFrame14SetActiveChildEP18wxAuiMDIChildFrame
_ZN19wxAuiMDIParentFrame14SetArtProviderEP11wxAuiTabArt
_ZN19wxAuiMDIParentFrame14wxCreateObjectEv
_ZN19wxAuiMDIParentFrame15SetChildMenuBarEP18wxAuiMDIChildFrame
_ZN19wxAuiMDIParentFrame16ActivatePreviousEv
_ZN19wxAuiMDIParentFrame16RemoveWindowMenuEP9wxMenuBar
_ZN19wxAuiMDIParentFrame17sm_eventHashTableE
_ZN19wxAuiMDIParentFrame20sm_eventTableEntriesE
_ZN19wxAuiMDIParentFrame4InitEv
_ZN19wxAuiMDIParentFrame4TileE13wxOrientation
_ZN19wxAuiMDIParentFrame6CreateEP8wxWindowiRK8wxStringRK7wxPointRK6wxSizelS4_
_ZN19wxAuiMDIParentFrame7CascadeEv
_ZN19wxAuiMDIParentFrameC1EP8wxWindowiRK8wxStringRK7wxPointRK6wxSizelS4_
_ZN19wxAuiMDIParentFrameC1Ev
_ZN19wxAuiMDIParentFrameC2EP8wxWindowiRK8wxStringRK7wxPointRK6wxSizelS4_
_ZN19wxAuiMDIParentFrameC2Ev
_ZN19wxAuiMDIParentFrameD0Ev
_ZN19wxAuiMDIParentFrameD1Ev
_ZN19wxAuiMDIParentFrameD2Ev
_ZN20wxAuiDockUIPartArray3AddERK15wxAuiDockUIPartj
_ZN20wxAuiDockUIPartArray6DoCopyERKS_
_ZN20wxAuiDockUIPartArray6InsertERK15wxAuiDockUIPartjj
_ZN20wxAuiDockUIPartArray7DoEmptyEv
_ZN20wxAuiDockUIPartArray8RemoveAtEjj
_ZN20wxAuiDockUIPartArrayaSERKS_
_ZN20wxAuiDockUIPartArrayC1ERKS_
_ZN20wxAuiDockUIPartArrayC2ERKS_
_ZN20wxAuiDockUIPartArrayD1Ev
_ZN20wxAuiDockUIPartArrayD2Ev
_ZN20wxAuiMDIClientWindow11OnPageCloseER18wxAuiNotebookEvent
_ZN20wxAuiMDIClientWindow11PageChangedEii
_ZN20wxAuiMDIClientWindow12CreateClientEP19wxAuiMDIParentFramel
_ZN20wxAuiMDIClientWindow12ms_classInfoE
_ZN20wxAuiMDIClientWindow12SetSelectionEj
_ZN20wxAuiMDIClientWindow13OnPageChangedER18wxAuiNotebookEvent
_ZN20wxAuiMDIClientWindow13sm_eventTableE
_ZN20wxAuiMDIClientWindow14wxCreateObjectEv
_ZN20wxAuiMDIClientWindow17sm_eventHashTableE
_ZN20wxAuiMDIClientWindow20sm_eventTableEntriesE
_ZN20wxAuiMDIClientWindow6OnSizeER11wxSizeEvent
_ZN20wxAuiMDIClientWindowC1EP19wxAuiMDIParentFramel
_ZN20wxAuiMDIClientWindowC1Ev
_ZN20wxAuiMDIClientWindowC2EP19wxAuiMDIParentFramel
_ZN20wxAuiMDIClientWindowC2Ev
_ZN20wxAuiMDIClientWindowD0Ev
_ZN20wxAuiMDIClientWindowD1Ev
_ZN20wxAuiMDIClientWindowD2Ev
_ZN20wxAuiPaneButtonArray3AddERK15wxAuiPaneButtonj
_ZN20wxAuiPaneButtonArray6DoCopyERKS_
_ZN20wxAuiPaneButtonArray6InsertERK15wxAuiPaneButtonjj
_ZN20wxAuiPaneButtonArray7DoEmptyEv
_ZN20wxAuiPaneButtonArray8RemoveAtEjj
_ZN20wxAuiPaneButtonArrayaSERKS_
_ZN20wxAuiPaneButtonArrayC1ERKS_
_ZN20wxAuiPaneButtonArrayC2ERKS_
_ZN20wxAuiPaneButtonArrayD1Ev
_ZN20wxAuiPaneButtonArrayD2Ev
_ZN20wxThreadHelperThread5EntryEv
_ZN20wxThreadHelperThreadD0Ev
_ZN20wxThreadHelperThreadD1Ev
_ZN22wxAuiNotebookPageArray3AddERK17wxAuiNotebookPagej
_ZN22wxAuiNotebookPageArray6DoCopyERKS_
_ZN22wxAuiNotebookPageArray6InsertERK17wxAuiNotebookPagejj
_ZN22wxAuiNotebookPageArray7DoEmptyEv
_ZN22wxAuiNotebookPageArray8RemoveAtEjj
_ZN22wxAuiNotebookPageArrayaSERKS_
_ZN22wxAuiNotebookPageArrayC1ERKS_
_ZN22wxAuiNotebookPageArrayC2ERKS_
_ZN22wxAuiNotebookPageArrayD1Ev
_ZN22wxAuiNotebookPageArrayD2Ev
_ZN24wxPseudoTransparentFrame12ms_classInfoE
_ZN24wxPseudoTransparentFrame14SetTransparentEh
_ZN24wxPseudoTransparentFrame14wxCreateObjectEv
_ZN24wxPseudoTransparentFrameD0Ev
_ZN24wxPseudoTransparentFrameD1Ev
_ZN28wxAuiTabContainerButtonArray3AddERK23wxAuiTabContainerButtonj
_ZN28wxAuiTabContainerButtonArray6DoCopyERKS_
_ZN28wxAuiTabContainerButtonArray6InsertERK23wxAuiTabContainerButtonjj
_ZN28wxAuiTabContainerButtonArray7DoEmptyEv
_ZN28wxAuiTabContainerButtonArray8RemoveAtEjj
_ZN28wxAuiTabContainerButtonArrayaSERKS_
_ZN28wxAuiTabContainerButtonArrayC1ERKS_
_ZN28wxAuiTabContainerButtonArrayC2ERKS_
_ZN28wxAuiTabContainerButtonArrayD1Ev
_ZN28wxAuiTabContainerButtonArrayD2Ev
_ZN8wxThread6OnExitEv
_ZN8wxWindow14OnParentEnableEb
_ZN8wxWindow15FixUpMouseEventEP10_GtkWidgetRiS2_
_ZN8wxWindow8SetLabelERK8wxString
_ZNK10wxTabFrame15DoGetClientSizeEPiS0_
_ZNK10wxTabFrame9DoGetSizeEPiS0_
_ZNK11wxBrushBase7IsHatchEv
_ZNK11wxClassInfo8IsKindOfEPKS_
_ZNK11wxFrameBase10GetMenuBarEv
_ZNK11wxFrameBase10GetToolBarEv
_ZNK11wxFrameBase12GetStatusBarEv
_ZNK12wxAuiManager12GetClassInfoEv
_ZNK12wxAuiManager13GetEventTableEv
_ZNK12wxAuiManager14GetArtProviderEv
_ZNK12wxAuiManager16GetManagedWindowEv
_ZNK12wxAuiManager17GetEventHashTableEv
_ZNK12wxAuiManager21GetDockSizeConstraintEPdS0_
_ZNK12wxAuiManager8GetFlagsEv
_ZNK12wxAuiManager8GetFrameEv
_ZNK12wxAuiTabCtrl12GetClassInfoEv
_ZNK12wxAuiTabCtrl13GetEventTableEv
_ZNK12wxAuiTabCtrl17GetEventHashTableEv
_ZNK12wxWindowBase10GetMaxSizeEv
_ZNK12wxWindowBase10GetMinSizeEv
_ZNK12wxWindowBase10HasCaptureEv
_ZNK12wxWindowBase13GetDropTargetEv
_ZNK12wxWindowBase15GetThemeEnabledEv
_ZNK12wxWindowBase16HasMultiplePagesEv
_ZNK12wxWindowBase18GetBackgroundStyleEv
_ZNK12wxWindowBase18GetBestVirtualSizeEv
_ZNK12wxWindowBase18GetWindowStyleFlagEv
_ZNK12wxWindowBase20GetDefaultAttributesEv
_ZNK12wxWindowBase20ShouldInheritColoursEv
_ZNK12wxWindowBase24AcceptsFocusFromKeyboardEv
_ZNK12wxWindowBase27GetWindowSizeForVirtualSizeERK6wxSize
_ZNK12wxWindowBase7GetNameEv
_ZNK12wxWindowBase7IsShownEv
_ZNK12wxWindowBase8IsFrozenEv
_ZNK12wxWindowBase9IsEnabledEv
_ZNK13wxAuiNotebook11GetPageTextEj
_ZNK13wxAuiNotebook12GetClassInfoEv
_ZNK13wxAuiNotebook12GetPageCountEv
_ZNK13wxAuiNotebook12GetPageIndexEP8wxWindow
_ZNK13wxAuiNotebook12GetSelectionEv
_ZNK13wxAuiNotebook13GetEventTableEv
_ZNK13wxAuiNotebook13GetPageBitmapEj
_ZNK13wxAuiNotebook14GetArtProviderEv
_ZNK13wxAuiNotebook16GetTabCtrlHeightEv
_ZNK13wxAuiNotebook17GetEventHashTableEv
_ZNK13wxAuiNotebook7GetPageEj
_ZNK13wxControlBase20ShouldInheritColoursEv
_ZNK14wxAuiRectArray5IndexERK6wxRectb
_ZNK14wxMenuItemList4FindERK9wxListKey
_ZNK17wxAuiManagerEvent12GetClassInfoEv
_ZNK17wxAuiManagerEvent5CloneEv
_ZNK17wxAuiTabContainer10TabHitTestEiiPP8wxWindow
_ZNK17wxAuiTabContainer12GetPageCountEv
_ZNK17wxAuiTabContainer12GetTabOffsetEv
_ZNK17wxAuiTabContainer13ButtonHitTestEiiPP23wxAuiTabContainerButton
_ZNK17wxAuiTabContainer13GetActivePageEv
_ZNK17wxAuiTabContainer14GetArtProviderEv
_ZNK17wxAuiTabContainer16GetIdxFromWindowEP8wxWindow
_ZNK17wxAuiTabContainer16GetWindowFromIdxEj
_ZNK17wxAuiTabContainer7GetPageEj
_ZNK17wxAuiTabContainer8GetFlagsEv
_ZNK18wxAuiDockInfoArray5IndexERK13wxAuiDockInfob
_ZNK18wxAuiFloatingFrame12GetClassInfoEv
_ZNK18wxAuiFloatingFrame13GetEventTableEv
_ZNK18wxAuiFloatingFrame15GetOwnerManagerEv
_ZNK18wxAuiFloatingFrame17GetEventHashTableEv
_ZNK18wxAuiMDIChildFrame10GetMenuBarEv
_ZNK18wxAuiMDIChildFrame10GetToolBarEv
_ZNK18wxAuiMDIChildFrame10IsIconizedEv
_ZNK18wxAuiMDIChildFrame10IsTopLevelEv
_ZNK18wxAuiMDIChildFrame11IsMaximizedEv
_ZNK18wxAuiMDIChildFrame12GetClassInfoEv
_ZNK18wxAuiMDIChildFrame12GetStatusBarEv
_ZNK18wxAuiMDIChildFrame12IsFullScreenEv
_ZNK18wxAuiMDIChildFrame13GetEventTableEv
_ZNK18wxAuiMDIChildFrame17GetEventHashTableEv
_ZNK18wxAuiMDIChildFrame17GetMDIParentFrameEv
_ZNK18wxAuiMDIChildFrame7GetIconEv
_ZNK18wxAuiMDIChildFrame8GetIconsEv
_ZNK18wxAuiMDIChildFrame8GetTitleEv
_ZNK18wxAuiNotebookEvent12GetClassInfoEv
_ZNK18wxAuiNotebookEvent5CloneEv
_ZNK18wxAuiPaneInfoArray5IndexERK13wxAuiPaneInfob
_ZNK19wxAuiMDIParentFrame11GetNotebookEv
_ZNK19wxAuiMDIParentFrame12GetClassInfoEv
_ZNK19wxAuiMDIParentFrame13GetEventTableEv
_ZNK19wxAuiMDIParentFrame14GetActiveChildEv
_ZNK19wxAuiMDIParentFrame15DoGetClientSizeEPiS0_
_ZNK19wxAuiMDIParentFrame15GetClientWindowEv
_ZNK19wxAuiMDIParentFrame17GetEventHashTableEv
_ZNK19wxTopLevelWindowGTK12IsFullScreenEv
_ZNK19wxTopLevelWindowGTK8GetTitleEv
_ZNK19wxTopLevelWindowGTK9IsGrabbedEv
_ZNK20wxAuiDockUIPartArray5IndexERK15wxAuiDockUIPartb
_ZNK20wxAuiMDIClientWindow12GetClassInfoEv
_ZNK20wxAuiMDIClientWindow13GetEventTableEv
_ZNK20wxAuiMDIClientWindow17GetEventHashTableEv
_ZNK20wxAuiPaneButtonArray5IndexERK15wxAuiPaneButtonb
_ZNK20wxTopLevelWindowBase10IsTopLevelEv
_ZNK20wxTopLevelWindowBase19DoGetScreenPositionEPiS0_
_ZNK20wxTopLevelWindowBase20ShouldPreventAppExitEv
_ZNK20wxTopLevelWindowBase9IsVisibleEv
_ZNK22wxAuiNotebookPageArray5IndexERK17wxAuiNotebookPageb
_ZNK24wxPseudoTransparentFrame12GetClassInfoEv
_ZNK28wxAuiTabContainerButtonArray5IndexERK23wxAuiTabContainerButtonb
_ZNK7wxFrame19GetClientAreaOriginEv
_ZNK8wxWindow13IsRadioButtonEv
_ZNK8wxWindow21IsTransparentForMouseEv
_ZNK8wxWindow8GetLabelEv
_ZNK8wxWindow9GetHandleEv
_ZNK9wxControl15UseGTKStyleBaseEv
_ZThn340_N12wxAuiTabCtrlD0Ev
_ZThn340_N12wxAuiTabCtrlD1Ev
_ZTI10wxTabFrame
_ZTI11wxAuiTabArt
_ZTI11wxBrushBase
_ZTI12wxAuiDockArt
_ZTI12wxAuiManager
_ZTI12wxAuiTabCtrl
_ZTI12wxRegionBase
_ZTI13wxAuiNotebook
_ZTI14wxMemoryDCBase
_ZTI14wxMenuItemList
_ZTI17wxAuiManagerEvent
_ZTI17wxAuiSimpleTabArt
_ZTI17wxAuiTabContainer
_ZTI18wxAuiDefaultTabArt
_ZTI18wxAuiFloatingFrame
_ZTI18wxAuiMDIChildFrame
_ZTI18wxAuiNotebookEvent
_ZTI19wxAuiCommandCapture
_ZTI19wxAuiDefaultDockArt
_ZTI19wxAuiMDIParentFrame
_ZTI20wxAuiMDIClientWindow
_ZTI20wxThreadHelperThread
_ZTI24wxPseudoTransparentFrame
_ZTS10wxTabFrame
_ZTS11wxAuiTabArt
_ZTS11wxBrushBase
_ZTS12wxAuiDockArt
_ZTS12wxAuiManager
_ZTS12wxAuiTabCtrl
_ZTS12wxRegionBase
_ZTS13wxAuiNotebook
_ZTS14wxMemoryDCBase
_ZTS14wxMenuItemList
_ZTS17wxAuiManagerEvent
_ZTS17wxAuiSimpleTabArt
_ZTS17wxAuiTabContainer
_ZTS18wxAuiDefaultTabArt
_ZTS18wxAuiFloatingFrame
_ZTS18wxAuiMDIChildFrame
_ZTS18wxAuiNotebookEvent
_ZTS19wxAuiCommandCapture
_ZTS19wxAuiDefaultDockArt
_ZTS19wxAuiMDIParentFrame
_ZTS20wxAuiMDIClientWindow
_ZTS20wxThreadHelperThread
_ZTS24wxPseudoTransparentFrame
_ZTV10wxTabFrame
_ZTV11wxAuiTabArt
_ZTV11wxBrushBase
_ZTV12wxAuiDockArt
_ZTV12wxAuiManager
_ZTV12wxAuiTabCtrl
_ZTV12wxRegionBase
_ZTV13wxAuiNotebook
_ZTV14wxMemoryDCBase
_ZTV14wxMenuItemList
_ZTV17wxAuiManagerEvent
_ZTV17wxAuiSimpleTabArt
_ZTV17wxAuiTabContainer
_ZTV18wxAuiDefaultTabArt
_ZTV18wxAuiFloatingFrame
_ZTV18wxAuiMDIChildFrame
_ZTV18wxAuiNotebookEvent
_ZTV19wxAuiCommandCapture
_ZTV19wxAuiDefaultDockArt
_ZTV19wxAuiMDIParentFrame
_ZTV20wxAuiMDIClientWindow
_ZTV20wxThreadHelperThread
_ZTV24wxPseudoTransparentFrame
__bss_start
_edata
_end
_fini
g_altTextAtom
g_blockEventsOnDrag
g_blockEventsOnScroll
g_clipboardAtom
g_delayedFocus
g_fileAtom
g_focusWindow
g_focusWindowLast
g_focusWindowPending
g_globalCursor
g_isIdle
g_lastButtonNumber
g_lastMouseEvent
g_mainThreadLocked
g_openDialogs
g_pngAtom
g_targetsAtom
g_textAtom
g_timestampAtom
gtk_assert_dialog_add_button
gtk_assert_dialog_add_button_to
gtk_assert_dialog_append_stack_frame
gtk_assert_dialog_append_text_column
gtk_assert_dialog_continue_callback
gtk_assert_dialog_copy_callback
gtk_assert_dialog_create_backtrace_list_model
gtk_assert_dialog_expander_callback
gtk_assert_dialog_get_backtrace
gtk_assert_dialog_get_message
gtk_assert_dialog_get_type
gtk_assert_dialog_new
gtk_assert_dialog_process_backtrace
gtk_assert_dialog_save_backtrace_callback
gtk_assert_dialog_set_backtrace_callback
gtk_assert_dialog_set_message
gtk_dialog_delete_callback
gtk_pizza_get_rtl_offset
gtk_pizza_get_type
gtk_pizza_get_xoffset
gtk_pizza_get_yoffset
gtk_pizza_new
gtk_pizza_put
gtk_pizza_scroll
gtk_pizza_set_size
gtk_pizza_set_xoffset
gtk_pizza_set_yoffset
gtk_pop_hide_callback
gtk_tree_entry_get_collate_key
gtk_tree_entry_get_label
gtk_tree_entry_get_type
gtk_tree_entry_get_userdata
gtk_tree_entry_new
gtk_tree_entry_set_destroy_func
gtk_tree_entry_set_label
gtk_tree_entry_set_userdata
_init
list_ctrl_compare_data
list_ctrl_compare_func_2
WX_2.8
WX_2.8.1
WX_2.8.2
WX_2.8.4
WX_2.8.5
WX_2.8.7
WX_2.8.8
wxBitmapRadioButtonNameStr
wxButtonNameStr
wxCheckBoxNameStr
wxChoiceNameStr
wxCollapsiblePaneNameStr
wxColourPickerCtrlNameStr
wxColourPickerWidgetNameStr
wxComboBoxNameStr
wxCompareFamilies
wxControlNameStr
wxDefaultPosition
wxDefaultSize
wxDefaultSpan
wxDefaultValidator
wxDefaultVideoMode
wxDialogNameStr
wxDirDialogDefaultFolderStr
wxDirDialogNameStr
wxDirPickerCtrlNameStr
wxDirPickerWidgetLabel
wxDirPickerWidgetNameStr
wxDirSelectorPromptStr
wxEVT_ACTIVATE
wxEVT_ACTIVATE_APP
wxEVT_CHAR
wxEVT_CHAR_HOOK
wxEVT_CHILD_FOCUS
wxEVT_CLOSE_WINDOW
wxEVT_COMMAND_BUTTON_CLICKED
wxEVT_COMMAND_CHECKBOX_CLICKED
wxEVT_COMMAND_CHECKLISTBOX_TOGGLED
wxEVT_COMMAND_CHOICEBOOK_PAGE_CHANGED
wxEVT_COMMAND_CHOICEBOOK_PAGE_CHANGING
wxEVT_COMMAND_CHOICE_SELECTED
wxEVT_COMMAND_COLLPANE_CHANGED
wxEVT_COMMAND_COLOURPICKER_CHANGED
wxEVT_COMMAND_COMBOBOX_SELECTED
wxEVT_COMMAND_DIRPICKER_CHANGED
wxEVT_COMMAND_ENTER
wxEVT_COMMAND_FILEPICKER_CHANGED
wxEVT_COMMAND_FIND
wxEVT_COMMAND_FIND_CLOSE
wxEVT_COMMAND_FIND_NEXT
wxEVT_COMMAND_FIND_REPLACE
wxEVT_COMMAND_FIND_REPLACE_ALL
wxEVT_COMMAND_FONTPICKER_CHANGED
wxEVT_COMMAND_KILL_FOCUS
wxEVT_COMMAND_LEFT_CLICK
wxEVT_COMMAND_LEFT_DCLICK
wxEVT_COMMAND_LIST_BEGIN_DRAG
wxEVT_COMMAND_LIST_BEGIN_LABEL_EDIT
wxEVT_COMMAND_LIST_BEGIN_RDRAG
wxEVT_COMMAND_LISTBOOK_PAGE_CHANGED
wxEVT_COMMAND_LISTBOOK_PAGE_CHANGING
wxEVT_COMMAND_LISTBOX_DOUBLECLICKED
wxEVT_COMMAND_LISTBOX_SELECTED
wxEVT_COMMAND_LIST_CACHE_HINT
wxEVT_COMMAND_LIST_COL_BEGIN_DRAG
wxEVT_COMMAND_LIST_COL_CLICK
wxEVT_COMMAND_LIST_COL_DRAGGING
wxEVT_COMMAND_LIST_COL_END_DRAG
wxEVT_COMMAND_LIST_COL_RIGHT_CLICK
wxEVT_COMMAND_LIST_DELETE_ALL_ITEMS
wxEVT_COMMAND_LIST_DELETE_ITEM
wxEVT_COMMAND_LIST_END_LABEL_EDIT
wxEVT_COMMAND_LIST_INSERT_ITEM
wxEVT_COMMAND_LIST_ITEM_ACTIVATED
wxEVT_COMMAND_LIST_ITEM_DESELECTED
wxEVT_COMMAND_LIST_ITEM_FOCUSED
wxEVT_COMMAND_LIST_ITEM_MIDDLE_CLICK
wxEVT_COMMAND_LIST_ITEM_RIGHT_CLICK
wxEVT_COMMAND_LIST_ITEM_SELECTED
wxEVT_COMMAND_LIST_KEY_DOWN
wxEVT_COMMAND_MENU_SELECTED
wxEVT_COMMAND_NOTEBOOK_PAGE_CHANGED
wxEVT_COMMAND_NOTEBOOK_PAGE_CHANGING
wxEVT_COMMAND_RADIOBOX_SELECTED
wxEVT_COMMAND_RADIOBUTTON_SELECTED
wxEVT_COMMAND_RIGHT_CLICK
wxEVT_COMMAND_RIGHT_DCLICK
wxEVT_COMMAND_SCROLLBAR_UPDATED
wxEVT_COMMAND_SEARCHCTRL_CANCEL_BTN
wxEVT_COMMAND_SEARCHCTRL_SEARCH_BTN
wxEVT_COMMAND_SET_FOCUS
wxEVT_COMMAND_SLIDER_UPDATED
wxEVT_COMMAND_SPINCTRL_UPDATED
wxEVT_COMMAND_SPLITTER_DOUBLECLICKED
wxEVT_COMMAND_SPLITTER_SASH_POS_CHANGED
wxEVT_COMMAND_SPLITTER_SASH_POS_CHANGING
wxEVT_COMMAND_SPLITTER_UNSPLIT
wxEVT_COMMAND_TEXT_COPY
wxEVT_COMMAND_TEXT_CUT
wxEVT_COMMAND_TEXT_ENTER
wxEVT_COMMAND_TEXT_MAXLEN
wxEVT_COMMAND_TEXT_PASTE
wxEVT_COMMAND_TEXT_UPDATED
wxEVT_COMMAND_TEXT_URL
wxEVT_COMMAND_TOGGLEBUTTON_CLICKED
wxEVT_COMMAND_TOOLBOOK_PAGE_CHANGED
wxEVT_COMMAND_TOOLBOOK_PAGE_CHANGING
wxEVT_COMMAND_TOOL_ENTER
wxEVT_COMMAND_TOOL_RCLICKED
wxEVT_COMMAND_TREE_BEGIN_DRAG
wxEVT_COMMAND_TREE_BEGIN_LABEL_EDIT
wxEVT_COMMAND_TREE_BEGIN_RDRAG
wxEVT_COMMAND_TREEBOOK_NODE_COLLAPSED
wxEVT_COMMAND_TREEBOOK_NODE_EXPANDED
wxEVT_COMMAND_TREEBOOK_PAGE_CHANGED
wxEVT_COMMAND_TREEBOOK_PAGE_CHANGING
wxEVT_COMMAND_TREE_DELETE_ITEM
wxEVT_COMMAND_TREE_END_DRAG
wxEVT_COMMAND_TREE_END_LABEL_EDIT
wxEVT_COMMAND_TREE_GET_INFO
wxEVT_COMMAND_TREE_ITEM_ACTIVATED
wxEVT_COMMAND_TREE_ITEM_COLLAPSED
wxEVT_COMMAND_TREE_ITEM_COLLAPSING
wxEVT_COMMAND_TREE_ITEM_EXPANDED
wxEVT_COMMAND_TREE_ITEM_EXPANDING
wxEVT_COMMAND_TREE_ITEM_GETTOOLTIP
wxEVT_COMMAND_TREE_ITEM_MENU
wxEVT_COMMAND_TREE_ITEM_MIDDLE_CLICK
wxEVT_COMMAND_TREE_ITEM_RIGHT_CLICK
wxEVT_COMMAND_TREE_KEY_DOWN
wxEVT_COMMAND_TREE_SEL_CHANGED
wxEVT_COMMAND_TREE_SEL_CHANGING
wxEVT_COMMAND_TREE_SET_INFO
wxEVT_COMMAND_TREE_STATE_IMAGE_CLICK
wxEVT_COMMAND_VLBOX_SELECTED
wxEVT_COMPARE_ITEM
wxEVT_CONTEXT_MENU
wxEVT_CREATE
wxEVT_DESTROY
wxEVT_DETAILED_HELP
wxEVT_DIALUP_CONNECTED
wxEVT_DIALUP_DISCONNECTED
wxEVT_DISPLAY_CHANGED
wxEVT_DRAW_ITEM
wxEVT_DROP_FILES
wxEVT_END_SESSION
wxEVT_ENTER_WINDOW
wxEVT_ERASE_BACKGROUND
wxEVT_HELP
wxEVT_HIBERNATE
wxEVT_ICONIZE
wxEVT_INIT_DIALOG
wxEVT_JOY_BUTTON_DOWN
wxEVT_JOY_BUTTON_UP
wxEVT_JOY_MOVE
wxEVT_JOY_ZMOVE
wxEVT_KEY_DOWN
wxEVT_KEY_UP
wxEVT_KILL_FOCUS
wxEVT_LEAVE_WINDOW
wxEVT_LEFT_DCLICK
wxEVT_LEFT_DOWN
wxEVT_LEFT_UP
wxEVT_MAXIMIZE
wxEVT_MEASURE_ITEM
wxEVT_MENU_CLOSE
wxEVT_MENU_HIGHLIGHT
wxEVT_MENU_OPEN
wxEVT_MIDDLE_DCLICK
wxEVT_MIDDLE_DOWN
wxEVT_MIDDLE_UP
wxEVT_MOTION
wxEVT_MOUSE_CAPTURE_CHANGED
wxEVT_MOUSE_CAPTURE_LOST
wxEVT_MOUSEWHEEL
wxEVT_MOVE
wxEVT_MOVING
wxEVT_NAVIGATION_KEY
wxEVT_NC_ENTER_WINDOW
wxEVT_NC_LEAVE_WINDOW
wxEVT_NC_LEFT_DCLICK
wxEVT_NC_LEFT_DOWN
wxEVT_NC_LEFT_UP
wxEVT_NC_MIDDLE_DCLICK
wxEVT_NC_MIDDLE_DOWN
wxEVT_NC_MIDDLE_UP
wxEVT_NC_MOTION
wxEVT_NC_PAINT
wxEVT_NC_RIGHT_DCLICK
wxEVT_NC_RIGHT_DOWN
wxEVT_NC_RIGHT_UP
wxEVT_PAINT
wxEVT_PAINT_ICON
wxEVT_PALETTE_CHANGED
wxEVT_QUERY_END_SESSION
wxEVT_QUERY_NEW_PALETTE
wxEVT_RIGHT_DCLICK
wxEVT_RIGHT_DOWN
wxEVT_RIGHT_UP
wxEVT_SCROLL_BOTTOM
wxEVT_SCROLL_CHANGED
wxEVT_SCROLL_LINEDOWN
wxEVT_SCROLL_LINEUP
wxEVT_SCROLL_PAGEDOWN
wxEVT_SCROLL_PAGEUP
wxEVT_SCROLL_THUMBRELEASE
wxEVT_SCROLL_THUMBTRACK
wxEVT_SCROLL_TOP
wxEVT_SCROLLWIN_BOTTOM
wxEVT_SCROLLWIN_LINEDOWN
wxEVT_SCROLLWIN_LINEUP
wxEVT_SCROLLWIN_PAGEDOWN
wxEVT_SCROLLWIN_PAGEUP
wxEVT_SCROLLWIN_THUMBRELEASE
wxEVT_SCROLLWIN_THUMBTRACK
wxEVT_SCROLLWIN_TOP
wxEVT_SET_CURSOR
wxEVT_SET_FOCUS
wxEVT_SETTING_CHANGED
wxEVT_SHOW
wxEVT_SIZE
wxEVT_SIZING
wxEVT_SYS_COLOUR_CHANGED
wxEVT_TIMER
wxEVT_UPDATE_UI
wxFileDialogNameStr
wxFilePickerCtrlNameStr
wxFilePickerWidgetLabel
wxFilePickerWidgetNameStr
wxFileSelectorDefaultWildcardStr
wxFileSelectorPromptStr
wxFontPickerCtrlNameStr
wxFontPickerWidgetNameStr
wxFormatInvalid
wxFrameNameStr
wxGaugeNameStr
wxGetPasswordFromUserPromptStr
wxGetTextFromUserPromptStr
wxgtk_window_size_request_callback
wxIsInsideYield
wxListBoxNameStr
wxListCtrlNameStr
wxMessageBoxCaptionStr
wxNotebookNameStr
wxNullAcceleratorTable
wxNullBitmap
wxNullBrush
wxNullColour
wxNullCursor
wxNullFont
wxNullIcon
wxNullImage
wxNullPalette
wxNullPen
wxPageNumber
wxPanelNameStr
wxPendingDelete
wx_png_error
wx_PNG_stream_reader
wx_PNG_stream_writer
wx_png_warning
wxPopupMenuPositionCallback
wxRadioBoxNameStr
wxRadioButtonNameStr
wxScrollBarNameStr
wxSearchCtrlNameStr
wxSliderNameStr
wx_spline_point_list
wxStaticBitmapNameStr
wxStaticBoxNameStr
wxStaticLineNameStr
wxStaticTextNameStr
wxStatusBarNameStr
wxStatusLineNameStr
wxTextCtrlNameStr
wxTheBrushList
wxTheColourDatabase
wxTheFileIconsTable
wxTheFontList
wxThePenList
wxThePrintPaperDatabase
wxTIFFCloseIProc
wxTIFFCloseOProc
wxTIFFMapProc
wxTIFFNullProc
wxTIFFReadProc
wxTIFFSeekIProc
wxTIFFSeekOProc
wxTIFFSizeProc
wxTIFFUnmapProc
wxTIFFWriteProc
wxToolBarNameStr
wxTopLevelWindows
wxTreeCtrlNameStr
_Z10median_cutP12j_decompressP3boxii
_Z10TIFFwxOpenR13wxInputStreamPKcS2_
_Z10TIFFwxOpenR14wxOutputStreamPKcS2_
_Z10update_boxP12j_decompressP3box
_Z11wxContextIdi
_Z11wxIsStockIDi
_Z11wxLogStatusP7wxFramePKcz
_Z11wxSafeYieldP8wxWindowb
_Z11wxSetCursorRK8wxCursor
_Z12finish_pass1P12j_decompress
_Z12finish_pass2P12j_decompress
_Z12Skip_CommentR13wxInputStream
_Z12wxGetDisplayv
_Z12wxMessageBoxRK8wxStringS1_lP8wxWindowii
_Z12wxRegisterIdl
_Z12wxRemoveGrabP8wxWindow
_Z12wxSizeTCmpFnjj
_Z12wxVLogStatusP7wxFramePKcPc
_Z13compute_colorP12j_decompressP3boxi
_Z13wxDirSelectorRK8wxStringS1_lRK7wxPointP8wxWindow
_Z13wxDisplaySizePiS_
_Z13wxDoFloodFillP4wxDCiiRK8wxColouri
_Z13wxGetKeyState9wxKeyCode
_Z13wxGetResourceRK8wxStringS1_PfS1_
_Z13wxGetResourceRK8wxStringS1_PiS1_
_Z13wxGetResourceRK8wxStringS1_PlS1_
_Z13wxGetResourceRK8wxStringS1_PPcS1_
_Z13wxSetIconsX11PvS_RK12wxIconBundle
_Z13wx_spline_popPdS_S_S_S_S_S_S_
_Z14InitMouseEventI15_GdkEventButtonEvP8wxWindowR12wxMouseEventPT_
_Z14InitMouseEventI15_GdkEventMotionEvP8wxWindowR12wxMouseEventPT_
_Z14InitMouseEventI17_GdkEventCrossingEvP8wxWindowR12wxMouseEventPT_
_Z14wx_clear_stackv
_Z14wxConvertToGTKRK8wxString14wxFontEncoding
_Z14wxDisplayDepthv
_Z14wxFileSelectorPKcS0_S0_S0_S0_iP8wxWindowii
_Z14wxGetCurrentIdv
_Z14wxIsStockLabeliRK8wxString
_Z14wx_jpeg_io_srcP22jpeg_decompress_structR13wxInputStream
_Z14wx_spline_pushdddddddd
_Z15pass2_fs_ditherP12j_decompressPPhS2_i
_Z15pass2_no_ditherP12j_decompressPPhS2_i
_Z15wxCharCodeWXToXi
_Z15wxCharCodeXToWXm
_Z15wxColourDisplayv
_Z15wxDisplaySizeMMPiS_
_Z15wxEndBusyCursorv
_Z15wxGetMouseStatev
_Z15wxGetRootWindowv
_Z15wxGetStockGtkIDi
_Z15wxGetStockLabelil
_Z15wx_jpeg_io_destP20jpeg_compress_structR14wxOutputStream
_Z15wxWriteResourceRK8wxStringS1_fS1_
_Z15wxWriteResourceRK8wxStringS1_iS1_
_Z15wxWriteResourceRK8wxStringS1_lS1_
_Z15wxWriteResourceRK8wxStringS1_S1_S1_
_Z16prescan_quantizeP12j_decompressPPhS2_i
_Z16wxFileSelectorExPKcS0_S0_PiS0_iP8wxWindowii
_Z16wxFindMenuItemIdP7wxFrameRK8wxStringS3_
_Z16wxGetDisplaySizev
_Z16wxIsDragResultOk12wxDragResult
_Z16wxStripMenuCodesPKcPc
_Z16wxStripMenuCodesRK8wxStringi
_Z17SetInvokingWindowP6wxMenuP8wxWindow
_Z17wxBeginBusyCursorPK8wxCursor
_Z17wxConnectStyleSetP8wxWindow
_Z17wxGetActiveWindowv
_Z17wxGetFontFromUserP8wxWindowRK6wxFontRK8wxString
_Z17wxGetSingleChoiceRK8wxStringS1_iPS0_P8wxWindowiibii
_Z17wxGetSingleChoiceRK8wxStringS1_RK13wxArrayStringP8wxWindowiibii
_Z17wxGetTextFromUserRK8wxStringS1_S1_P8wxWindowiib
_Z17wxSetFocusToChildP8wxWindowPS0_
_Z18start_pass_2_quantP12j_decompressb
_Z18wxDeleteStockListsv
_Z18wxFindFocusedChildP8wxWindow
_Z18wxFindWindowByNameRK8wxStringP8wxWindow
_Z18wxGetDisplaySizeMMv
_Z18wxGetMousePositionPiS_
_Z18wxGetMousePositionv
_Z18wxLoadFileSelectorPKcS0_S0_P8wxWindow
_Z18wxSaveFileSelectorPKcS0_S0_P8wxWindow
_Z18wxTestFontEncodingRK20wxNativeEncodingInfo
_Z19find_biggest_volumeP3boxi
_Z19wxClientDisplayRectPiS_S_S_
_Z19wxCreateGreyedImageRK7wxImageRS_
_Z19wxFindWindowAtPointP8wxWindowRK7wxPoint
_Z19wxFindWindowAtPointRK7wxPoint
_Z19wxFindWindowByLabelRK8wxStringP8wxWindow
_Z19wxGetColourFromUserP8wxWindowRK8wxColourRK8wxString
_Z19wxGetGdkWindowForDCP8wxWindowR4wxDC
_Z19wxGetNumberFromUserRK8wxStringS1_S1_lllP8wxWindowRK7wxPoint
_Z19wxGetTopLevelParentP8wxWindow
_Z19wxGtkFixSensitivityP8wxWindow
_Z19wx_quadratic_splinedddddddd
_Z20wxAddProcessCallbackP16wxEndProcessDatai
_Z20wxDisconnectStyleSetP8wxWindow
_Z20wxGetAccelFromStringRK8wxString
_Z20wxGetAvailableDrivesR13wxArrayStringS0_R10wxArrayInt
_Z20wxGetMultipleChoicesR10wxArrayIntRK8wxStringS3_iPS2_P8wxWindowiibii
_Z20wxGetMultipleChoicesR10wxArrayIntRK8wxStringS3_RK13wxArrayStringP8wxWindowiibii
_Z20wxGetStockHelpStringi23wxStockHelpStringClient
_Z21jinit_2pass_quantizerP12j_decompress
_Z21new_color_map_2_quantP12j_decompress
_Z21wxArtClientToIconSizeRK8wxString
_Z21wxFindFocusDescendantP8wxWindow
_Z21wxFindWindowAtPointerR7wxPoint
_Z21wxGetPasswordFromUserRK8wxStringS1_S1_P8wxWindowiib
_Z21wxGetSingleChoiceDataRK8wxStringS1_iPS0_PPvP8wxWindowiibii
_Z21wxGetSingleChoiceDataRK8wxStringS1_RK13wxArrayStringPPvP8wxWindowiibii
_Z21wxGetStockAcceleratori
_Z21wxRenderer_DrawChoiceP8wxWindowR4wxDCRK6wxRecti
_Z22find_biggest_color_popP3boxi
_Z22wxGetClientDisplayRectv
_Z22wxGetSingleChoiceIndexRK8wxStringS1_iPS0_P8wxWindowiibii
_Z22wxGetSingleChoiceIndexRK8wxStringS1_RK13wxArrayStringP8wxWindowiibii
_Z22wxInitAllImageHandlersv
_Z22wxInitializeStockListsv
_Z22wxTransferFileToStreamRK8wxStringRSo
_Z22wxTransferStreamToFileRSiRK8wxString
_Z23gdk_window_warp_pointerP12_GdkDrawableii
_Z23wxClearGtkSystemObjectsv
_Z23wxEnableTopLevelWindowsb
_Z23wxGetNativeFontEncoding14wxFontEncodingP20wxNativeEncodingInfo
_Z23wxRenderer_DrawComboBoxP8wxWindowR4wxDCRK6wxRecti
_Z23wxRenderer_DrawTextCtrlP8wxWindowR4wxDCRK6wxRecti
_Z23wxSetFullScreenStateX11PvS_S_bP6wxRect21wxX11FullScreenMethod
_Z24list_ctrl_compare_func_1PP14wxListLineDataS1_
_Z24wxGetFullScreenMethodX11PvS_
_Z24wxGetStockGtkAcceleratorPKcP15GdkModifierTypePj
_Z25prepare_range_limit_tableP12j_decompress
_Z25wxSetDetectableAutoRepeatb
_Z26wxapp_install_idle_handlerv
_Z26wxGenericFindWindowAtPointRK7wxPoint
_Z26wxRenderer_DrawRadioButtonP8wxWindowR4wxDCRK6wxRecti
_Z28wxEscapeStringForPangoMarkupRK8wxString
_Z33wxDefaultArtProvider_CreateBitmapRK8wxString
_Z6wxBellv
_Z7ReadPCXP7wxImageR13wxInputStream
_Z7SavePCXP7wxImageR14wxOutputStream
_Z7wxNewIdv
_Z8wxIsBusyv
_Z9RLEdecodePhjR13wxInputStream
_Z9RLEencodePhjR14wxOutputStream
_Z9wxAddGrabP8wxWindow
_ZlsR6wxIconRK9wxVariant
_ZlsR7wxImageRK9wxVariant
_ZlsR8wxBitmapRK9wxVariant
_ZlsR8wxColourRK9wxVariant
_ZlsR9wxVariantRK6wxIcon
_ZlsR9wxVariantRK7wxImage
_ZlsR9wxVariantRK8wxBitmap
_ZlsR9wxVariantRK8wxColour
_ZN10wxBoxSizer11RecalcSizesEv
_ZN10wxBoxSizer12ms_classInfoE
_ZN10wxBoxSizer7CalcMinEv
_ZN10wxBoxSizerC1Ei
_ZN10wxBoxSizerC2Ei
_ZN10wxBoxSizerD0Ev
_ZN10wxBoxSizerD1Ev
_ZN10wxBusyInfoC1ERK8wxStringP8wxWindow
_ZN10wxBusyInfoC2ERK8wxStringP8wxWindow
_ZN10wxBusyInfoD0Ev
_ZN10wxBusyInfoD1Ev
_ZN10wxBusyInfoD2Ev
_ZN10wxCheckBox12ms_classInfoE
_ZN10wxCheckBox14wxCreateObjectEv
_ZN10wxCheckBox16DoSet3StateValueE15wxCheckBoxState
_ZN10wxCheckBox18DoApplyWidgetStyleEP11_GtkRcStyle
_ZN10wxCheckBox25GetClassDefaultAttributesE15wxWindowVariant
_ZN10wxCheckBox6CreateEP8wxWindowiRK8wxStringRK7wxPointRK6wxSizelRK11wxValidatorS4_
_ZN10wxCheckBox6EnableEb
_ZN10wxCheckBox8SetLabelERK8wxString
_ZN10wxCheckBox8SetValueEb
_ZN10wxCheckBoxC1Ev
_ZN10wxCheckBoxC2Ev
_ZN10wxCheckBoxD0Ev
_ZN10wxCheckBoxD1Ev
_ZN10wxClientDC12ms_classInfoE
_ZN10wxClientDC14wxCreateObjectEv
_ZN10wxClientDCC1EP8wxWindow
_ZN10wxClientDCC2EP8wxWindow
_ZN10wxClientDCD0Ev
_ZN10wxClientDCD1Ev
_ZN10wxComboBox11OnSelectAllER14wxCommandEvent
_ZN10wxComboBox11OnUpdateCutER15wxUpdateUIEvent
_ZN10wxComboBox11SetEditableEb
_ZN10wxComboBox12EnableEventsEv
_ZN10wxComboBox12ms_classInfoE
_ZN10wxComboBox12OnUpdateCopyER15wxUpdateUIEvent
_ZN10wxComboBox12OnUpdateRedoER15wxUpdateUIEvent
_ZN10wxComboBox12OnUpdateUndoER15wxUpdateUIEvent
_ZN10wxComboBox12SetSelectionEi
_ZN10wxComboBox12SetSelectionEll
_ZN10wxComboBox13DisableEventsEv
_ZN10wxComboBox13OnUpdatePasteER15wxUpdateUIEvent
_ZN10wxComboBox13sm_eventTableE
_ZN10wxComboBox14OnUpdateDeleteER15wxUpdateUIEvent
_ZN10wxComboBox14wxCreateObjectEv
_ZN10wxComboBox16GetConnectWidgetEv
_ZN10wxComboBox17OnUpdateSelectAllER15wxUpdateUIEvent
_ZN10wxComboBox17SetInsertionPointEl
_ZN10wxComboBox17sm_eventHashTableE
_ZN10wxComboBox18DoApplyWidgetStyleEP11_GtkRcStyle
_ZN10wxComboBox19DoSetItemClientDataEjPv
_ZN10wxComboBox20SetInsertionPointEndEv
_ZN10wxComboBox20sm_eventTableEntriesE
_ZN10wxComboBox21DoSetItemClientObjectEjP12wxClientData
_ZN10wxComboBox25GetClassDefaultAttributesE15wxWindowVariant
_ZN10wxComboBox3CutEv
_ZN10wxComboBox4CopyEv
_ZN10wxComboBox4RedoEv
_ZN10wxComboBox4UndoEv
_ZN10wxComboBox5ClearEv
_ZN10wxComboBox5OnCutER14wxCommandEvent
_ZN10wxComboBox5PasteEv
_ZN10wxComboBox6CreateEP8wxWindowiRK8wxStringRK7wxPointRK6wxSizeiPS3_lRK11wxValidatorS4_
_ZN10wxComboBox6CreateEP8wxWindowiRK8wxStringRK7wxPointRK6wxSizeRK13wxArrayStringlRK11wxValidatorS4_
_ZN10wxComboBox6DeleteEj
_ZN10wxComboBox6OnCharER10wxKeyEvent
_ZN10wxComboBox6OnCopyER14wxCommandEvent
_ZN10wxComboBox6OnRedoER14wxCommandEvent
_ZN10wxComboBox6OnSizeER11wxSizeEvent
_ZN10wxComboBox6OnUndoER14wxCommandEvent
_ZN10wxComboBox6RemoveEll
_ZN10wxComboBox7OnPasteER14wxCommandEvent
_ZN10wxComboBox7ReplaceEllRK8wxString
_ZN10wxComboBox8DoAppendERK8wxString
_ZN10wxComboBox8DoInsertERK8wxStringj
_ZN10wxComboBox8OnDeleteER14wxCommandEvent
_ZN10wxComboBox8SetFocusEv
_ZN10wxComboBox8SetValueERK8wxString
_ZN10wxComboBox9SelectAllEv
_ZN10wxComboBox9SetStringEjRK8wxString
_ZN10wxComboBoxD0Ev
_ZN10wxComboBoxD1Ev
_ZN10wxComboBoxD2Ev
_ZN10wxDCModule12ms_classInfoE
_ZN10wxDCModule14wxCreateObjectEv
_ZN10wxDCModule6OnExitEv
_ZN10wxDCModule6OnInitEv
_ZN10wxDCModuleD0Ev
_ZN10wxDCModuleD1Ev
_ZN10wxDocument10LoadObjectERSi
_ZN10wxDocument10RemoveViewEP6wxView
_ZN10wxDocument10SaveObjectERSo
_ZN10wxDocument11SetFilenameERK8wxStringb
_ZN10wxDocument12ms_classInfoE
_ZN10wxDocument13NotifyClosingEv
_ZN10wxDocument13OnNewDocumentEv
_ZN10wxDocument14DeleteAllViewsEv
_ZN10wxDocument14DeleteContentsEv
_ZN10wxDocument14DoOpenDocumentERK8wxString
_ZN10wxDocument14DoSaveDocumentERK8wxString
_ZN10wxDocument14OnOpenDocumentERK8wxString
_ZN10wxDocument14OnSaveDocumentERK8wxString
_ZN10wxDocument14OnSaveModifiedEv
_ZN10wxDocument14UpdateAllViewsEP6wxViewP8wxObject
_ZN10wxDocument15OnCloseDocumentEv
_ZN10wxDocument17OnChangedViewListEv
_ZN10wxDocument19SetCommandProcessorEP18wxCommandProcessor
_ZN10wxDocument19SetDocumentTemplateEP13wxDocTemplate
_ZN10wxDocument24OnCreateCommandProcessorEv
_ZN10wxDocument4DrawER4wxDC
_ZN10wxDocument4SaveEv
_ZN10wxDocument5CloseEv
_ZN10wxDocument6ModifyEb
_ZN10wxDocument6RevertEv
_ZN10wxDocument6SaveAsEv
_ZN10wxDocument7AddViewEP6wxView
_ZN10wxDocument8OnCreateERK8wxStringl
_ZN10wxDocumentC1EPS_
_ZN10wxDocumentC2EPS_
_ZN10wxDocumentD0Ev
_ZN10wxDocumentD1Ev
_ZN10wxDocumentD2Ev
_ZN10wxFileCtrl10ShowHiddenEb
_ZN10wxFileCtrl10UpdateItemERK10wxListItem
_ZN10wxFileCtrl11GoToHomeDirEv
_ZN10wxFileCtrl11UpdateFilesEv
_ZN10wxFileCtrl12FreeItemDataER10wxListItem
_ZN10wxFileCtrl12ms_classInfoE
_ZN10wxFileCtrl13GoToParentDirEv
_ZN10wxFileCtrl13sm_eventTableE
_ZN10wxFileCtrl14OnListColClickER11wxListEvent
_ZN10wxFileCtrl14wxCreateObjectEv
_ZN10wxFileCtrl16ChangeToListModeEv
_ZN10wxFileCtrl16FreeAllItemsDataEv
_ZN10wxFileCtrl16OnListDeleteItemER11wxListEvent
_ZN10wxFileCtrl17sm_eventHashTableE
_ZN10wxFileCtrl18ChangeToReportModeEv
_ZN10wxFileCtrl18OnListEndLabelEditER11wxListEvent
_ZN10wxFileCtrl20OnListDeleteAllItemsER11wxListEvent
_ZN10wxFileCtrl20sm_eventTableEntriesE
_ZN10wxFileCtrl21ChangeToSmallIconModeEv
_ZN10wxFileCtrl3AddEP10wxFileDataR10wxListItem
_ZN10wxFileCtrl7GoToDirERK8wxString
_ZN10wxFileCtrl7MakeDirEv
_ZN10wxFileCtrl7SetWildERK8wxString
_ZN10wxFileCtrl9SortItemsEN10wxFileData17fileListFieldTypeEb
_ZN10wxFileCtrlC1EP8wxWindowiRK8wxStringbRK7wxPointRK6wxSizelRK11wxValidatorS4_
_ZN10wxFileCtrlC1Ev
_ZN10wxFileCtrlC2EP8wxWindowiRK8wxStringbRK7wxPointRK6wxSizelRK11wxValidatorS4_
_ZN10wxFileCtrlC2Ev
_ZN10wxFileCtrlD0Ev
_ZN10wxFileCtrlD1Ev
_ZN10wxFileCtrlD2Ev
_ZN10wxFileData10SetNewNameERK8wxStringS2_
_ZN10wxFileData4CopyERKS_
_ZN10wxFileData4InitEv
_ZN10wxFileData8MakeItemER10wxListItem
_ZN10wxFileData8ReadDataEv
_ZN10wxFileDataC1ERK8wxStringS2_NS_8fileTypeEi
_ZN10wxFileDataC2ERK8wxStringS2_NS_8fileTypeEi
_ZN10wxFontBase11SetFaceNameERK8wxString
_ZN10wxFontBase12SetPixelSizeERK6wxSize
_ZN10wxFontBase17SetNativeFontInfoERK8wxString
_ZN10wxFontBase17SetNoAntiAliasingEb
_ZN10wxFontBase18ms_encodingDefaultE
_ZN10wxFontBase18SetDefaultEncodingE14wxFontEncoding
_ZN10wxFontBase19DoSetNativeFontInfoERK16wxNativeFontInfo
_ZN10wxFontBase25SetNativeFontInfoUserDescERK8wxString
_ZN10wxFontBase3NewEi12wxFontFamilyiRK8wxString14wxFontEncoding
_ZN10wxFontBase3NewEiiiibRK8wxString14wxFontEncoding
_ZN10wxFontBase3NewERK16wxNativeFontInfo
_ZN10wxFontBase3NewERK6wxSize12wxFontFamilyiRK8wxString14wxFontEncoding
_ZN10wxFontBase3NewERK6wxSizeiiibRK8wxString14wxFontEncoding
_ZN10wxFontBase3NewERK8wxString
_ZN10wxFontBaseD0Ev
_ZN10wxFontBaseD1Ev
_ZN10wxFontBaseD2Ev
_ZN10wxFontData12ms_classInfoE
_ZN10wxFontData14wxCreateObjectEv
_ZN10wxFontDataC1Ev
_ZN10wxFontDataC2Ev
_ZN10wxFontDataD0Ev
_ZN10wxFontDataD1Ev
_ZN10wxFontDataD2Ev
_ZN10wxFontList10RemoveFontEP6wxFont
_ZN10wxFontList16FindOrCreateFontEiiiibRK8wxString14wxFontEncoding
_ZN10wxFontList7AddFontEP6wxFont
_ZN10wxKeyEvent12ms_classInfoE
_ZN10wxKeyEvent14wxCreateObjectEv
_ZN10wxKeyEventC1Ei
_ZN10wxKeyEventC1ERKS_
_ZN10wxKeyEventC2Ei
_ZN10wxKeyEventC2ERKS_
_ZN10wxKeyEventD0Ev
_ZN10wxKeyEventD1Ev
_ZN10wxListbook10InsertPageEjP8wxWindowRK8wxStringbi
_ZN10wxListbook11SetPageTextEjRK8wxString
_ZN10wxListbook12DoRemovePageEj
_ZN10wxListbook12ms_classInfoE
_ZN10wxListbook12SetImageListEP11wxImageList
_ZN10wxListbook12SetPageImageEji
_ZN10wxListbook12SetSelectionEj
_ZN10wxListbook13sm_eventTableE
_ZN10wxListbook14DeleteAllPagesEv
_ZN10wxListbook14OnListSelectedER11wxListEvent
_ZN10wxListbook14wxCreateObjectEv
_ZN10wxListbook15ChangeSelectionEj
_ZN10wxListbook16MakeChangedEventER19wxBookCtrlBaseEvent
_ZN10wxListbook17sm_eventHashTableE
_ZN10wxListbook18UpdateSelectedPageEj
_ZN10wxListbook20sm_eventTableEntriesE
_ZN10wxListbook4InitEv
_ZN10wxListbook6CreateEP8wxWindowiRK7wxPointRK6wxSizelRK8wxString
_ZN10wxListbook6OnSizeER11wxSizeEvent
_ZN10wxListbookD0Ev
_ZN10wxListbookD1Ev
_ZN10wxListCtrl12ms_classInfoE
_ZN10wxListCtrl14wxCreateObjectEv
_ZN10wxListCtrlD0Ev
_ZN10wxListCtrlD1Ev
_ZN10wxListItem12ms_classInfoE
_ZN10wxListItem14wxCreateObjectEv
_ZN10wxListItemD0Ev
_ZN10wxListItemD1Ev
_ZN10wxListView12ms_classInfoE
_ZN10wxListView14wxCreateObjectEv
_ZN10wxListViewD0Ev
_ZN10wxListViewD1Ev
_ZN10wxLogFrame13OnCloseWindowER12wxCloseEvent
_ZN10wxLogFrame13sm_eventTableE
_ZN10wxLogFrame17sm_eventHashTableE
_ZN10wxLogFrame20sm_eventTableEntriesE
_ZN10wxLogFrame6OnSaveER14wxCommandEvent
_ZN10wxLogFrame7DoCloseEv
_ZN10wxLogFrame7OnClearER14wxCommandEvent
_ZN10wxLogFrame7OnCloseER14wxCommandEvent
_ZN10wxLogFrameC1EP8wxWindowP11wxLogWindowPKc
_ZN10wxLogFrameC2EP8wxWindowP11wxLogWindowPKc
_ZN10wxLogFrameD0Ev
_ZN10wxLogFrameD1Ev
_ZN10wxLogFrameD2Ev
_ZN10wxMaskBase6CreateERK8wxBitmap
_ZN10wxMaskBase6CreateERK8wxBitmapi
_ZN10wxMaskBase6CreateERK8wxBitmapRK8wxColour
_ZN10wxMemoryDC12ms_classInfoE
_ZN10wxMemoryDC13SetBackgroundERK7wxBrush
_ZN10wxMemoryDC14wxCreateObjectEv
_ZN10wxMemoryDC17SetTextBackgroundERK8wxColour
_ZN10wxMemoryDC17SetTextForegroundERK8wxColour
_ZN10wxMemoryDC4InitEv
_ZN10wxMemoryDC6SetPenERK5wxPen
_ZN10wxMemoryDC8DoSelectERK8wxBitmap
_ZN10wxMemoryDC8SetBrushERK7wxBrush
_ZN10wxMemoryDCC1EP4wxDC
_ZN10wxMemoryDCC2EP4wxDC
_ZN10wxMemoryDCD0Ev
_ZN10wxMemoryDCD1Ev
_ZN10wxMemoryDCD2Ev
_ZN10wxMenuBase10AddSubMenuEP6wxMenu
_ZN10wxMenuBase13SetHelpStringEiRK8wxString
_ZN10wxMenuBase4InitEl
_ZN10wxMenuBase5BreakEv
_ZN10wxMenuBase5CheckEib
_ZN10wxMenuBase6AttachEP13wxMenuBarBase
_ZN10wxMenuBase6DeleteEP10wxMenuItem
_ZN10wxMenuBase6DetachEv
_ZN10wxMenuBase6EnableEib
_ZN10wxMenuBase6InsertEjP10wxMenuItem
_ZN10wxMenuBase6RemoveEP10wxMenuItem
_ZN10wxMenuBase7DestroyEP10wxMenuItem
_ZN10wxMenuBase8DoAppendEP10wxMenuItem
_ZN10wxMenuBase8DoDeleteEP10wxMenuItem
_ZN10wxMenuBase8DoInsertEjP10wxMenuItem
_ZN10wxMenuBase8DoRemoveEP10wxMenuItem
_ZN10wxMenuBase8SetLabelEiRK8wxString
_ZN10wxMenuBase8SetTitleERK8wxString
_ZN10wxMenuBase8UpdateUIEP12wxEvtHandler
_ZN10wxMenuBase9DoDestroyEP10wxMenuItem
_ZN10wxMenuBase9ms_lockedE
_ZN10wxMenuBase9SendEventEii
_ZN10wxMenuBaseD0Ev
_ZN10wxMenuBaseD1Ev
_ZN10wxMenuBaseD2Ev
_ZN10wxMenuItem12ms_classInfoE
_ZN10wxMenuItem14wxCreateObjectEv
_ZN10wxMenuItem23GTKProcessMenuItemLabelERK8wxStringPS0_
_ZN10wxMenuItem4InitERK8wxString
_ZN10wxMenuItem5CheckEb
_ZN10wxMenuItem6EnableEb
_ZN10wxMenuItem7SetTextERK8wxString
_ZN10wxMenuItem9DoSetTextERK8wxString
_ZN10wxMenuItem9SetBitmapERK8wxBitmap
_ZN10wxMenuItemC1EP6wxMenuiRK8wxStringS4_10wxItemKindS1_
_ZN10wxMenuItemC1EP6wxMenuiRK8wxStringS4_bS1_
_ZN10wxMenuItemC2EP6wxMenuiRK8wxStringS4_10wxItemKindS1_
_ZN10wxMenuItemC2EP6wxMenuiRK8wxStringS4_bS1_
_ZN10wxMenuItemD0Ev
_ZN10wxMenuItemD1Ev
_ZN10wxMenuItemD2Ev
_ZN10wxMenuList10CreateNodeEP10wxNodeBaseS1_PvRK9wxListKey
_ZN10wxMenuListD0Ev
_ZN10wxMenuListD1Ev
_ZN10wxMirrorDC10DoDrawIconERK6wxIconii
_ZN10wxMirrorDC10DoDrawLineEiiii
_ZN10wxMirrorDC10DoDrawTextERK8wxStringii
_ZN10wxMirrorDC10SetMapModeEi
_ZN10wxMirrorDC10SetPaletteERK9wxPalette
_ZN10wxMirrorDC11DoCrossHairEii
_ZN10wxMirrorDC11DoDrawLinesEiP7wxPointii
_ZN10wxMirrorDC11DoDrawPointEii
_ZN10wxMirrorDC11DoFloodFillEiiRK8wxColouri
_ZN10wxMirrorDC12DoDrawBitmapERK8wxBitmapiib
_ZN10wxMirrorDC12SetUserScaleEdd
_ZN10wxMirrorDC13DoDrawEllipseEiiii
_ZN10wxMirrorDC13DoDrawPolygonEiP7wxPointiii
_ZN10wxMirrorDC13SetBackgroundERK7wxBrush
_ZN10wxMirrorDC15DoDrawCheckMarkEiiii
_ZN10wxMirrorDC15DoDrawRectangleEiiii
_ZN10wxMirrorDC15SetDeviceOriginEii
_ZN10wxMirrorDC16SetLogicalOriginEii
_ZN10wxMirrorDC17DoDrawEllipticArcEiiiidd
_ZN10wxMirrorDC17DoDrawRotatedTextERK8wxStringiid
_ZN10wxMirrorDC17SetBackgroundModeEi
_ZN10wxMirrorDC18SetAxisOrientationEbb
_ZN10wxMirrorDC18SetLogicalFunctionEi
_ZN10wxMirrorDC19DoSetClippingRegionEiiii
_ZN10wxMirrorDC21DestroyClippingRegionEv
_ZN10wxMirrorDC22DoDrawRoundedRectangleEiiiid
_ZN10wxMirrorDC27DoSetClippingRegionAsRegionERK8wxRegion
_ZN10wxMirrorDC5ClearEv
_ZN10wxMirrorDC6DoBlitEiiiiP4wxDCiiibii
_ZN10wxMirrorDC6SetPenERK5wxPen
_ZN10wxMirrorDC7SetFontERK6wxFont
_ZN10wxMirrorDC8SetBrushERK7wxBrush
_ZN10wxMirrorDC9DoDrawArcEiiiiii
_ZN10wxMirrorDCD0Ev
_ZN10wxMirrorDCD1Ev
_ZN10wxNotebook10InsertPageEjP8wxWindowRK8wxStringbi
_ZN10wxNotebook10SetPaddingERK6wxSize
_ZN10wxNotebook10SetTabSizeERK6wxSize
_ZN10wxNotebook11SetPageSizeERK6wxSize
_ZN10wxNotebook11SetPageTextEjRK8wxString
_ZN10wxNotebook12DoRemovePageEj
_ZN10wxNotebook12ms_classInfoE
_ZN10wxNotebook12SetPageImageEji
_ZN10wxNotebook12SetSelectionEj
_ZN10wxNotebook13sm_eventTableE
_ZN10wxNotebook14DeleteAllPagesEv
_ZN10wxNotebook14DoSetSelectionEji
_ZN10wxNotebook14wxCreateObjectEv
_ZN10wxNotebook15ChangeSelectionEj
_ZN10wxNotebook15OnNavigationKeyER20wxNavigationKeyEvent
_ZN10wxNotebook17sm_eventHashTableE
_ZN10wxNotebook18DoApplyWidgetStyleEP11_GtkRcStyle
_ZN10wxNotebook18SetConstraintSizesEb
_ZN10wxNotebook20sm_eventTableEntriesE
_ZN10wxNotebook25GetClassDefaultAttributesE15wxWindowVariant
_ZN10wxNotebook4InitEv
_ZN10wxNotebook6CreateEP8wxWindowiRK7wxPointRK6wxSizelRK8wxString
_ZN10wxNotebook7DoPhaseEi
_ZN10wxNotebookC1EP8wxWindowiRK7wxPointRK6wxSizelRK8wxString
_ZN10wxNotebookC1Ev
_ZN10wxNotebookC2EP8wxWindowiRK7wxPointRK6wxSizelRK8wxString
_ZN10wxNotebookC2Ev
_ZN10wxNotebookD0Ev
_ZN10wxNotebookD1Ev
_ZN10wxNotebookD2Ev
_ZN10wxPrintout11GetPageInfoEPiS0_S0_S0_
_ZN10wxPrintout12ms_classInfoE
_ZN10wxPrintout12SetIsPreviewEb
_ZN10wxPrintout13OnEndDocumentEv
_ZN10wxPrintout13OnEndPrintingEv
_ZN10wxPrintout15OnBeginDocumentEii
_ZN10wxPrintout15OnBeginPrintingEv
_ZN10wxPrintout16SetLogicalOriginEii
_ZN10wxPrintout17FitThisSizeToPageERK6wxSize
_ZN10wxPrintout17OnPreparePrintingEv
_ZN10wxPrintout18FitThisSizeToPaperERK6wxSize
_ZN10wxPrintout19MapScreenSizeToPageEv
_ZN10wxPrintout19OffsetLogicalOriginEii
_ZN10wxPrintout20MapScreenSizeToPaperEv
_ZN10wxPrintout21MapScreenSizeToDeviceEv
_ZN10wxPrintout24FitThisSizeToPageMarginsERK6wxSizeRK21wxPageSetupDialogData
_ZN10wxPrintout26MapScreenSizeToPageMarginsERK21wxPageSetupDialogData
_ZN10wxPrintout7HasPageEi
_ZN10wxPrintoutC1ERK8wxString
_ZN10wxPrintoutC2ERK8wxString
_ZN10wxPrintoutD0Ev
_ZN10wxPrintoutD1Ev
_ZN10wxPrintoutD2Ev
_ZN10wxQuantize10DoQuantizeEjjPPhS1_S0_i
_ZN10wxQuantize12ms_classInfoE
_ZN10wxQuantize14wxCreateObjectEv
_ZN10wxQuantize8QuantizeERK7wxImageRS0_iPPhi
_ZN10wxQuantize8QuantizeERK7wxImageRS0_PP9wxPaletteiPPhi
_ZN10wxQuantizeD0Ev
_ZN10wxQuantizeD1Ev
_ZN10wxRadioBox12ApplyToolTipEP12_GtkTooltipsPKc
_ZN10wxRadioBox12ms_classInfoE
_ZN10wxRadioBox12SetSelectionEi
_ZN10wxRadioBox14OnInternalIdleEv
_ZN10wxRadioBox14wxCreateObjectEv
_ZN10wxRadioBox15GtkEnableEventsEv
_ZN10wxRadioBox16DoSetItemToolTipEjP9wxToolTip
_ZN10wxRadioBox16GtkDisableEventsEv
_ZN10wxRadioBox18DoApplyWidgetStyleEP11_GtkRcStyle
_ZN10wxRadioBox22GTKWidgetDoSetMnemonicEP10_GtkWidget
_ZN10wxRadioBox25GetClassDefaultAttributesE15wxWindowVariant
_ZN10wxRadioBox4InitEv
_ZN10wxRadioBox4ShowEb
_ZN10wxRadioBox4ShowEjb
_ZN10wxRadioBox6CreateEP8wxWindowiRK8wxStringRK7wxPointRK6wxSizeiPS3_ilRK11wxValidatorS4_
_ZN10wxRadioBox6CreateEP8wxWindowiRK8wxStringRK7wxPointRK6wxSizeRK13wxArrayStringilRK11wxValidatorS4_
_ZN10wxRadioBox6EnableEb
_ZN10wxRadioBox6EnableEjb
_ZN10wxRadioBox8SetFocusEv
_ZN10wxRadioBox8SetLabelERK8wxString
_ZN10wxRadioBox9SetStringEjRK8wxString
_ZN10wxRadioBoxD0Ev
_ZN10wxRadioBoxD1Ev
_ZN10wxRadioBoxD2Ev
_ZN10wxScreenDC12ms_classInfoE
_ZN10wxScreenDC14wxCreateObjectEv
_ZN10wxScreenDC15EndDrawingOnTopEv
_ZN10wxScreenDC16sm_overlayWindowE
_ZN10wxScreenDC17sm_overlayWindowXE
_ZN10wxScreenDC17sm_overlayWindowYE
_ZN10wxScreenDC17StartDrawingOnTopEP6wxRect
_ZN10wxScreenDC17StartDrawingOnTopEP8wxWindow
_ZN10wxScreenDCC1Ev
_ZN10wxScreenDCC2Ev
_ZN10wxScreenDCD0Ev
_ZN10wxScreenDCD1Ev
_ZN10wxScreenDCD2Ev
_ZN10wxSpinCtrl12ms_classInfoE
_ZN10wxSpinCtrl12SetSelectionEll
_ZN10wxSpinCtrl13sm_eventTableE
_ZN10wxSpinCtrl14wxCreateObjectEv
_ZN10wxSpinCtrl17sm_eventHashTableE
_ZN10wxSpinCtrl20sm_eventTableEntriesE
_ZN10wxSpinCtrl25GetClassDefaultAttributesE15wxWindowVariant
_ZN10wxSpinCtrl6CreateEP8wxWindowiRK8wxStringRK7wxPointRK6wxSizeliiiS4_
_ZN10wxSpinCtrl6OnCharER10wxKeyEvent
_ZN10wxSpinCtrl8SetRangeEii
_ZN10wxSpinCtrl8SetValueEi
_ZN10wxSpinCtrl8SetValueERK8wxString
_ZN10wxSpinCtrlC1Ev
_ZN10wxSpinCtrlC2Ev
_ZN10wxSpinCtrlD0Ev
_ZN10wxSpinCtrlD1Ev
_ZN10wxStockGDI11ms_instanceE
_ZN10wxStockGDI14ms_stockObjectE
_ZN10wxStockGDI6GetPenENS_4ItemE
_ZN10wxStockGDI7GetFontENS_4ItemE
_ZN10wxStockGDI8GetBrushENS_4ItemE
_ZN10wxStockGDI9DeleteAllEv
_ZN10wxStockGDI9GetColourENS_4ItemE
_ZN10wxStockGDI9GetCursorENS_4ItemE
_ZN10wxStockGDIC1Ev
_ZN10wxStockGDIC2Ev
_ZN10wxStockGDID0Ev
_ZN10wxStockGDID1Ev
_ZN10wxStockGDID2Ev
_ZN10wxTextAttr4InitEv
_ZN10wxTextAttr7CombineERKS_S1_PK14wxTextCtrlBase
_ZN10wxTextAttraSERKS_
_ZN10wxTextAttrC1ERK8wxColourS2_RK6wxFont19wxTextAttrAlignment
_ZN10wxTextAttrC2ERK8wxColourS2_RK6wxFont19wxTextAttrAlignment
_ZN10wxTextCtrl10AppendTextERK8wxString
_ZN10wxTextCtrl10DoSetValueERK8wxStringi
_ZN10wxTextCtrl11OnDropFilesER16wxDropFilesEvent
_ZN10wxTextCtrl11OnUpdateCutER15wxUpdateUIEvent
_ZN10wxTextCtrl11SetEditableEb
_ZN10wxTextCtrl12DiscardEditsEv
_ZN10wxTextCtrl12ms_classInfoE
_ZN10wxTextCtrl12OnUpdateCopyER15wxUpdateUIEvent
_ZN10wxTextCtrl12OnUpdateRedoER15wxUpdateUIEvent
_ZN10wxTextCtrl12OnUpdateUndoER15wxUpdateUIEvent
_ZN10wxTextCtrl12SetMaxLengthEm
_ZN10wxTextCtrl12SetSelectionEll
_ZN10wxTextCtrl12ShowPositionEl
_ZN10wxTextCtrl13OnUpdatePasteER15wxUpdateUIEvent
_ZN10wxTextCtrl13sm_eventTableE
_ZN10wxTextCtrl14GTKSetEditableEv
_ZN10wxTextCtrl14GTKSetWrapModeEv
_ZN10wxTextCtrl14OnParentEnableEb
_ZN10wxTextCtrl14wxCreateObjectEv
_ZN10wxTextCtrl15OnUrlMouseEventER12wxMouseEvent
_ZN10wxTextCtrl16GetConnectWidgetEv
_ZN10wxTextCtrl16GTKSetVisibilityEv
_ZN10wxTextCtrl16IgnoreTextUpdateEv
_ZN10wxTextCtrl17MarkDirtyOnChangeEv
_ZN10wxTextCtrl17SetInsertionPointEl
_ZN10wxTextCtrl17sm_eventHashTableE
_ZN10wxTextCtrl18ChangeFontGloballyEv
_ZN10wxTextCtrl18DoApplyWidgetStyleEP11_GtkRcStyle
_ZN10wxTextCtrl18SetWindowStyleFlagEl
_ZN10wxTextCtrl19GTKSetJustificationEv
_ZN10wxTextCtrl19SetBackgroundColourERK8wxColour
_ZN10wxTextCtrl19SetForegroundColourERK8wxColour
_ZN10wxTextCtrl20SetInsertionPointEndEv
_ZN10wxTextCtrl20sm_eventTableEntriesE
_ZN10wxTextCtrl25GetClassDefaultAttributesE15wxWindowVariant
_ZN10wxTextCtrl3CutEv
_ZN10wxTextCtrl4CopyEv
_ZN10wxTextCtrl4InitEv
_ZN10wxTextCtrl4RedoEv
_ZN10wxTextCtrl4ThawEv
_ZN10wxTextCtrl4UndoEv
_ZN10wxTextCtrl5ClearEv
_ZN10wxTextCtrl5OnCutER14wxCommandEvent
_ZN10wxTextCtrl5PasteEv
_ZN10wxTextCtrl6CreateEP8wxWindowiRK8wxStringRK7wxPointRK6wxSizelRK11wxValidatorS4_
_ZN10wxTextCtrl6EnableEb
_ZN10wxTextCtrl6FreezeEv
_ZN10wxTextCtrl6OnCharER10wxKeyEvent
_ZN10wxTextCtrl6OnCopyER14wxCommandEvent
_ZN10wxTextCtrl6OnRedoER14wxCommandEvent
_ZN10wxTextCtrl6OnUndoER14wxCommandEvent
_ZN10wxTextCtrl6RemoveEll
_ZN10wxTextCtrl7OnPasteER14wxCommandEvent
_ZN10wxTextCtrl7ReplaceEllRK8wxString
_ZN10wxTextCtrl7SetFontERK6wxFont
_ZN10wxTextCtrl8SetStyleEllRK10wxTextAttr
_ZN10wxTextCtrl9MarkDirtyEv
_ZN10wxTextCtrl9WriteTextERK8wxString
_ZN10wxTextCtrlC1EP8wxWindowiRK8wxStringRK7wxPointRK6wxSizelRK11wxValidatorS4_
_ZN10wxTextCtrlC2EP8wxWindowiRK8wxStringRK7wxPointRK6wxSizelRK11wxValidatorS4_
_ZN10wxTextCtrlC2Ev
_ZN10wxTextCtrlD0Ev
_ZN10wxTextCtrlD1Ev
_ZN10wxTextCtrlD2Ev
_ZN10wxToolbook10InsertPageEjP8wxWindowRK8wxStringbi
_ZN10wxToolbook11SetPageTextEjRK8wxString
_ZN10wxToolbook12DoRemovePageEj
_ZN10wxToolbook12ms_classInfoE
_ZN10wxToolbook12SetImageListEP11wxImageList
_ZN10wxToolbook12SetPageImageEji
_ZN10wxToolbook12SetSelectionEj
_ZN10wxToolbook13sm_eventTableE
_ZN10wxToolbook14DeleteAllPagesEv
_ZN10wxToolbook14OnToolSelectedER14wxCommandEvent
_ZN10wxToolbook14wxCreateObjectEv
_ZN10wxToolbook15ChangeSelectionEj
_ZN10wxToolbook16MakeChangedEventER19wxBookCtrlBaseEvent
_ZN10wxToolbook17sm_eventHashTableE
_ZN10wxToolbook18UpdateSelectedPageEj
_ZN10wxToolbook20sm_eventTableEntriesE
_ZN10wxToolbook4InitEv
_ZN10wxToolbook6CreateEP8wxWindowiRK7wxPointRK6wxSizelRK8wxString
_ZN10wxToolbook6OnIdleER11wxIdleEvent
_ZN10wxToolbook6OnSizeER11wxSizeEvent
_ZN10wxToolbook7RealizeEv
_ZN10wxToolbookD0Ev
_ZN10wxToolbookD1Ev
_ZN10wxTreebook10AddSubPageEP8wxWindowRK8wxStringbi
_ZN10wxTreebook10DeletePageEj
_ZN10wxTreebook10ExpandNodeEjb
_ZN10wxTreebook10InsertPageEjP8wxWindowRK8wxStringbi
_ZN10wxTreebook11RemoveChildEP12wxWindowBase
_ZN10wxTreebook11SetPageTextEjRK8wxString
_ZN10wxTreebook12DoAddSubPageEP8wxWindowRK8wxStringbi
_ZN10wxTreebook12DoInsertPageEjP8wxWindowRK8wxStringbi
_ZN10wxTreebook12DoRemovePageEj
_ZN10wxTreebook12ms_classInfoE
_ZN10wxTreebook12OnChildFocusER17wxChildFocusEvent
_ZN10wxTreebook12SetImageListEP11wxImageList
_ZN10wxTreebook12SetPageImageEji
_ZN10wxTreebook12SetSelectionEj
_ZN10wxTreebook13InsertSubPageEjP8wxWindowRK8wxStringbi
_ZN10wxTreebook13sm_eventTableE
_ZN10wxTreebook14DeleteAllPagesEv
_ZN10wxTreebook14DoSetSelectionEji
_ZN10wxTreebook14wxCreateObjectEv
_ZN10wxTreebook15AssignImageListEP11wxImageList
_ZN10wxTreebook15ChangeSelectionEj
_ZN10wxTreebook15DoInsertSubPageEjP8wxWindowRK8wxStringbi
_ZN10wxTreebook15OnNavigationKeyER20wxNavigationKeyEvent
_ZN10wxTreebook17DoInternalAddPageEjP8wxWindow12wxTreeItemId
_ZN10wxTreebook17DoUpdateSelectionEbi
_ZN10wxTreebook17sm_eventHashTableE
_ZN10wxTreebook20sm_eventTableEntriesE
_ZN10wxTreebook21OnTreeSelectionChangeER11wxTreeEvent
_ZN10wxTreebook24SetFocusIgnoringChildrenEv
_ZN10wxTreebook25DoInternalRemovePageRangeEjj
_ZN10wxTreebook27OnTreeNodeExpandedCollapsedER11wxTreeEvent
_ZN10wxTreebook4InitEv
_ZN10wxTreebook6CreateEP8wxWindowiRK7wxPointRK6wxSizelRK8wxString
_ZN10wxTreebook7AddPageEP8wxWindowRK8wxStringbi
_ZN10wxTreebook7OnFocusER12wxFocusEvent
_ZN10wxTreebook8SetFocusEv
_ZN10wxTreebookD0Ev
_ZN10wxTreebookD1Ev
_ZN10wxTreeCtrl12ms_classInfoE
_ZN10wxTreeCtrl14wxCreateObjectEv
_ZN10wxTreeCtrlD0Ev
_ZN10wxTreeCtrlD1Ev
_ZN10wxVListBox10OnLeftDownER12wxMouseEvent
_ZN10wxVListBox10SetMarginsERK7wxPoint
_ZN10wxVListBox11DoSelectAllEb
_ZN10wxVListBox11SelectRangeEjj
_ZN10wxVListBox12DoSetCurrentEi
_ZN10wxVListBox12ms_classInfoE
_ZN10wxVListBox12OnLeftDClickER12wxMouseEvent
_ZN10wxVListBox12SetItemCountEj
_ZN10wxVListBox12SetSelectionEi
_ZN10wxVListBox13sm_eventTableE
_ZN10wxVListBox17DoHandleItemClickEii
_ZN10wxVListBox17SendSelectedEventEv
_ZN10wxVListBox17sm_eventHashTableE
_ZN10wxVListBox20sm_eventTableEntriesE
_ZN10wxVListBox22SetSelectionBackgroundERK8wxColour
_ZN10wxVListBox25GetClassDefaultAttributesE15wxWindowVariant
_ZN10wxVListBox4InitEv
_ZN10wxVListBox6CreateEP8wxWindowiRK7wxPointRK6wxSizelRK8wxString
_ZN10wxVListBox6SelectEjb
_ZN10wxVListBox7OnPaintER12wxPaintEvent
_ZN10wxVListBox9OnKeyDownER10wxKeyEvent
_ZN10wxVListBoxD0Ev
_ZN10wxVListBoxD1Ev
_ZN10wxVListBoxD2Ev
_ZN10wxWindowDC10DoDrawIconERK6wxIconii
_ZN10wxWindowDC10DoDrawLineEiiii
_ZN10wxWindowDC10DoDrawTextERK8wxStringii
_ZN10wxWindowDC10SetPaletteERK9wxPalette
_ZN10wxWindowDC11DoCrossHairEii
_ZN10wxWindowDC11DoDrawLinesEiP7wxPointii
_ZN10wxWindowDC11DoDrawPointEii
_ZN10wxWindowDC11DoFloodFillEiiRK8wxColouri
_ZN10wxWindowDC12DoDrawBitmapERK8wxBitmapiib
_ZN10wxWindowDC12ms_classInfoE
_ZN10wxWindowDC13DoDrawEllipseEiiii
_ZN10wxWindowDC13DoDrawPolygonEiP7wxPointiii
_ZN10wxWindowDC13SetBackgroundERK7wxBrush
_ZN10wxWindowDC14wxCreateObjectEv
_ZN10wxWindowDC15DoDrawRectangleEiiii
_ZN10wxWindowDC15SetDeviceOriginEii
_ZN10wxWindowDC17DoDrawEllipticArcEiiiidd
_ZN10wxWindowDC17DoDrawRotatedTextERK8wxStringiid
_ZN10wxWindowDC17SetBackgroundModeEi
_ZN10wxWindowDC17SetTextBackgroundERK8wxColour
_ZN10wxWindowDC17SetTextForegroundERK8wxColour
_ZN10wxWindowDC18SetAxisOrientationEbb
_ZN10wxWindowDC18SetLogicalFunctionEi
_ZN10wxWindowDC19DoSetClippingRegionEiiii
_ZN10wxWindowDC21ComputeScaleAndOriginEv
_ZN10wxWindowDC21DestroyClippingRegionEv
_ZN10wxWindowDC22DoDrawRoundedRectangleEiiiid
_ZN10wxWindowDC27DoSetClippingRegionAsRegionERK8wxRegion
_ZN10wxWindowDC5ClearEv
_ZN10wxWindowDC6DoBlitEiiiiP4wxDCiiibii
_ZN10wxWindowDC6SetPenERK5wxPen
_ZN10wxWindowDC7DestroyEv
_ZN10wxWindowDC7SetFontERK6wxFont
_ZN10wxWindowDC7SetUpDCEv
_ZN10wxWindowDC8SetBrushERK7wxBrush
_ZN10wxWindowDC9DoDrawArcEiiiiii
_ZN10wxWindowDCC1EP8wxWindow
_ZN10wxWindowDCC1Ev
_ZN10wxWindowDCC2EP8wxWindow
_ZN10wxWindowDCC2Ev
_ZN10wxWindowDCD0Ev
_ZN10wxWindowDCD1Ev
_ZN10wxWindowDCD2Ev
_ZN11wxAccelList10CreateNodeEP10wxNodeBaseS1_PvRK9wxListKey
_ZN11wxAccelListD0Ev
_ZN11wxAccelListD1Ev
_ZN11wxAppTraitsD0Ev
_ZN11wxAppTraitsD1Ev
_ZN11wxBrushBaseD0Ev
_ZN11wxBrushBaseD1Ev
_ZN11wxBrushList11RemoveBrushEP7wxBrush
_ZN11wxBrushList17FindOrCreateBrushERK8wxColouri
_ZN11wxBrushList8AddBrushEP7wxBrush
_ZN11wxCaretBase10OnSetFocusEv
_ZN11wxCaretBase11OnKillFocusEv
_ZN11wxCaretBase12GetBlinkTimeEv
_ZN11wxCaretBase12SetBlinkTimeEi
_ZN11wxCaretBase4HideEv
_ZN11wxCaretBase4ShowEb
_ZN11wxCaretBase6DoSizeEv
_ZN11wxCaretBase8DoCreateEP12wxWindowBaseii
_ZN11wxCaretBaseD0Ev
_ZN11wxCaretBaseD1Ev
_ZN11wxClipboard11IsSupportedERK12wxDataFormat
_ZN11wxClipboard12ms_classInfoE
_ZN11wxClipboard14wxCreateObjectEv
_ZN11wxClipboard19UsePrimarySelectionEb
_ZN11wxClipboard4OpenEv
_ZN11wxClipboard5ClearEv
_ZN11wxClipboard5CloseEv
_ZN11wxClipboard7AddDataEP12wxDataObject
_ZN11wxClipboard7GetDataER12wxDataObject
_ZN11wxClipboard7SetDataEP12wxDataObject
_ZN11wxClipboardC1Ev
_ZN11wxClipboardC2Ev
_ZN11wxClipboardD0Ev
_ZN11wxClipboardD1Ev
_ZN11wxClipboardD2Ev
_ZN11wxComboCtrl12ms_classInfoE
_ZN11wxComboCtrl14wxCreateObjectEv
_ZN11wxComboCtrlD0Ev
_ZN11wxComboCtrlD1Ev
_ZN11wxDCOverlay4InitEP10wxWindowDCiiii
_ZN11wxDCOverlay5ClearEv
_ZN11wxDCOverlayC1ER9wxOverlayP10wxWindowDC
_ZN11wxDCOverlayC1ER9wxOverlayP10wxWindowDCiiii
_ZN11wxDCOverlayC2ER9wxOverlayP10wxWindowDC
_ZN11wxDCOverlayC2ER9wxOverlayP10wxWindowDCiiii
_ZN11wxDCOverlayD0Ev
_ZN11wxDCOverlayD1Ev
_ZN11wxDCOverlayD2Ev
_ZN11wxDirButton12ms_classInfoE
_ZN11wxDirButton14wxCreateObjectEv
_ZN11wxDirButton15GetDialogParentEv
_ZN11wxDirButton6CreateEP8wxWindowiRK8wxStringS4_S4_S4_RK7wxPointRK6wxSizelRK11wxValidatorS4_
_ZN11wxDirButton7DestroyEv
_ZN11wxDirButton7SetPathERK8wxString
_ZN11wxDirButtonD0Ev
_ZN11wxDirButtonD1Ev
_ZN11wxDirButtonD2Ev
_ZN11wxDirDialog12ms_classInfoE
_ZN11wxDirDialog13sm_eventTableE
_ZN11wxDirDialog14wxCreateObjectEv
_ZN11wxDirDialog17sm_eventHashTableE
_ZN11wxDirDialog20sm_eventTableEntriesE
_ZN11wxDirDialog4ShowEb
_ZN11wxDirDialog7SetPathERK8wxString
_ZN11wxDirDialog8OnFakeOkER14wxCommandEvent
_ZN11wxDirDialog9DoSetSizeEiiiii
_ZN11wxDirDialog9ShowModalEv
_ZN11wxDirDialogC1EP8wxWindowRK8wxStringS4_lRK7wxPointRK6wxSizeS4_
_ZN11wxDirDialogC2EP8wxWindowRK8wxStringS4_lRK7wxPointRK6wxSizeS4_
_ZN11wxDirDialogD0Ev
_ZN11wxDirDialogD1Ev
_ZN11wxEventLoop3RunEv
_ZN11wxEventLoop4ExitEi
_ZN11wxEventLoop8DispatchEv
_ZN11wxEventLoopD0Ev
_ZN11wxEventLoopD1Ev
_ZN11wxEventLoopD2Ev
_ZN11wxFrameBase10DoGiveHelpERK8wxStringb
_ZN11wxFrameBase10OnMenuOpenER11wxMenuEvent
_ZN11wxFrameBase10SetMenuBarEP9wxMenuBar
_ZN11wxFrameBase10SetToolBarEP9wxToolBar
_ZN11wxFrameBase11OnMenuCloseER11wxMenuEvent
_ZN11wxFrameBase12SetStatusBarEP11wxStatusBar
_ZN11wxFrameBase12ShowMenuHelpEP11wxStatusBari
_ZN11wxFrameBase13AttachMenuBarEP9wxMenuBar
_ZN11wxFrameBase13CreateToolBarEliRK8wxString
_ZN11wxFrameBase13DeleteAllBarsEv
_ZN11wxFrameBase13DetachMenuBarEv
_ZN11wxFrameBase13DoMenuUpdatesEP6wxMenu
_ZN11wxFrameBase13PopStatusTextEi
_ZN11wxFrameBase13SendSizeEventEv
_ZN11wxFrameBase13SetStatusTextERK8wxStringi
_ZN11wxFrameBase13sm_eventTableE
_ZN11wxFrameBase14OnInternalIdleEv
_ZN11wxFrameBase14ProcessCommandEi
_ZN11wxFrameBase14PushStatusTextERK8wxStringi
_ZN11wxFrameBase14UpdateWindowUIEl
_ZN11wxFrameBase15CreateStatusBarEiliRK8wxString
_ZN11wxFrameBase15OnCreateToolBarEliRK8wxString
_ZN11wxFrameBase15OnMenuHighlightER11wxMenuEvent
_ZN11wxFrameBase15PositionMenuBarEv
_ZN11wxFrameBase15PositionToolBarEv
_ZN11wxFrameBase15SetStatusWidthsEiPKi
_ZN11wxFrameBase17OnCreateStatusBarEiliRK8wxString
_ZN11wxFrameBase17PositionStatusBarEv
_ZN11wxFrameBase17sm_eventHashTableE
_ZN11wxFrameBase20sm_eventTableEntriesE
_ZN11wxFrameBase3NewEP8wxWindowiRK8wxStringRK7wxPointRK6wxSizelS4_
_ZN11wxFrameBaseC1Ev
_ZN11wxFrameBaseC2Ev
_ZN11wxFrameBaseD0Ev
_ZN11wxFrameBaseD1Ev
_ZN11wxFrameBaseD2Ev
_ZN11wxGaugeBase12SetBezelFaceEi
_ZN11wxGaugeBase14SetShadowWidthEi
_ZN11wxGaugeBase5PulseEv
_ZN11wxGaugeBase6CreateEP8wxWindowiiRK7wxPointRK6wxSizelRK11wxValidatorRK8wxString
_ZN11wxGaugeBase8SetRangeEi
_ZN11wxGaugeBase8SetValueEi
_ZN11wxGaugeBaseD0Ev
_ZN11wxGaugeBaseD1Ev
_ZN11wxGaugeBaseD2Ev
_ZN11wxGDIObject12ms_classInfoE
_ZN11wxGDIObject14wxCreateObjectEv
_ZN11wxGDIObjectD0Ev
_ZN11wxGDIObjectD1Ev
_ZN11wxGridSizer11RecalcSizesEv
_ZN11wxGridSizer12ms_classInfoE
_ZN11wxGridSizer13SetItemBoundsEP11wxSizerItemiiii
_ZN11wxGridSizer7CalcMinEv
_ZN11wxGridSizerC1Eiii
_ZN11wxGridSizerC1Eiiii
_ZN11wxGridSizerC2Eiii
_ZN11wxGridSizerC2Eiiii
_ZN11wxGridSizerD0Ev
_ZN11wxGridSizerD1Ev
_ZN11wxHelpEvent11GuessOriginENS_6OriginE
_ZN11wxHelpEvent12ms_classInfoE
_ZN11wxHelpEvent14wxCreateObjectEv
_ZN11wxHelpEventD0Ev
_ZN11wxHelpEventD1Ev
_ZN11wxIconArray3AddERK6wxIconj
_ZN11wxIconArray6DoCopyERKS_
_ZN11wxIconArray6InsertERK6wxIconjj
_ZN11wxIconArray7DoEmptyEv
_ZN11wxIconArray8RemoveAtEjj
_ZN11wxIconArrayaSERKS_
_ZN11wxIconArrayC1ERKS_
_ZN11wxIconArrayC2ERKS_
_ZN11wxIconArrayD1Ev
_ZN11wxIconArrayD2Ev
_ZN11wxIdleEvent11sm_idleModeE
_ZN11wxIdleEvent12ms_classInfoE
_ZN11wxIdleEvent14wxCreateObjectEv
_ZN11wxIdleEvent7CanSendEP8wxWindow
_ZN11wxIdleEventD0Ev
_ZN11wxIdleEventD1Ev
_ZN11wxImageList12ms_classInfoE
_ZN11wxImageList14wxCreateObjectEv
_ZN11wxImageListD0Ev
_ZN11wxImageListD1Ev
_ZN11wxInfoFrameC1EP8wxWindowRK8wxString
_ZN11wxInfoFrameC2EP8wxWindowRK8wxString
_ZN11wxInfoFrameD0Ev
_ZN11wxInfoFrameD1Ev
_ZN11wxListEvent12ms_classInfoE
_ZN11wxListEvent14wxCreateObjectEv
_ZN11wxListEventD0Ev
_ZN11wxListEventD1Ev
_ZN11wxLogDialog10ms_detailsE
_ZN11wxLogDialog12OnListSelectER11wxListEvent
_ZN11wxLogDialog13sm_eventTableE
_ZN11wxLogDialog17sm_eventHashTableE
_ZN11wxLogDialog20sm_eventTableEntriesE
_ZN11wxLogDialog21CreateDetailsControlsEv
_ZN11wxLogDialog4OnOkER14wxCommandEvent
_ZN11wxLogDialog6OnSaveER14wxCommandEvent
_ZN11wxLogDialog9OnDetailsER14wxCommandEvent
_ZN11wxLogDialogC1EP8wxWindowRK13wxArrayStringRK10wxArrayIntRK11wxArrayLongRK8wxStringl
_ZN11wxLogDialogC2EP8wxWindowRK13wxArrayStringRK10wxArrayIntRK11wxArrayLongRK8wxStringl
_ZN11wxLogDialogD0Ev
_ZN11wxLogDialogD1Ev
_ZN11wxLogDialogD2Ev
_ZN11wxLogWindow11DoLogStringEPKcl
_ZN11wxLogWindow12OnFrameCloseEP7wxFrame
_ZN11wxLogWindow13OnFrameCreateEP7wxFrame
_ZN11wxLogWindow13OnFrameDeleteEP7wxFrame
_ZN11wxLogWindow4ShowEb
_ZN11wxLogWindow5DoLogEmPKcl
_ZN11wxLogWindowC1EP8wxWindowPKcbb
_ZN11wxLogWindowC2EP8wxWindowPKcbb
_ZN11wxLogWindowD0Ev
_ZN11wxLogWindowD1Ev
_ZN11wxLogWindowD2Ev
_ZN11wxMenuEvent12ms_classInfoE
_ZN11wxMenuEvent14wxCreateObjectEv
_ZN11wxMenuEventD0Ev
_ZN11wxMenuEventD1Ev
_ZN11wxMiniFrame12ms_classInfoE
_ZN11wxMiniFrame14wxCreateObjectEv
_ZN11wxMiniFrame6CreateEP8wxWindowiRK8wxStringRK7wxPointRK6wxSizelS4_
_ZN11wxMiniFrame8SetTitleERK8wxString
_ZN11wxMiniFrameD0Ev
_ZN11wxMiniFrameD1Ev
_ZN11wxMoveEvent12ms_classInfoE
_ZN11wxMoveEvent14wxCreateObjectEv
_ZN11wxMoveEventD0Ev
_ZN11wxMoveEventD1Ev
_ZN11wxPrintData11SetPrivDataEPci
_ZN11wxPrintData12ms_classInfoE
_ZN11wxPrintData14wxCreateObjectEv
_ZN11wxPrintData15ConvertToNativeEv
_ZN11wxPrintData17ConvertFromNativeEv
_ZN11wxPrintDataaSERKS_
_ZN11wxPrintDataC1ERKS_
_ZN11wxPrintDataC1Ev
_ZN11wxPrintDataC2ERKS_
_ZN11wxPrintDataC2Ev
_ZN11wxPrintDataD0Ev
_ZN11wxPrintDataD1Ev
_ZN11wxPrintDataD2Ev
_ZN11wxRect2DInt11ConstrainToERKS_
_ZN11wxRect2DInt5UnionERK12wxPoint2DInt
_ZN11wxRect2DInt5UnionERKS_S1_PS_
_ZN11wxRect2DInt8ReadFromER17wxDataInputStream
_ZN11wxRect2DInt9IntersectERKS_S1_PS_
_ZN11wxRect2DIntaSERKS_
_ZN11wxScrollBar11SetPageSizeEi
_ZN11wxScrollBar12ms_classInfoE
_ZN11wxScrollBar12SetScrollbarEiiiib
_ZN11wxScrollBar14wxCreateObjectEv
_ZN11wxScrollBar16SetThumbPositionEi
_ZN11wxScrollBar25GetClassDefaultAttributesE15wxWindowVariant
_ZN11wxScrollBar6CreateEP8wxWindowiRK7wxPointRK6wxSizelRK11wxValidatorRK8wxString
_ZN11wxScrollBar8SetRangeEi
_ZN11wxScrollBarC1Ev
_ZN11wxScrollBarC2Ev
_ZN11wxScrollBarD0Ev
_ZN11wxScrollBarD1Ev
_ZN11wxScrollBarD2Ev
_ZN11wxShowEvent12ms_classInfoE
_ZN11wxShowEvent14wxCreateObjectEv
_ZN11wxShowEventD0Ev
_ZN11wxShowEventD1Ev
_ZN11wxSizeEvent12ms_classInfoE
_ZN11wxSizeEvent14wxCreateObjectEv
_ZN11wxSizeEventD0Ev
_ZN11wxSizeEventD1Ev
_ZN11wxSizerItem12ms_classInfoE
_ZN11wxSizerItem12SetDimensionERK7wxPointRK6wxSize
_ZN11wxSizerItem13DeleteWindowsEv
_ZN11wxSizerItem4InitERK12wxSizerFlags
_ZN11wxSizerItem4ShowEb
_ZN11wxSizerItem7CalcMinEv
_ZN11wxSizerItem7GetRectEv
_ZN11wxSizerItem8SetSizerEP7wxSizer
_ZN11wxSizerItem9SetOptionEi
_ZN11wxSizerItem9SetSpacerERK6wxSize
_ZN11wxSizerItem9SetWindowEP8wxWindow
_ZN11wxSizerItemC1EiiiiiP8wxObject
_ZN11wxSizerItemC1EP7wxSizeriiiP8wxObject
_ZN11wxSizerItemC1EP8wxWindowiiiP8wxObject
_ZN11wxSizerItemC1Ev
_ZN11wxSizerItemC2EiiiiiP8wxObject
_ZN11wxSizerItemC2EP7wxSizeriiiP8wxObject
_ZN11wxSizerItemC2EP8wxWindowiiiP8wxObject
_ZN11wxSizerItemC2Ev
_ZN11wxSizerItemD0Ev
_ZN11wxSizerItemD1Ev
_ZN11wxSizerItemD2Ev
_ZN11wxSpinEvent12ms_classInfoE
_ZN11wxSpinEvent14wxCreateObjectEv
_ZN11wxSpinEventD0Ev
_ZN11wxSpinEventD1Ev
_ZN11wxStaticBox12ms_classInfoE
_ZN11wxStaticBox14wxCreateObjectEv
_ZN11wxStaticBox18DoApplyWidgetStyleEP11_GtkRcStyle
_ZN11wxStaticBox22GTKWidgetDoSetMnemonicEP10_GtkWidget
_ZN11wxStaticBox25GetClassDefaultAttributesE15wxWindowVariant
_ZN11wxStaticBox6CreateEP8wxWindowiRK8wxStringRK7wxPointRK6wxSizelS4_
_ZN11wxStaticBox8SetLabelERK8wxString
_ZN11wxStaticBoxC1EP8wxWindowiRK8wxStringRK7wxPointRK6wxSizelS4_
_ZN11wxStaticBoxC1Ev
_ZN11wxStaticBoxC2EP8wxWindowiRK8wxStringRK7wxPointRK6wxSizelS4_
_ZN11wxStaticBoxC2Ev
_ZN11wxStaticBoxD0Ev
_ZN11wxStaticBoxD1Ev
_ZN11wxStatusBar10OnLeftDownER12wxMouseEvent
_ZN11wxStatusBar11InitColoursEv
_ZN11wxStatusBar11OnRightDownER12wxMouseEvent
_ZN11wxStatusBar12ms_classInfoE
_ZN11wxStatusBar12SetMinHeightEi
_ZN11wxStatusBar13DrawFieldTextER4wxDCi
_ZN11wxStatusBar13SetStatusTextERK8wxStringi
_ZN11wxStatusBar13sm_eventTableE
_ZN11wxStatusBar14SetFieldsCountEiPKi
_ZN11wxStatusBar14wxCreateObjectEv
_ZN11wxStatusBar15SetStatusWidthsEiPKi
_ZN11wxStatusBar17sm_eventHashTableE
_ZN11wxStatusBar18OnSysColourChangedER23wxSysColourChangedEvent
_ZN11wxStatusBar20sm_eventTableEntriesE
_ZN11wxStatusBar4InitEv
_ZN11wxStatusBar6CreateEP8wxWindowilRK8wxString
_ZN11wxStatusBar7OnPaintER12wxPaintEvent
_ZN11wxStatusBar9DrawFieldER4wxDCi
_ZN11wxStatusBarD0Ev
_ZN11wxStatusBarD1Ev
_ZN11wxStatusBarD2Ev
_ZN11wxTimerBase5StartEib
_ZN11wxTimerBase6NotifyEv
_ZN11wxTimerBaseD0Ev
_ZN11wxTimerBaseD1Ev
_ZN11wxTimerBaseD2Ev
_ZN11wxTipWindow12OnMouseClickER12wxMouseEvent
_ZN11wxTipWindow13sm_eventTableE
_ZN11wxTipWindow15SetBoundingRectERK6wxRect
_ZN11wxTipWindow17sm_eventHashTableE
_ZN11wxTipWindow20sm_eventTableEntriesE
_ZN11wxTipWindow5CloseEv
_ZN11wxTipWindow9OnDismissEv
_ZN11wxTipWindowC1EP8wxWindowRK8wxStringiPPS_P6wxRect
_ZN11wxTipWindowC2EP8wxWindowRK8wxStringiPPS_P6wxRect
_ZN11wxTipWindowD0Ev
_ZN11wxTipWindowD1Ev
_ZN11wxTipWindowD2Ev
_ZN11wxTreeEvent12ms_classInfoE
_ZN11wxTreeEventC1Eii
_ZN11wxTreeEventC1EiP14wxTreeCtrlBaseRK12wxTreeItemId
_ZN11wxTreeEventC1ERKS_
_ZN11wxTreeEventC2Eii
_ZN11wxTreeEventC2EiP14wxTreeCtrlBaseRK12wxTreeItemId
_ZN11wxTreeEventC2ERKS_
_ZN11wxTreeEventD0Ev
_ZN11wxTreeEventD1Ev
_ZN11wxValidator11ms_isSilentE
_ZN11wxValidator12ms_classInfoE
_ZN11wxValidator14wxCreateObjectEv
_ZN11wxValidator16TransferToWindowEv
_ZN11wxValidator18TransferFromWindowEv
_ZN11wxValidator8ValidateEP8wxWindow
_ZN11wxValidatorC1Ev
_ZN11wxValidatorC2Ev
_ZN11wxValidatorD0Ev
_ZN11wxValidatorD1Ev
_ZN11wxValidatorD2Ev
_ZN12MemFSHashObjD0Ev
_ZN12MemFSHashObjD1Ev
_ZN12wxANIDecoder10sm_handlerE
_ZN12wxANIDecoder4LoadER13wxInputStream
_ZN12wxANIDecoderC1Ev
_ZN12wxANIDecoderC2Ev
_ZN12wxANIDecoderD0Ev
_ZN12wxANIDecoderD1Ev
_ZN12wxANIDecoderD2Ev
_ZN12wxANIHandler12ms_classInfoE
_ZN12wxANIHandler13GetImageCountER13wxInputStream
_ZN12wxANIHandler14wxCreateObjectEv
_ZN12wxANIHandler8LoadFileEP7wxImageR13wxInputStreambi
_ZN12wxANIHandler8SaveFileEP7wxImageR14wxOutputStreamb
_ZN12wxANIHandler9DoCanReadER13wxInputStream
_ZN12wxANIHandlerD0Ev
_ZN12wxANIHandlerD1Ev
_ZN12wxAppConsole10CallOnInitEv
_ZN12wxAppConsole10WakeUpIdleEv
_ZN12wxAppConsole16OnFatalExceptionEv
_ZN12wxAppConsole20OnUnhandledExceptionEv
_ZN12wxBitmapBase10AddHandlerEP19wxBitmapHandlerBase
_ZN12wxBitmapBase11FindHandlerE12wxBitmapType
_ZN12wxBitmapBase11FindHandlerERK8wxString
_ZN12wxBitmapBase11FindHandlerERK8wxString12wxBitmapType
_ZN12wxBitmapBase11sm_handlersE
_ZN12wxBitmapBase12ms_classInfoE
_ZN12wxBitmapBase13InsertHandlerEP19wxBitmapHandlerBase
_ZN12wxBitmapBase13RemoveHandlerERK8wxString
_ZN12wxBitmapBase15CleanUpHandlersEv
_ZN12wxBitmapBaseD0Ev
_ZN12wxBitmapBaseD1Ev
_ZN12wxBMPHandler12ms_classInfoE
_ZN12wxBMPHandler14wxCreateObjectEv
_ZN12wxBMPHandler7LoadDibEP7wxImageR13wxInputStreambb
_ZN12wxBMPHandler7SaveDibEP7wxImageR14wxOutputStreambbb
_ZN12wxBMPHandler8LoadFileEP7wxImageR13wxInputStreambi
_ZN12wxBMPHandler8SaveFileEP7wxImageR14wxOutputStreamb
_ZN12wxBMPHandler9DoCanReadER13wxInputStream
_ZN12wxBMPHandler9DoLoadDibEP7wxImageiiiiixR13wxInputStreambbb
_ZN12wxBMPHandlerD0Ev
_ZN12wxBMPHandlerD1Ev
_ZN12wxBufferedDC12ms_classInfoE
_ZN12wxBufferedDC14wxCreateObjectEv
_ZN12wxBufferedDC9UseBufferEii
_ZN12wxBufferedDCD0Ev
_ZN12wxBufferedDCD1Ev
_ZN12wxBusyCursor13GetBusyCursorEv
_ZN12wxBusyCursor15GetStoredCursorEv
_ZN12wxButtonBase10SetDefaultEv
_ZN12wxButtonBase13SetImageLabelERK8wxBitmap
_ZN12wxButtonBase14GetDefaultSizeEv
_ZN12wxButtonBase15SetImageMarginsEii
_ZN12wxButtonBaseD0Ev
_ZN12wxButtonBaseD1Ev
_ZN12wxCaretTimer6NotifyEv
_ZN12wxCaretTimerC1EP7wxCaret
_ZN12wxCaretTimerC2EP7wxCaret
_ZN12wxCaretTimerD0Ev
_ZN12wxCaretTimerD1Ev
_ZN12wxChoiceBase10SetColumnsEi
_ZN12wxChoiceBase7CommandER14wxCommandEvent
_ZN12wxChoiceBaseD0Ev
_ZN12wxChoiceBaseD1Ev
_ZN12wxChoiceBaseD2Ev
_ZN12wxChoicebook10InsertPageEjP8wxWindowRK8wxStringbi
_ZN12wxChoicebook11SetPageTextEjRK8wxString
_ZN12wxChoicebook12DoRemovePageEj
_ZN12wxChoicebook12ms_classInfoE
_ZN12wxChoicebook12SetImageListEP11wxImageList
_ZN12wxChoicebook12SetPageImageEji
_ZN12wxChoicebook12SetSelectionEj
_ZN12wxChoicebook13sm_eventTableE
_ZN12wxChoicebook14DeleteAllPagesEv
_ZN12wxChoicebook14wxCreateObjectEv
_ZN12wxChoicebook15ChangeSelectionEj
_ZN12wxChoicebook16MakeChangedEventER19wxBookCtrlBaseEvent
_ZN12wxChoicebook16OnChoiceSelectedER14wxCommandEvent
_ZN12wxChoicebook17sm_eventHashTableE
_ZN12wxChoicebook18UpdateSelectedPageEj
_ZN12wxChoicebook20sm_eventTableEntriesE
_ZN12wxChoicebook4InitEv
_ZN12wxChoicebook6CreateEP8wxWindowiRK7wxPointRK6wxSizelRK8wxString
_ZN12wxChoicebookD0Ev
_ZN12wxChoicebookD1Ev
_ZN12wxClientDataD0Ev
_ZN12wxClientDataD1Ev
_ZN12wxCloseEvent12ms_classInfoE
_ZN12wxCloseEvent14wxCreateObjectEv
_ZN12wxCloseEventD0Ev
_ZN12wxCloseEventD1Ev
_ZN12wxColourBase10FromStringEPKc
_ZN12wxColourBase12CreateByNameERK8wxString
_ZN12wxColourBase12InitFromNameERK8wxString
_ZN12wxColourBaseD0Ev
_ZN12wxColourBaseD1Ev
_ZN12wxColourData12ms_classInfoE
_ZN12wxColourData14wxCreateObjectEv
_ZN12wxColourData15GetCustomColourEi
_ZN12wxColourData15SetCustomColourEiRK8wxColour
_ZN12wxColourDataaSERKS_
_ZN12wxColourDataC1ERKS_
_ZN12wxColourDataC1Ev
_ZN12wxColourDataC2ERKS_
_ZN12wxColourDataC2Ev
_ZN12wxColourDataD0Ev
_ZN12wxColourDataD1Ev
_ZN12wxColourDataD2Ev
_ZN12wxComboPopup10LazyCreateEv
_ZN12wxComboPopup14SetStringValueERK8wxString
_ZN12wxComboPopup15GetAdjustedSizeEiii
_ZN12wxComboPopup15OnComboKeyEventER10wxKeyEvent
_ZN12wxComboPopup17PaintComboControlER4wxDCRK6wxRect
_ZN12wxComboPopup18OnComboDoubleClickEv
_ZN12wxComboPopup24DefaultPaintComboControlEP15wxComboCtrlBaseR4wxDCRK6wxRect
_ZN12wxComboPopup4InitEv
_ZN12wxComboPopup7DismissEv
_ZN12wxComboPopup7OnPopupEv
_ZN12wxComboPopup9OnDismissEv
_ZN12wxComboPopupD0Ev
_ZN12wxComboPopupD1Ev
_ZN12wxComboPopupD2Ev
_ZN12wxCURHandler12ms_classInfoE
_ZN12wxCURHandler14wxCreateObjectEv
_ZN12wxCURHandler9DoCanReadER13wxInputStream
_ZN12wxCURHandlerD0Ev
_ZN12wxCURHandlerD1Ev
_ZN12wxDataFormat14PrepareFormatsEv
_ZN12wxDataFormat5SetIdEP8_GdkAtom
_ZN12wxDataFormat5SetIdEPKc
_ZN12wxDataFormat7SetTypeE14wxDataFormatId
_ZN12wxDataFormatC1E14wxDataFormatId
_ZN12wxDataFormatC1EP8_GdkAtom
_ZN12wxDataFormatC1EPKc
_ZN12wxDataFormatC1ERK8wxString
_ZN12wxDataFormatC1Ev
_ZN12wxDataFormatC2E14wxDataFormatId
_ZN12wxDataFormatC2EP8_GdkAtom
_ZN12wxDataFormatC2EPKc
_ZN12wxDataFormatC2ERK8wxString
_ZN12wxDataFormatC2Ev
_ZN12wxDataObjectC1Ev
_ZN12wxDataObjectC2Ev
_ZN12wxDataObjectD0Ev
_ZN12wxDataObjectD1Ev
_ZN12wxDataObjectD2Ev
_ZN12wxDialogBase10OnCharHookER10wxKeyEvent
_ZN12wxDialogBase11IsEscapeKeyERK10wxKeyEvent
_ZN12wxDialogBase11RemoveChildEP12wxWindowBase
_ZN12wxDialogBase11SetEscapeIdEi
_ZN12wxDialogBase12OnChildFocusER17wxChildFocusEvent
_ZN12wxDialogBase13OnCloseWindowER12wxCloseEvent
_ZN12wxDialogBase13sm_eventTableE
_ZN12wxDialogBase14AcceptAndCloseEv
_ZN12wxDialogBase15CreateTextSizerERK8wxString
_ZN12wxDialogBase15OnNavigationKeyER20wxNavigationKeyEvent
_ZN12wxDialogBase16SetAffirmativeIdEi
_ZN12wxDialogBase17CreateButtonSizerEl
_ZN12wxDialogBase17sm_eventHashTableE
_ZN12wxDialogBase18OnSysColourChangedER23wxSysColourChangedEvent
_ZN12wxDialogBase20sm_eventTableEntriesE
_ZN12wxDialogBase24SetFocusIgnoringChildrenEv
_ZN12wxDialogBase26CreateSeparatedButtonSizerEl
_ZN12wxDialogBase26CreateStdDialogButtonSizerEl
_ZN12wxDialogBase27EmulateButtonClickIfPresentEi
_ZN12wxDialogBase4InitEv
_ZN12wxDialogBase7OnFocusER12wxFocusEvent
_ZN12wxDialogBase8OnButtonER14wxCommandEvent
_ZN12wxDialogBase8SetFocusEv
_ZN12wxDialogBase9EndDialogEi
_ZN12wxDialogBaseD0Ev
_ZN12wxDialogBaseD1Ev
_ZN12wxDocManager10CreateViewEP10wxDocumentl
_ZN12wxDocManager10InitializeEv
_ZN12wxDocManager10OnFileOpenER14wxCommandEvent
_ZN12wxDocManager10OnFileSaveER14wxCommandEvent
_ZN12wxDocManager11AddDocumentEP10wxDocument
_ZN12wxDocManager11OnFileCloseER14wxCommandEvent
_ZN12wxDocManager12ActivateViewEP6wxViewb
_ZN12wxDocManager12ms_classInfoE
_ZN12wxDocManager12OnFileRevertER14wxCommandEvent
_ZN12wxDocManager12OnFileSaveAsER14wxCommandEvent
_ZN12wxDocManager12OnUpdateRedoER15wxUpdateUIEvent
_ZN12wxDocManager12OnUpdateUndoER15wxUpdateUIEvent
_ZN12wxDocManager12ProcessEventER7wxEvent
_ZN12wxDocManager13CloseDocumentEP10wxDocumentb
_ZN12wxDocManager13MatchTemplateERK8wxString
_ZN12wxDocManager13OnUpdatePrintER15wxUpdateUIEvent
_ZN12wxDocManager13sm_docManagerE
_ZN12wxDocManager13sm_eventTableE
_ZN12wxDocManager14CloseDocumentsEb
_ZN12wxDocManager14CreateDocumentERK8wxStringl
_ZN12wxDocManager14DeleteTemplateEP13wxDocTemplatel
_ZN12wxDocManager14MakeFrameTitleEP10wxDocument
_ZN12wxDocManager14OnFileCloseAllER14wxCommandEvent
_ZN12wxDocManager14RemoveDocumentEP10wxDocument
_ZN12wxDocManager14SelectViewTypeEPP13wxDocTemplateib
_ZN12wxDocManager14wxCreateObjectEv
_ZN12wxDocManager15FileHistoryLoadER12wxConfigBase
_ZN12wxDocManager15FileHistorySaveER12wxConfigBase
_ZN12wxDocManager15MakeDefaultNameER8wxString
_ZN12wxDocManager15OnUpdateFileNewER15wxUpdateUIEvent
_ZN12wxDocManager15OnUpdatePreviewER15wxUpdateUIEvent
_ZN12wxDocManager16AddFileToHistoryERK8wxString
_ZN12wxDocManager16OnUpdateFileOpenER15wxUpdateUIEvent
_ZN12wxDocManager16OnUpdateFileSaveER15wxUpdateUIEvent
_ZN12wxDocManager17AssociateTemplateEP13wxDocTemplate
_ZN12wxDocManager17OnOpenFileFailureEv
_ZN12wxDocManager17OnUpdateFileCloseER15wxUpdateUIEvent
_ZN12wxDocManager17sm_eventHashTableE
_ZN12wxDocManager18FileHistoryUseMenuEP6wxMenu
_ZN12wxDocManager18OnUpdateFileRevertER15wxUpdateUIEvent
_ZN12wxDocManager18OnUpdateFileSaveAsER15wxUpdateUIEvent
_ZN12wxDocManager18SelectDocumentPathEPP13wxDocTemplateiR8wxStringlb
_ZN12wxDocManager18SelectDocumentTypeEPP13wxDocTemplateib
_ZN12wxDocManager19FindTemplateForPathERK8wxString
_ZN12wxDocManager19OnCreateFileHistoryEv
_ZN12wxDocManager20DisassociateTemplateEP13wxDocTemplate
_ZN12wxDocManager20sm_eventTableEntriesE
_ZN12wxDocManager21FileHistoryRemoveMenuEP6wxMenu
_ZN12wxDocManager21RemoveFileFromHistoryEj
_ZN12wxDocManager25FileHistoryAddFilesToMenuEP6wxMenu
_ZN12wxDocManager25FileHistoryAddFilesToMenuEv
_ZN12wxDocManager5ClearEb
_ZN12wxDocManager6OnRedoER14wxCommandEvent
_ZN12wxDocManager6OnUndoER14wxCommandEvent
_ZN12wxDocManager7OnPrintER14wxCommandEvent
_ZN12wxDocManager8FlushDocEP10wxDocument
_ZN12wxDocManager9OnFileNewER14wxCommandEvent
_ZN12wxDocManager9OnPreviewER14wxCommandEvent
_ZN12wxDocManagerC1Elb
_ZN12wxDocManagerC2Elb
_ZN12wxDocManagerD0Ev
_ZN12wxDocManagerD1Ev
_ZN12wxDocManagerD2Ev
_ZN12wxDropSource10DoDragDropEi
_ZN12wxDropSource11PrepareIconEiP15_GdkDragContext
_ZN12wxDropSource14RegisterWindowEv
_ZN12wxDropSource16UnregisterWindowEv
_ZN12wxDropSource8SetIconsERK6wxIconS2_S2_
_ZN12wxDropSourceC1EP8wxWindowRK6wxIconS4_S4_
_ZN12wxDropSourceC1ER12wxDataObjectP8wxWindowRK6wxIconS6_S6_
_ZN12wxDropSourceC2EP8wxWindowRK6wxIconS4_S4_
_ZN12wxDropSourceC2ER12wxDataObjectP8wxWindowRK6wxIconS6_S6_
_ZN12wxDropSourceD0Ev
_ZN12wxDropSourceD1Ev
_ZN12wxDropSourceD2Ev
_ZN12wxDropTarget10OnDragOverEii12wxDragResult
_ZN12wxDropTarget14RegisterWidgetEP10_GtkWidget
_ZN12wxDropTarget15GetMatchingPairEv
_ZN12wxDropTarget16UnregisterWidgetEP10_GtkWidget
_ZN12wxDropTarget6OnDataEii12wxDragResult
_ZN12wxDropTarget6OnDropEii
_ZN12wxDropTarget7GetDataEv
_ZN12wxDropTargetC1EP12wxDataObject
_ZN12wxDropTargetC2EP12wxDataObject
_ZN12wxDropTargetD0Ev
_ZN12wxDropTargetD1Ev
_ZN12wxEraseEvent12ms_classInfoE
_ZN12wxEraseEvent14wxCreateObjectEv
_ZN12wxEraseEventD0Ev
_ZN12wxEraseEventD1Ev
_ZN12wxEvtHandler12TryValidatorER7wxEvent
_ZN12wxFileButton10OnDialogOKER14wxCommandEvent
_ZN12wxFileButton12ms_classInfoE
_ZN12wxFileButton14wxCreateObjectEv
_ZN12wxFileButton15GetDialogParentEv
_ZN12wxFileButton6CreateEP8wxWindowiRK8wxStringS4_S4_S4_RK7wxPointRK6wxSizelRK11wxValidatorS4_
_ZN12wxFileButton7DestroyEv
_ZN12wxFileButton7SetPathERK8wxString
_ZN12wxFileButtonD0Ev
_ZN12wxFileButtonD1Ev
_ZN12wxFileButtonD2Ev
_ZN12wxFileDialog10SetMessageERK8wxString
_ZN12wxFileDialog11SetFilenameERK8wxString
_ZN12wxFileDialog11SetWildcardERK8wxString
_ZN12wxFileDialog12ms_classInfoE
_ZN12wxFileDialog12SetDirectoryERK8wxString
_ZN12wxFileDialog13sm_eventTableE
_ZN12wxFileDialog14SetFilterIndexEi
_ZN12wxFileDialog14wxCreateObjectEv
_ZN12wxFileDialog17sm_eventHashTableE
_ZN12wxFileDialog20sm_eventTableEntriesE
_ZN12wxFileDialog4ShowEb
_ZN12wxFileDialog7SetPathERK8wxString
_ZN12wxFileDialog8OnFakeOkER14wxCommandEvent
_ZN12wxFileDialog9DoSetSizeEiiiii
_ZN12wxFileDialog9ShowModalEv
_ZN12wxFileDialogC1EP8wxWindowRK8wxStringS4_S4_S4_lRK7wxPointRK6wxSizeS4_
_ZN12wxFileDialogC2EP8wxWindowRK8wxStringS4_S4_S4_lRK7wxPointRK6wxSizeS4_
_ZN12wxFileDialogD0Ev
_ZN12wxFileDialogD1Ev
_ZN12wxFocusEvent12ms_classInfoE
_ZN12wxFocusEvent14wxCreateObjectEv
_ZN12wxFocusEventD0Ev
_ZN12wxFocusEventD1Ev
_ZN12wxFontButton10UpdateFontEv
_ZN12wxFontButton12ms_classInfoE
_ZN12wxFontButton14wxCreateObjectEv
_ZN12wxFontButton6CreateEP8wxWindowiRK6wxFontRK7wxPointRK6wxSizelRK11wxValidatorRK8wxString
_ZN12wxFontButtonD0Ev
_ZN12wxFontButtonD1Ev
_ZN12wxFontButtonD2Ev
_ZN12wxFontDialog12ms_classInfoE
_ZN12wxFontDialog13SetChosenFontEPKc
_ZN12wxFontDialog14wxCreateObjectEv
_ZN12wxFontDialog8DoCreateEP8wxWindow
_ZN12wxFontDialogD0Ev
_ZN12wxFontDialogD1Ev
_ZN12wxFontDialogD2Ev
_ZN12wxFontMapper15TestAltEncodingERK8wxString14wxFontEncodingP20wxNativeEncodingInfo
_ZN12wxFontMapper17CharsetToEncodingERK8wxStringb
_ZN12wxFontMapper17GetAltForEncodingE14wxFontEncodingP20wxNativeEncodingInfoRK8wxStringb
_ZN12wxFontMapper17GetAltForEncodingE14wxFontEncodingPS0_RK8wxStringb
_ZN12wxFontMapper19IsEncodingAvailableE14wxFontEncodingRK8wxString
_ZN12wxFontMapper3GetEv
_ZN12wxFontMapper7IsDummyEv
_ZN12wxFontMapperC1Ev
_ZN12wxFontMapperC2Ev
_ZN12wxFontMapperD0Ev
_ZN12wxFontMapperD1Ev
_ZN12wxFontMapperD2Ev
_ZN12wxGIFDecoder4dgifER13wxInputStreamP8GIFImageii
_ZN12wxGIFDecoder4LoadER13wxInputStream
_ZN12wxGIFDecoder7DestroyEv
_ZN12wxGIFDecoder7getcodeER13wxInputStreamii
_ZN12wxGIFDecoder7LoadGIFER13wxInputStream
_ZN12wxGIFDecoderC1Ev
_ZN12wxGIFDecoderC2Ev
_ZN12wxGIFDecoderD0Ev
_ZN12wxGIFDecoderD1Ev
_ZN12wxGIFDecoderD2Ev
_ZN12wxGIFHandler12ms_classInfoE
_ZN12wxGIFHandler14wxCreateObjectEv
_ZN12wxGIFHandler8LoadFileEP7wxImageR13wxInputStreambi
_ZN12wxGIFHandler8SaveFileEP7wxImageR14wxOutputStreamb
_ZN12wxGIFHandler9DoCanReadER13wxInputStream
_ZN12wxGIFHandlerD0Ev
_ZN12wxGIFHandlerD1Ev
_ZN12wxICOHandler10DoLoadFileEP7wxImageR13wxInputStreambi
_ZN12wxICOHandler12ms_classInfoE
_ZN12wxICOHandler13GetImageCountER13wxInputStream
_ZN12wxICOHandler14wxCreateObjectEv
_ZN12wxICOHandler8LoadFileEP7wxImageR13wxInputStreambi
_ZN12wxICOHandler8SaveFileEP7wxImageR14wxOutputStreamb
_ZN12wxICOHandler9DoCanReadER13wxInputStream
_ZN12wxICOHandlerD0Ev
_ZN12wxICOHandlerD1Ev
_ZN12wxIconBundle11DeleteIconsEv
_ZN12wxIconBundle7AddIconERK6wxIcon
_ZN12wxIconBundle7AddIconERK8wxStringl
_ZN12wxIconBundleaSERKS_
_ZN12wxImageArray3AddERK7wxImagej
_ZN12wxImageArray6DoCopyERKS_
_ZN12wxImageArray6InsertERK7wxImagejj
_ZN12wxImageArray7DoEmptyEv
_ZN12wxImageArray8RemoveAtEjj
_ZN12wxImageArrayaSERKS_
_ZN12wxImageArrayC1ERKS_
_ZN12wxImageArrayC2ERKS_
_ZN12wxImageArrayD1Ev
_ZN12wxImageArrayD2Ev
_ZN12wxListString10CreateNodeEP10wxNodeBaseS1_PvRK9wxListKey
_ZN12wxListStringD0Ev
_ZN12wxListStringD1Ev
_ZN12wxMouseEvent12ms_classInfoE
_ZN12wxMouseEvent14wxCreateObjectEv
_ZN12wxMouseEvent6AssignERKS_
_ZN12wxMouseEventC1Ei
_ZN12wxMouseEventC2Ei
_ZN12wxMouseEventD0Ev
_ZN12wxMouseEventD1Ev
_ZN12wxObjectList10CreateNodeEP10wxNodeBaseS1_PvRK9wxListKey
_ZN12wxObjectListD0Ev
_ZN12wxObjectListD1Ev
_ZN12wxPaintEvent12ms_classInfoE
_ZN12wxPaintEvent14wxCreateObjectEv
_ZN12wxPaintEventD0Ev
_ZN12wxPaintEventD1Ev
_ZN12wxPCXHandler12ms_classInfoE
_ZN12wxPCXHandler14wxCreateObjectEv
_ZN12wxPCXHandler8LoadFileEP7wxImageR13wxInputStreambi
_ZN12wxPCXHandler8SaveFileEP7wxImageR14wxOutputStreamb
_ZN12wxPCXHandler9DoCanReadER13wxInputStream
_ZN12wxPCXHandlerD0Ev
_ZN12wxPCXHandlerD1Ev
_ZN12wxPenRefDataD0Ev
_ZN12wxPenRefDataD1Ev
_ZN12wxPickerBase10CreateBaseEP8wxWindowiRK8wxStringRK7wxPointRK6wxSizelRK11wxValidatorS4_
_ZN12wxPickerBase11RemoveChildEP12wxWindowBase
_ZN12wxPickerBase12DoSetToolTipEP9wxToolTip
_ZN12wxPickerBase12ms_classInfoE
_ZN12wxPickerBase12OnChildFocusER17wxChildFocusEvent
_ZN12wxPickerBase12PostCreationEv
_ZN12wxPickerBase13sm_eventTableE
_ZN12wxPickerBase15OnNavigationKeyER20wxNavigationKeyEvent
_ZN12wxPickerBase16OnTextCtrlDeleteER20wxWindowDestroyEvent
_ZN12wxPickerBase16OnTextCtrlUpdateER14wxCommandEvent
_ZN12wxPickerBase17sm_eventHashTableE
_ZN12wxPickerBase19OnTextCtrlKillFocusER12wxFocusEvent
_ZN12wxPickerBase20sm_eventTableEntriesE
_ZN12wxPickerBase24SetFocusIgnoringChildrenEv
_ZN12wxPickerBase6OnSizeER11wxSizeEvent
_ZN12wxPickerBase7OnFocusER12wxFocusEvent
_ZN12wxPickerBase8SetFocusEv
_ZN12wxPickerBaseD0Ev
_ZN12wxPickerBaseD1Ev
_ZN12wxPNGHandler12ms_classInfoE
_ZN12wxPNGHandler14wxCreateObjectEv
_ZN12wxPNGHandler8LoadFileEP7wxImageR13wxInputStreambi
_ZN12wxPNGHandler8SaveFileEP7wxImageR14wxOutputStreamb
_ZN12wxPNGHandler9DoCanReadER13wxInputStream
_ZN12wxPNGHandlerD0Ev
_ZN12wxPNGHandlerD1Ev
_ZN12wxPNMHandler12ms_classInfoE
_ZN12wxPNMHandler14wxCreateObjectEv
_ZN12wxPNMHandler8LoadFileEP7wxImageR13wxInputStreambi
_ZN12wxPNMHandler8SaveFileEP7wxImageR14wxOutputStreamb
_ZN12wxPNMHandler9DoCanReadER13wxInputStream
_ZN12wxPNMHandlerD0Ev
_ZN12wxPNMHandlerD1Ev
_ZN12wxPoint2DInt14SetVectorAngleEd
_ZN12wxPoint2DInt8ReadFromER17wxDataInputStream
_ZN12wxRegionBase5UnionERK8wxBitmap
_ZN12wxRegionBase5UnionERK8wxBitmapRK8wxColouri
_ZN12wxRegionBaseD0Ev
_ZN12wxRegionBaseD1Ev
_ZN12wxSearchCtrl10AppendTextERK8wxString
_ZN12wxSearchCtrl10DoSetValueERK8wxStringi
_ZN12wxSearchCtrl10OnSetFocusER12wxFocusEvent
_ZN12wxSearchCtrl11SetEditableEb
_ZN12wxSearchCtrl12DiscardEditsEv
_ZN12wxSearchCtrl12DoMoveWindowEiiii
_ZN12wxSearchCtrl12ms_classInfoE
_ZN12wxSearchCtrl12SetMaxLengthEm
_ZN12wxSearchCtrl12SetSelectionEll
_ZN12wxSearchCtrl12ShowPositionEl
_ZN12wxSearchCtrl13RecalcBitmapsEv
_ZN12wxSearchCtrl13sm_eventTableE
_ZN12wxSearchCtrl14LayoutControlsEiiii
_ZN12wxSearchCtrl14OnSearchButtonER14wxCommandEvent
_ZN12wxSearchCtrl14wxCreateObjectEv
_ZN12wxSearchCtrl15EmulateKeyPressERK10wxKeyEvent
_ZN12wxSearchCtrl15PopupSearchMenuEv
_ZN12wxSearchCtrl15SetCancelBitmapERK8wxBitmap
_ZN12wxSearchCtrl15SetDefaultStyleERK10wxTextAttr
_ZN12wxSearchCtrl15SetSearchBitmapERK8wxBitmap
_ZN12wxSearchCtrl16DoUpdateWindowUIER15wxUpdateUIEvent
_ZN12wxSearchCtrl16ShowCancelButtonEb
_ZN12wxSearchCtrl16ShowSearchButtonEb
_ZN12wxSearchCtrl17SetInsertionPointEl
_ZN12wxSearchCtrl17sm_eventHashTableE
_ZN12wxSearchCtrl18RenderCancelBitmapEii
_ZN12wxSearchCtrl18RenderSearchBitmapEiib
_ZN12wxSearchCtrl18SetDescriptiveTextERK8wxString
_ZN12wxSearchCtrl19SetSearchMenuBitmapERK8wxBitmap
_ZN12wxSearchCtrl20SetInsertionPointEndEv
_ZN12wxSearchCtrl20sm_eventTableEntriesE
_ZN12wxSearchCtrl3CutEv
_ZN12wxSearchCtrl4CopyEv
_ZN12wxSearchCtrl4InitEv
_ZN12wxSearchCtrl4RedoEv
_ZN12wxSearchCtrl4UndoEv
_ZN12wxSearchCtrl5ClearEv
_ZN12wxSearchCtrl5PasteEv
_ZN12wxSearchCtrl6CreateEP8wxWindowiRK8wxStringRK7wxPointRK6wxSizelRK11wxValidatorS4_
_ZN12wxSearchCtrl6OnSizeER11wxSizeEvent
_ZN12wxSearchCtrl6RemoveEll
_ZN12wxSearchCtrl7GetMenuEv
_ZN12wxSearchCtrl7ReplaceEllRK8wxString
_ZN12wxSearchCtrl7SetFontERK6wxFont
_ZN12wxSearchCtrl7SetMenuEP6wxMenu
_ZN12wxSearchCtrl8GetStyleElR10wxTextAttr
_ZN12wxSearchCtrl8LoadFileERK8wxString
_ZN12wxSearchCtrl8SaveFileERK8wxString
_ZN12wxSearchCtrl8SetStyleEllRK10wxTextAttr
_ZN12wxSearchCtrl8SetValueERK8wxString
_ZN12wxSearchCtrl9MarkDirtyEv
_ZN12wxSearchCtrl9SelectAllEv
_ZN12wxSearchCtrl9WriteTextERK8wxString
_ZN12wxSearchCtrlC1EP8wxWindowiRK8wxStringRK7wxPointRK6wxSizelRK11wxValidatorS4_
_ZN12wxSearchCtrlC1Ev
_ZN12wxSearchCtrlC2EP8wxWindowiRK8wxStringRK7wxPointRK6wxSizelRK11wxValidatorS4_
_ZN12wxSearchCtrlC2Ev
_ZN12wxSearchCtrlD0Ev
_ZN12wxSearchCtrlD1Ev
_ZN12wxSearchCtrlD2Ev
_ZN12wxSizerFlags24ReserveSpaceEvenIfHiddenEv
_ZN12wxSliderBase10ClearTicksEv
_ZN12wxSliderBase11SetTickFreqEii
_ZN12wxSliderBase12SetSelectionEii
_ZN12wxSliderBase7SetTickEi
_ZN12wxSliderBase8ClearSelEv
_ZN12wxSliderBaseD0Ev
_ZN12wxSliderBaseD1Ev
_ZN12wxSpinButton12ms_classInfoE
_ZN12wxSpinButton13sm_eventTableE
_ZN12wxSpinButton14wxCreateObjectEv
_ZN12wxSpinButton17sm_eventHashTableE
_ZN12wxSpinButton20sm_eventTableEntriesE
_ZN12wxSpinButton25GetClassDefaultAttributesE15wxWindowVariant
_ZN12wxSpinButton6CreateEP8wxWindowiRK7wxPointRK6wxSizelRK8wxString
_ZN12wxSpinButton6OnSizeER11wxSizeEvent
_ZN12wxSpinButton8SetRangeEii
_ZN12wxSpinButton8SetValueEi
_ZN12wxSpinButtonC1Ev
_ZN12wxSpinButtonC2Ev
_ZN12wxSpinButtonD0Ev
_ZN12wxSpinButtonD1Ev
_ZN12wxStaticLine12ms_classInfoE
_ZN12wxStaticLine14wxCreateObjectEv
_ZN12wxStaticLine25GetClassDefaultAttributesE15wxWindowVariant
_ZN12wxStaticLine6CreateEP8wxWindowiRK7wxPointRK6wxSizelRK8wxString
_ZN12wxStaticLineC1EP8wxWindowiRK7wxPointRK6wxSizelRK8wxString
_ZN12wxStaticLineC1Ev
_ZN12wxStaticLineC2EP8wxWindowiRK7wxPointRK6wxSizelRK8wxString
_ZN12wxStaticLineC2Ev
_ZN12wxStaticLineD0Ev
_ZN12wxStaticLineD1Ev
_ZN12wxStaticText12ms_classInfoE
_ZN12wxStaticText14wxCreateObjectEv
_ZN12wxStaticText19SetForegroundColourERK8wxColour
_ZN12wxStaticText22GTKWidgetDoSetMnemonicEP10_GtkWidget
_ZN12wxStaticText25GetClassDefaultAttributesE15wxWindowVariant
_ZN12wxStaticText4WrapEi
_ZN12wxStaticText6CreateEP8wxWindowiRK8wxStringRK7wxPointRK6wxSizelS4_
_ZN12wxStaticText7SetFontERK6wxFont
_ZN12wxStaticText8SetLabelERK8wxString
_ZN12wxStaticText9DoSetSizeEiiiii
_ZN12wxStaticTextC1EP8wxWindowiRK8wxStringRK7wxPointRK6wxSizelS4_
_ZN12wxStaticTextC1Ev
_ZN12wxStaticTextC2EP8wxWindowiRK8wxStringRK7wxPointRK6wxSizelS4_
_ZN12wxStaticTextC2Ev
_ZN12wxStaticTextD0Ev
_ZN12wxStaticTextD1Ev
_ZN12wxStringBaseD2Ev
_ZN12wxTGAHandler12ms_classInfoE
_ZN12wxTGAHandler14wxCreateObjectEv
_ZN12wxTGAHandler8LoadFileEP7wxImageR13wxInputStreambi
_ZN12wxTGAHandler8SaveFileEP7wxImageR14wxOutputStreamb
_ZN12wxTGAHandler9DoCanReadER13wxInputStream
_ZN12wxTGAHandlerD0Ev
_ZN12wxTGAHandlerD1Ev
_ZN12wxTimerEvent12ms_classInfoE
_ZN12wxTimerEvent14wxCreateObjectEv
_ZN12wxTimerEventD0Ev
_ZN12wxTimerEventD1Ev
_ZN12wxWindowBase10CreateBaseEPS_iRK7wxPointRK6wxSizelRK11wxValidatorRK8wxString
_ZN12wxWindowBase10GetCaptureEv
_ZN12wxWindowBase10InitDialogEv
_ZN12wxWindowBase10SetMaxSizeERK6wxSize
_ZN12wxWindowBase10SetMinSizeERK6wxSize
_ZN12wxWindowBase10SetPaletteERK9wxPalette
_ZN12wxWindowBase10SetToolTipERK8wxString
_ZN12wxWindowBase11DoFindFocusEv
_ZN12wxWindowBase11RemoveChildEPS_
_ZN12wxWindowBase11ScrollLinesEi
_ZN12wxWindowBase11ScrollPagesEi
_ZN12wxWindowBase11SetHelpTextERK8wxString
_ZN12wxWindowBase12CaptureMouseEv
_ZN12wxWindowBase12DoSetToolTipEP9wxToolTip
_ZN12wxWindowBase12GetValidatorEv
_ZN12wxWindowBase12LayoutPhase1EPi
_ZN12wxWindowBase12LayoutPhase2EPi
_ZN12wxWindowBase12ms_classInfoE
_ZN12wxWindowBase12OnInitDialogER17wxInitDialogEvent
_ZN12wxWindowBase12ReleaseMouseEv
_ZN12wxWindowBase12SetSizeHintsEiiiiii
_ZN12wxWindowBase12SetValidatorERK11wxValidator
_ZN12wxWindowBase12TryValidatorER7wxEvent
_ZN12wxWindowBase13OnMiddleClickER12wxMouseEvent
_ZN12wxWindowBase13SetExtraStyleEl
_ZN12wxWindowBase13sm_eventTableE
_ZN12wxWindowBase14DoSetSizeHintsEiiiiii
_ZN12wxWindowBase14FindWindowByIdElPK8wxWindow
_ZN12wxWindowBase14MoveConstraintEii
_ZN12wxWindowBase14OnInternalIdleEv
_ZN12wxWindowBase14SetConstraintsEP19wxLayoutConstraints
_ZN12wxWindowBase14SetInitialSizeERK6wxSize
_ZN12wxWindowBase14SetSizerAndFitEP7wxSizerb
_ZN12wxWindowBase14SetTransparentEh
_ZN12wxWindowBase14UpdateWindowUIEl
_ZN12wxWindowBase15AssociateHandleEP10_GtkWidget
_ZN12wxWindowBase15ClearBackgroundEv
_ZN12wxWindowBase15DestroyChildrenEv
_ZN12wxWindowBase15DragAcceptFilesEb
_ZN12wxWindowBase15PopEventHandlerEb
_ZN12wxWindowBase15SetFocusFromKbdEv
_ZN12wxWindowBase15SetThemeEnabledEb
_ZN12wxWindowBase16DissociateHandleEv
_ZN12wxWindowBase16DoMoveInTabOrderEP8wxWindowNS_8MoveKindE
_ZN12wxWindowBase16DoSetVirtualSizeEii
_ZN12wxWindowBase16DoUpdateWindowUIER15wxUpdateUIEvent
_ZN12wxWindowBase16FindWindowByNameERK8wxStringPK8wxWindow
_ZN12wxWindowBase16ms_lastControlIdE
_ZN12wxWindowBase16PushEventHandlerEP12wxEvtHandler
_ZN12wxWindowBase16ResetConstraintsEv
_ZN12wxWindowBase16SendDestroyEventEv
_ZN12wxWindowBase16SetHelpTextForIdERK8wxString
_ZN12wxWindowBase16SetWindowVariantE15wxWindowVariant
_ZN12wxWindowBase16UnsetConstraintsEP19wxLayoutConstraints
_ZN12wxWindowBase17CanSetTransparentEv
_ZN12wxWindowBase17FindWindowByLabelERK8wxStringPK8wxWindow
_ZN12wxWindowBase17InheritAttributesEv
_ZN12wxWindowBase17ms_winCaptureNextE
_ZN12wxWindowBase17NotifyCaptureLostEv
_ZN12wxWindowBase17SetSizeConstraintEiiii
_ZN12wxWindowBase17sm_eventHashTableE
_ZN12wxWindowBase17ToggleWindowStyleEi
_ZN12wxWindowBase18DoSetWindowVariantE15wxWindowVariant
_ZN12wxWindowBase18InvalidateBestSizeEv
_ZN12wxWindowBase18OnSysColourChangedER23wxSysColourChangedEvent
_ZN12wxWindowBase18RemoveEventHandlerEP12wxEvtHandler
_ZN12wxWindowBase18SatisfyConstraintsEv
_ZN12wxWindowBase18SetBackgroundStyleE17wxBackgroundStyle
_ZN12wxWindowBase18SetConstraintSizesEb
_ZN12wxWindowBase18SetContainingSizerEP7wxSizer
_ZN12wxWindowBase18SetInitialBestSizeERK6wxSize
_ZN12wxWindowBase18SetLayoutDirectionE17wxLayoutDirection
_ZN12wxWindowBase18SetWindowStyleFlagEl
_ZN12wxWindowBase19SetAcceleratorTableERK18wxAcceleratorTable
_ZN12wxWindowBase19SetBackgroundColourERK8wxColour
_ZN12wxWindowBase19SetForegroundColourERK8wxColour
_ZN12wxWindowBase19SetVirtualSizeHintsEiiii
_ZN12wxWindowBase20ms_winCaptureCurrentE
_ZN12wxWindowBase20sm_eventTableEntriesE
_ZN12wxWindowBase20TransferDataToWindowEv
_ZN12wxWindowBase21ConvertDialogToPixelsERK7wxPoint
_ZN12wxWindowBase21ConvertPixelsToDialogERK7wxPoint
_ZN12wxWindowBase21ms_winCaptureChangingE
_ZN12wxWindowBase22AddConstraintReferenceEPS_
_ZN12wxWindowBase22TransferDataFromWindowEv
_ZN12wxWindowBase24DeleteRelatedConstraintsEv
_ZN12wxWindowBase24HasTransparentBackgroundEv
_ZN12wxWindowBase25GetClassDefaultAttributesE15wxWindowVariant
_ZN12wxWindowBase25RemoveConstraintReferenceEPS_
_ZN12wxWindowBase31GetMainWindowOfCompositeControlEv
_ZN12wxWindowBase3FitEv
_ZN12wxWindowBase4ShowEb
_ZN12wxWindowBase4ThawEv
_ZN12wxWindowBase5CloseEb
_ZN12wxWindowBase6EnableEb
_ZN12wxWindowBase6FreezeEv
_ZN12wxWindowBase6LayoutEv
_ZN12wxWindowBase6OnHelpER11wxHelpEvent
_ZN12wxWindowBase6UpdateEv
_ZN12wxWindowBase7DestroyEv
_ZN12wxWindowBase7DoPhaseEi
_ZN12wxWindowBase7SetFontERK6wxFont
_ZN12wxWindowBase7SetNameERK8wxString
_ZN12wxWindowBase8AddChildEPS_
_ZN12wxWindowBase8DoCentreEi
_ZN12wxWindowBase8NavigateEi
_ZN12wxWindowBase8ReparentEPS_
_ZN12wxWindowBase8SetCaretEP7wxCaret
_ZN12wxWindowBase8SetSizerEP7wxSizerb
_ZN12wxWindowBase8ValidateEv
_ZN12wxWindowBase9FindFocusEv
_ZN12wxWindowBase9FitInsideEv
_ZN12wxWindowBase9MakeModalEb
_ZN12wxWindowBase9PrepareDCER4wxDC
_ZN12wxWindowBase9SetCursorERK8wxCursor
_ZN12wxWindowBase9TryParentER7wxEvent
_ZN12wxWindowBaseC1Ev
_ZN12wxWindowBaseC2Ev
_ZN12wxWindowBaseD0Ev
_ZN12wxWindowBaseD1Ev
_ZN12wxWindowBaseD2Ev
_ZN12wxWindowList10CreateNodeEP10wxNodeBaseS1_PvRK9wxListKey
_ZN12wxWindowListD0Ev
_ZN12wxWindowListD1Ev
_ZN12wxXPMDecoder7CanReadER13wxInputStream
_ZN12wxXPMDecoder8ReadDataEPKPKc
_ZN12wxXPMDecoder8ReadFileER13wxInputStream
_ZN12wxXPMHandler12ms_classInfoE
_ZN12wxXPMHandler14wxCreateObjectEv
_ZN12wxXPMHandler8LoadFileEP7wxImageR13wxInputStreambi
_ZN12wxXPMHandler8SaveFileEP7wxImageR14wxOutputStreamb
_ZN12wxXPMHandler9DoCanReadER13wxInputStream
_ZN12wxXPMHandlerD0Ev
_ZN12wxXPMHandlerD1Ev
_ZN13wxArtProvider11GetSizeHintERK8wxStringb
_ZN13wxArtProvider11PopProviderEv
_ZN13wxArtProvider12ms_classInfoE
_ZN13wxArtProvider12PushProviderEPS_
_ZN13wxArtProvider12sm_providersE
_ZN13wxArtProvider13DoGetSizeHintERK8wxString
_ZN13wxArtProvider14InsertProviderEPS_
_ZN13wxArtProvider14RemoveProviderEPS_
_ZN13wxArtProvider15InitStdProviderEv
_ZN13wxArtProvider16CleanUpProvidersEv
_ZN13wxArtProvider18InitNativeProviderEv
_ZN13wxArtProvider20CommonAddingProviderEv
_ZN13wxArtProvider3PopEv
_ZN13wxArtProvider4PushEPS_
_ZN13wxArtProvider6DeleteEPS_
_ZN13wxArtProvider6InsertEPS_
_ZN13wxArtProvider6RemoveEPS_
_ZN13wxArtProvider7GetIconERK8wxStringS2_RK6wxSize
_ZN13wxArtProvider8PushBackEPS_
_ZN13wxArtProvider8sm_cacheE
_ZN13wxArtProvider9GetBitmapERK8wxStringS2_RK6wxSize
_ZN13wxArtProviderD0Ev
_ZN13wxArtProviderD1Ev
_ZN13wxArtProviderD2Ev
_ZN13wxContextHelp12ms_classInfoE
_ZN13wxContextHelp13DispatchEventEP8wxWindowRK7wxPoint
_ZN13wxContextHelp14EndContextHelpEv
_ZN13wxContextHelp14wxCreateObjectEv
_ZN13wxContextHelp16BeginContextHelpEP8wxWindow
_ZN13wxContextHelp9EventLoopEv
_ZN13wxContextHelpC1EP8wxWindowb
_ZN13wxContextHelpC2EP8wxWindowb
_ZN13wxContextHelpD0Ev
_ZN13wxContextHelpD1Ev
_ZN13wxContextHelpD2Ev
_ZN13wxControlBase12GetLabelTextERK8wxString
_ZN13wxControlBase13CreateControlEP12wxWindowBaseiRK7wxPointRK6wxSizelRK11wxValidatorRK8wxString
_ZN13wxControlBase16DoUpdateWindowUIER15wxUpdateUIEvent
_ZN13wxControlBase6CreateEP8wxWindowiRK7wxPointRK6wxSizelRK11wxValidatorRK8wxString
_ZN13wxControlBase7CommandER14wxCommandEvent
_ZN13wxControlBase7SetFontERK6wxFont
_ZN13wxControlBase8SetLabelERK8wxString
_ZN13wxControlBaseD0Ev
_ZN13wxControlBaseD1Ev
_ZN13wxControlBaseD2Ev
_ZN13wxDialProcess11OnTerminateEii
_ZN13wxDialProcessD0Ev
_ZN13wxDialProcessD1Ev
_ZN13wxDialUpEventD0Ev
_ZN13wxDialUpEventD1Ev
_ZN13wxDirItemData13SetNewDirNameERK8wxString
_ZN13wxDirItemDataC1ERK8wxStringS2_b
_ZN13wxDirItemDataC2ERK8wxStringS2_b
_ZN13wxDirItemDataD0Ev
_ZN13wxDirItemDataD1Ev
_ZN13wxDisplayImplD0Ev
_ZN13wxDisplayImplD1Ev
_ZN13wxDocPrintout11GetPageInfoEPiS0_S0_S0_
_ZN13wxDocPrintout11OnPrintPageEi
_ZN13wxDocPrintout12ms_classInfoE
_ZN13wxDocPrintout14wxCreateObjectEv
_ZN13wxDocPrintout15OnBeginDocumentEii
_ZN13wxDocPrintout7GetViewEv
_ZN13wxDocPrintout7HasPageEi
_ZN13wxDocPrintoutC1EP6wxViewRK8wxString
_ZN13wxDocPrintoutC2EP6wxViewRK8wxString
_ZN13wxDocPrintoutD0Ev
_ZN13wxDocPrintoutD1Ev
_ZN13wxDocTemplate10CreateViewEP10wxDocumentl
_ZN13wxDocTemplate12DoCreateViewEv
_ZN13wxDocTemplate12InitDocumentEP10wxDocumentRK8wxStringl
_ZN13wxDocTemplate12ms_classInfoE
_ZN13wxDocTemplate14CreateDocumentERK8wxStringl
_ZN13wxDocTemplate16DoCreateDocumentEv
_ZN13wxDocTemplate19FileMatchesTemplateERK8wxString
_ZN13wxDocTemplateC1EP12wxDocManagerRK8wxStringS4_S4_S4_S4_S4_P11wxClassInfoS6_l
_ZN13wxDocTemplateC2EP12wxDocManagerRK8wxStringS4_S4_S4_S4_S4_P11wxClassInfoS6_l
_ZN13wxDocTemplateD0Ev
_ZN13wxDocTemplateD1Ev
_ZN13wxDocTemplateD2Ev
_ZN13wxFileHistory10RemoveMenuEP6wxMenu
_ZN13wxFileHistory12ms_classInfoE
_ZN13wxFileHistory14AddFilesToMenuEP6wxMenu
_ZN13wxFileHistory14AddFilesToMenuEv
_ZN13wxFileHistory14wxCreateObjectEv
_ZN13wxFileHistory16AddFileToHistoryERK8wxString
_ZN13wxFileHistory21RemoveFileFromHistoryEj
_ZN13wxFileHistory4LoadER12wxConfigBase
_ZN13wxFileHistory4SaveER12wxConfigBase
_ZN13wxFileHistory7UseMenuEP6wxMenu
_ZN13wxFileHistoryC1Eji
_ZN13wxFileHistoryC2Eji
_ZN13wxFileHistoryD0Ev
_ZN13wxFileHistoryD1Ev
_ZN13wxFileHistoryD2Ev
_ZN13wxFontRefData11SetEncodingE14wxFontEncoding
_ZN13wxFontRefData11SetFaceNameERK8wxString
_ZN13wxFontRefData12SetPointSizeEi
_ZN13wxFontRefData13ClearGdkFontsEv
_ZN13wxFontRefData13SetUnderlinedEb
_ZN13wxFontRefData14InitFromNativeEv
_ZN13wxFontRefData17SetNativeFontInfoERK16wxNativeFontInfo
_ZN13wxFontRefData4InitEiiiibRK8wxString14wxFontEncoding
_ZN13wxFontRefData8SetStyleEi
_ZN13wxFontRefData9SetFamilyEi
_ZN13wxFontRefData9SetWeightEi
_ZN13wxFontRefDataC1EiiiibRK8wxString14wxFontEncoding
_ZN13wxFontRefDataC1ERK8wxString
_ZN13wxFontRefDataC1ERKS_
_ZN13wxFontRefDataC2EiiiibRK8wxString14wxFontEncoding
_ZN13wxFontRefDataC2ERK8wxString
_ZN13wxFontRefDataC2ERKS_
_ZN13wxFontRefDataD0Ev
_ZN13wxFontRefDataD1Ev
_ZN13wxFontRefDataD2Ev
_ZN13wxGBSizerItem10IntersectsERK12wxGBPositionRK8wxGBSpan
_ZN13wxGBSizerItem10IntersectsERKS_
_ZN13wxGBSizerItem12ms_classInfoE
_ZN13wxGBSizerItem14wxCreateObjectEv
_ZN13wxGBSizerItem6SetPosERK12wxGBPosition
_ZN13wxGBSizerItem7SetSpanERK8wxGBSpan
_ZN13wxGBSizerItem9GetEndPosERiS0_
_ZN13wxGBSizerItemC1EiiRK12wxGBPositionRK8wxGBSpaniiP8wxObject
_ZN13wxGBSizerItemC1EP7wxSizerRK12wxGBPositionRK8wxGBSpaniiP8wxObject
_ZN13wxGBSizerItemC1EP8wxWindowRK12wxGBPositionRK8wxGBSpaniiP8wxObject
_ZN13wxGBSizerItemC1Ev
_ZN13wxGBSizerItemC2EiiRK12wxGBPositionRK8wxGBSpaniiP8wxObject
_ZN13wxGBSizerItemC2EP7wxSizerRK12wxGBPositionRK8wxGBSpaniiP8wxObject
_ZN13wxGBSizerItemC2EP8wxWindowRK12wxGBPositionRK8wxGBSpaniiP8wxObject
_ZN13wxGBSizerItemC2Ev
_ZN13wxGBSizerItemD0Ev
_ZN13wxGBSizerItemD1Ev
_ZN13wxImageModule12ms_classInfoE
_ZN13wxImageModule14wxCreateObjectEv
_ZN13wxImageModule6OnExitEv
_ZN13wxImageModule6OnInitEv
_ZN13wxImageModuleD0Ev
_ZN13wxImageModuleD1Ev
_ZN13wxJPEGHandler12ms_classInfoE
_ZN13wxJPEGHandler14wxCreateObjectEv
_ZN13wxJPEGHandler8LoadFileEP7wxImageR13wxInputStreambi
_ZN13wxJPEGHandler8SaveFileEP7wxImageR14wxOutputStreamb
_ZN13wxJPEGHandler9DoCanReadER13wxInputStream
_ZN13wxJPEGHandlerD0Ev
_ZN13wxJPEGHandlerD1Ev
_ZN13wxListBoxBase11DeselectAllEi
_ZN13wxListBoxBase11InsertItemsEjPK8wxStringj
_ZN13wxListBoxBase12SetFirstItemERK8wxString
_ZN13wxListBoxBase12SetSelectionEi
_ZN13wxListBoxBase13EnsureVisibleEi
_ZN13wxListBoxBase18SetStringSelectionERK8wxString
_ZN13wxListBoxBase18SetStringSelectionERK8wxStringb
_ZN13wxListBoxBase22AppendAndEnsureVisibleERK8wxString
_ZN13wxListBoxBase3SetEiPK8wxStringPPv
_ZN13wxListBoxBase7CommandER14wxCommandEvent
_ZN13wxListBoxBase8DoInsertERK8wxStringj
_ZN13wxListBoxBaseD0Ev
_ZN13wxListBoxBaseD1Ev
_ZN13wxListBoxBaseD2Ev
_ZN13wxLogTextCtrl11DoLogStringEPKcl
_ZN13wxLogTextCtrlC1EP10wxTextCtrl
_ZN13wxLogTextCtrlC2EP10wxTextCtrl
_ZN13wxLogTextCtrlD0Ev
_ZN13wxLogTextCtrlD1Ev
_ZN13wxMenuBarBase11UpdateMenusEv
_ZN13wxMenuBarBase13SetHelpStringEiRK8wxString
_ZN13wxMenuBarBase5CheckEib
_ZN13wxMenuBarBase6AppendEP6wxMenuRK8wxString
_ZN13wxMenuBarBase6AttachEP7wxFrame
_ZN13wxMenuBarBase6DetachEv
_ZN13wxMenuBarBase6EnableEb
_ZN13wxMenuBarBase6EnableEib
_ZN13wxMenuBarBase6InsertEjP6wxMenuRK8wxString
_ZN13wxMenuBarBase6RemoveEj
_ZN13wxMenuBarBase7ReplaceEjP6wxMenuRK8wxString
_ZN13wxMenuBarBase8SetLabelEiRK8wxString
_ZN13wxMenuBarBase8SetLabelERK8wxString
_ZN13wxMenuBarBaseC1Ev
_ZN13wxMenuBarBaseC2Ev
_ZN13wxMenuBarBaseD0Ev
_ZN13wxMenuBarBaseD1Ev
_ZN13wxMenuBarBaseD2Ev
_ZN13wxNotifyEvent12ms_classInfoE
_ZN13wxNotifyEvent14wxCreateObjectEv
_ZN13wxNotifyEventD0Ev
_ZN13wxNotifyEventD1Ev
_ZN13wxOverlayImpl10EndDrawingEP10wxWindowDC
_ZN13wxOverlayImpl12BeginDrawingEP10wxWindowDC
_ZN13wxOverlayImpl4InitEP10wxWindowDCiiii
_ZN13wxOverlayImpl4IsOkEv
_ZN13wxOverlayImpl5ClearEP10wxWindowDC
_ZN13wxOverlayImpl5ResetEv
_ZN13wxOverlayImplC1Ev
_ZN13wxOverlayImplC2Ev
_ZN13wxOverlayImplD1Ev
_ZN13wxOverlayImplD2Ev
_ZN13wxPaletteBaseD0Ev
_ZN13wxPaletteBaseD1Ev
_ZN13wxPopupWindow12DoMoveWindowEiiii
_ZN13wxPopupWindow12ms_classInfoE
_ZN13wxPopupWindow13sm_eventTableE
_ZN13wxPopupWindow14OnInternalIdleEv
_ZN13wxPopupWindow14wxCreateObjectEv
_ZN13wxPopupWindow17sm_eventHashTableE
_ZN13wxPopupWindow20sm_eventTableEntriesE
_ZN13wxPopupWindow4ShowEb
_ZN13wxPopupWindow6CreateEP8wxWindowi
_ZN13wxPopupWindow9DoSetSizeEiiiii
_ZN13wxPopupWindow9GtkOnSizeEv
_ZN13wxPopupWindowD0Ev
_ZN13wxPopupWindowD1Ev
_ZN13wxPopupWindowD2Ev
_ZN13wxPrintDialog10GetPrintDCEv
_ZN13wxPrintDialog12GetPrintDataEv
_ZN13wxPrintDialog12ms_classInfoE
_ZN13wxPrintDialog18GetPrintDialogDataEv
_ZN13wxPrintDialog9ShowModalEv
_ZN13wxPrintDialogC1EP8wxWindowP11wxPrintData
_ZN13wxPrintDialogC1EP8wxWindowP17wxPrintDialogData
_ZN13wxPrintDialogC2EP8wxWindowP11wxPrintData
_ZN13wxPrintDialogC2EP8wxWindowP17wxPrintDialogData
_ZN13wxPrintDialogD0Ev
_ZN13wxPrintDialogD1Ev
_ZN13wxPrintDialogD2Ev
_ZN13wxPrinterBase10sm_abortItE
_ZN13wxPrinterBase11ReportErrorEP8wxWindowP10wxPrintoutRK8wxString
_ZN13wxPrinterBase12ms_classInfoE
_ZN13wxPrinterBase12sm_lastErrorE
_ZN13wxPrinterBase14sm_abortWindowE
_ZN13wxPrinterBase17CreateAbortWindowEP8wxWindowP10wxPrintout
_ZN13wxPrinterBaseC1EP17wxPrintDialogData
_ZN13wxPrinterBaseC2EP17wxPrintDialogData
_ZN13wxPrinterBaseD0Ev
_ZN13wxPrinterBaseD1Ev
_ZN13wxPrinterBaseD2Ev
_ZN13wxRadioButton12ms_classInfoE
_ZN13wxRadioButton14wxCreateObjectEv
_ZN13wxRadioButton18DoApplyWidgetStyleEP11_GtkRcStyle
_ZN13wxRadioButton25GetClassDefaultAttributesE15wxWindowVariant
_ZN13wxRadioButton6CreateEP8wxWindowiRK8wxStringRK7wxPointRK6wxSizelRK11wxValidatorS4_
_ZN13wxRadioButton6EnableEb
_ZN13wxRadioButton8SetLabelERK8wxString
_ZN13wxRadioButton8SetValueEb
_ZN13wxRadioButtonD0Ev
_ZN13wxRadioButtonD1Ev
_ZN13wxRendererGTK12DrawCheckBoxEP8wxWindowR4wxDCRK6wxRecti
_ZN13wxRendererGTK13DrawDropArrowEP8wxWindowR4wxDCRK6wxRecti
_ZN13wxRendererGTK13GetTreeWidgetEv
_ZN13wxRendererGTK14DrawPushButtonEP8wxWindowR4wxDCRK6wxRecti
_ZN13wxRendererGTK15GetButtonWidgetEv
_ZN13wxRendererGTK16DrawHeaderButtonEP8wxWindowR4wxDCRK6wxRecti20wxHeaderSortIconTypeP20wxHeaderButtonParams
_ZN13wxRendererGTK16DrawSplitterSashEP8wxWindowR4wxDCRK6wxSizei13wxOrientationi
_ZN13wxRendererGTK17GetComboBoxWidgetEv
_ZN13wxRendererGTK17GetSplitterParamsEPK8wxWindow
_ZN13wxRendererGTK18DrawSplitterBorderEP8wxWindowR4wxDCRK6wxRecti
_ZN13wxRendererGTK18DrawTreeItemButtonEP8wxWindowR4wxDCRK6wxRecti
_ZN13wxRendererGTK18GetTextEntryWidgetEv
_ZN13wxRendererGTK20GetCheckButtonWidgetEv
_ZN13wxRendererGTK20GetRadioButtonWidgetEv
_ZN13wxRendererGTK21DrawItemSelectionRectEP8wxWindowR4wxDCRK6wxRecti
_ZN13wxRendererGTK21GetHeaderButtonWidgetEv
_ZN13wxRendererGTK22DrawComboBoxDropButtonEP8wxWindowR4wxDCRK6wxRecti
_ZN13wxRendererGTKD0Ev
_ZN13wxRendererGTKD1Ev
_ZN13wxRendererPtr3GetEv
_ZN13wxScrollEvent12ms_classInfoE
_ZN13wxScrollEvent14wxCreateObjectEv
_ZN13wxScrollEventC1Eiiii
_ZN13wxScrollEventC2Eiiii
_ZN13wxScrollEventD0Ev
_ZN13wxScrollEventD1Ev
_ZN13wxTextWrapper4WrapEP8wxWindowRK8wxStringi
_ZN13wxTextWrapper9OnNewLineEv
_ZN13wxTextWrapperD0Ev
_ZN13wxTextWrapperD1Ev
_ZN13wxTIFFHandler12ms_classInfoE
_ZN13wxTIFFHandler13GetImageCountER13wxInputStream
_ZN13wxTIFFHandler14wxCreateObjectEv
_ZN13wxTIFFHandler8LoadFileEP7wxImageR13wxInputStreambi
_ZN13wxTIFFHandler8SaveFileEP7wxImageR14wxOutputStreamb
_ZN13wxTIFFHandler9DoCanReadER13wxInputStream
_ZN13wxTIFFHandlerC1Ev
_ZN13wxTIFFHandlerC2Ev
_ZN13wxTIFFHandlerD0Ev
_ZN13wxTIFFHandlerD1Ev
_ZN13wxToolBarBase10AddControlEP9wxControl
_ZN13wxToolBarBase10ClearToolsEv
_ZN13wxToolBarBase10DeleteToolEi
_ZN13wxToolBarBase10EnableToolEib
_ZN13wxToolBarBase10FixupStyleEv
_ZN13wxToolBarBase10InsertToolEjiRK8wxStringRK8wxBitmapS5_10wxItemKindS2_S2_P8wxObject
_ZN13wxToolBarBase10InsertToolEjP17wxToolBarToolBase
_ZN13wxToolBarBase10RemoveToolEi
_ZN13wxToolBarBase10SetMarginsEii
_ZN13wxToolBarBase10ToggleToolEib
_ZN13wxToolBarBase11FindControlEi
_ZN13wxToolBarBase11OnLeftClickEib
_ZN13wxToolBarBase12AddSeparatorEv
_ZN13wxToolBarBase12OnMouseEnterEi
_ZN13wxToolBarBase12OnRightClickEill
_ZN13wxToolBarBase13InsertControlEjP9wxControl
_ZN13wxToolBarBase13sm_eventTableE
_ZN13wxToolBarBase14SetToolPackingEi
_ZN13wxToolBarBase14UpdateWindowUIEl
_ZN13wxToolBarBase15DeleteToolByPosEj
_ZN13wxToolBarBase15InsertSeparatorEj
_ZN13wxToolBarBase15SetToolLongHelpEiRK8wxString
_ZN13wxToolBarBase16SetToolShortHelpEiRK8wxString
_ZN13wxToolBarBase17SetToolBitmapSizeERK6wxSize
_ZN13wxToolBarBase17SetToolClientDataEiP8wxObject
_ZN13wxToolBarBase17SetToolSeparationEi
_ZN13wxToolBarBase17sm_eventHashTableE
_ZN13wxToolBarBase18UnToggleRadioGroupEP17wxToolBarToolBase
_ZN13wxToolBarBase20sm_eventTableEntriesE
_ZN13wxToolBarBase7AddToolEP17wxToolBarToolBase
_ZN13wxToolBarBase7RealizeEv
_ZN13wxToolBarBase7SetRowsEi
_ZN13wxToolBarBase9DoAddToolEiRK8wxStringRK8wxBitmapS5_10wxItemKindS2_S2_P8wxObjectii
_ZN13wxToolBarBase9SetToggleEib
_ZN13wxToolBarBaseC1Ev
_ZN13wxToolBarBaseC2Ev
_ZN13wxToolBarBaseD0Ev
_ZN13wxToolBarBaseD1Ev
_ZN13wxToolBarBaseD2Ev
_ZN13wxToolBarTool4InitEv
_ZN13wxToolBarToolD0Ev
_ZN13wxToolBarToolD1Ev
_ZN13wxTransform2DD0Ev
_ZN13wxTransform2DD1Ev
_ZN13wxVariantData4ReadER8wxString
_ZN13wxVariantData4ReadERSi
_ZN14AutoCheckTimer6NotifyEv
_ZN14AutoCheckTimerD0Ev
_ZN14AutoCheckTimerD1Ev
_ZN14wxAccelRefDataD0Ev
_ZN14wxAccelRefDataD1Ev
_ZN14wxArtGtkModule12ms_classInfoE
_ZN14wxArtGtkModule14wxCreateObjectEv
_ZN14wxArtGtkModule6OnExitEv
_ZN14wxArtGtkModule6OnInitEv
_ZN14wxArtGtkModuleD0Ev
_ZN14wxArtGtkModuleD1Ev
_ZN14wxBitmapButton10SetDefaultEv
_ZN14wxBitmapButton11OnSetBitmapEv
_ZN14wxBitmapButton11StartSelectEv
_ZN14wxBitmapButton12ms_classInfoE
_ZN14wxBitmapButton13OnFocusChangeER12wxFocusEvent
_ZN14wxBitmapButton14wxCreateObjectEv
_ZN14wxBitmapButton18DoApplyWidgetStyleEP11_GtkRcStyle
_ZN14wxBitmapButton4InitEv
_ZN14wxBitmapButton6CreateEP8wxWindowiRK8wxBitmapRK7wxPointRK6wxSizelRK11wxValidatorRK8wxString
_ZN14wxBitmapButton6EnableEb
_ZN14wxBitmapButton8HasFocusEv
_ZN14wxBitmapButton8NotFocusEv
_ZN14wxBitmapButton8SetLabelERK8wxBitmap
_ZN14wxBitmapButton8SetLabelERK8wxString
_ZN14wxBitmapButton9EndSelectEv
_ZN14wxBitmapButtonC1EP8wxWindowiRK8wxBitmapRK7wxPointRK6wxSizelRK11wxValidatorRK8wxString
_ZN14wxBitmapButtonD0Ev
_ZN14wxBitmapButtonD1Ev
_ZN14wxBookCtrlBase10DeletePageEj
_ZN14wxBookCtrlBase10InsertPageEjP8wxWindowRK8wxStringbi
_ZN14wxBookCtrlBase10RemovePageEj
_ZN14wxBookCtrlBase11SetPageSizeERK6wxSize
_ZN14wxBookCtrlBase12DoRemovePageEj
_ZN14wxBookCtrlBase12ms_classInfoE
_ZN14wxBookCtrlBase12SetImageListEP11wxImageList
_ZN14wxBookCtrlBase13sm_eventTableE
_ZN14wxBookCtrlBase14DeleteAllPagesEv
_ZN14wxBookCtrlBase14DoSetSelectionEji
_ZN14wxBookCtrlBase15AssignImageListEP11wxImageList
_ZN14wxBookCtrlBase16MakeChangedEventER19wxBookCtrlBaseEvent
_ZN14wxBookCtrlBase17sm_eventHashTableE
_ZN14wxBookCtrlBase18UpdateSelectedPageEj
_ZN14wxBookCtrlBase20DoInvalidateBestSizeEv
_ZN14wxBookCtrlBase20sm_eventTableEntriesE
_ZN14wxBookCtrlBase4InitEv
_ZN14wxBookCtrlBase6CreateEP8wxWindowiRK7wxPointRK6wxSizelRK8wxString
_ZN14wxBookCtrlBase6DoSizeEv
_ZN14wxBookCtrlBase6OnHelpER11wxHelpEvent
_ZN14wxBookCtrlBase6OnSizeER11wxSizeEvent
_ZN14wxBookCtrlBase7AddPageEP8wxWindowRK8wxStringbi
_ZN14wxBookCtrlBaseD0Ev
_ZN14wxBookCtrlBaseD1Ev
_ZN14wxBookCtrlBaseD2Ev
_ZN14wxBrushRefDataD0Ev
_ZN14wxBrushRefDataD1Ev
_ZN14wxCheckBoxBase16DoSet3StateValueE15wxCheckBoxState
_ZN14wxCheckBoxBase16DoUpdateWindowUIER15wxUpdateUIEvent
_ZN14wxCheckBoxBase24HasTransparentBackgroundEv
_ZN14wxCheckBoxBaseD0Ev
_ZN14wxCheckBoxBaseD1Ev
_ZN14wxCheckListBox12ms_classInfoE
_ZN14wxCheckListBox14wxCreateObjectEv
_ZN14wxCheckListBox17DoCreateCheckListEv
_ZN14wxCheckListBox5CheckEjb
_ZN14wxCheckListBoxC1EP8wxWindowiRK7wxPointRK6wxSizeiPK8wxStringlRK11wxValidatorRS9_
_ZN14wxCheckListBoxC1EP8wxWindowiRK7wxPointRK6wxSizeRK13wxArrayStringlRK11wxValidatorRK8wxString
_ZN14wxCheckListBoxC1Ev
_ZN14wxCheckListBoxC2EP8wxWindowiRK7wxPointRK6wxSizeiPK8wxStringlRK11wxValidatorRS9_
_ZN14wxCheckListBoxC2EP8wxWindowiRK7wxPointRK6wxSizeRK13wxArrayStringlRK11wxValidatorRK8wxString
_ZN14wxCheckListBoxC2Ev
_ZN14wxCheckListBoxD0Ev
_ZN14wxCheckListBoxD1Ev
_ZN14wxColourButton12ms_classInfoE
_ZN14wxColourButton12UpdateColourEv
_ZN14wxColourButton14wxCreateObjectEv
_ZN14wxColourButton6CreateEP8wxWindowiRK8wxColourRK7wxPointRK6wxSizelRK11wxValidatorRK8wxString
_ZN14wxColourButtonD0Ev
_ZN14wxColourButtonD1Ev
_ZN14wxColourButtonD2Ev
_ZN14wxColourDialog12DoMoveWindowEiiii
_ZN14wxColourDialog12ms_classInfoE
_ZN14wxColourDialog14wxCreateObjectEv
_ZN14wxColourDialog18ColourDataToDialogEv
_ZN14wxColourDialog18DialogToColourDataEv
_ZN14wxColourDialog6CreateEP8wxWindowP12wxColourData
_ZN14wxColourDialog9DoSetSizeEiiiii
_ZN14wxColourDialog9ShowModalEv
_ZN14wxColourDialogC1EP8wxWindowP12wxColourData
_ZN14wxColourDialogC2EP8wxWindowP12wxColourData
_ZN14wxColourDialogD0Ev
_ZN14wxColourDialogD1Ev
_ZN14wxComboBoxBase20SetInsertionPointEndEv
_ZN14wxComboBoxBase6RemoveEll
_ZN14wxComboBoxBaseD0Ev
_ZN14wxComboBoxBaseD1Ev
_ZN14wxCommandEvent12ms_classInfoE
_ZN14wxCommandEvent14wxCreateObjectEv
_ZN14wxCommandEventC1Eii
_ZN14wxCommandEventC2Eii
_ZN14wxCommandEventD0Ev
_ZN14wxCommandEventD1Ev
_ZN14wxEventLoopPtrD1Ev
_ZN14wxEventLoopPtrD2Ev
_ZN14wxGridBagSizer11GetItemSpanEj
_ZN14wxGridBagSizer11GetItemSpanEP7wxSizer
_ZN14wxGridBagSizer11GetItemSpanEP8wxWindow
_ZN14wxGridBagSizer11RecalcSizesEv
_ZN14wxGridBagSizer11SetItemSpanEjRK8wxGBSpan
_ZN14wxGridBagSizer11SetItemSpanEP7wxSizerRK8wxGBSpan
_ZN14wxGridBagSizer11SetItemSpanEP8wxWindowRK8wxGBSpan
_ZN14wxGridBagSizer12ms_classInfoE
_ZN14wxGridBagSizer13FindEmptyCellEv
_ZN14wxGridBagSizer15FindItemAtPointERK7wxPoint
_ZN14wxGridBagSizer15GetItemPositionEj
_ZN14wxGridBagSizer15GetItemPositionEP7wxSizer
_ZN14wxGridBagSizer15GetItemPositionEP8wxWindow
_ZN14wxGridBagSizer15SetItemPositionEjRK12wxGBPosition
_ZN14wxGridBagSizer15SetItemPositionEP7wxSizerRK12wxGBPosition
_ZN14wxGridBagSizer15SetItemPositionEP8wxWindowRK12wxGBPosition
_ZN14wxGridBagSizer16FindItemWithDataEPK8wxObject
_ZN14wxGridBagSizer17AdjustForOverflowEv
_ZN14wxGridBagSizer18FindItemAtPositionERK12wxGBPosition
_ZN14wxGridBagSizer20CheckForIntersectionEP13wxGBSizerItemS1_
_ZN14wxGridBagSizer20CheckForIntersectionERK12wxGBPositionRK8wxGBSpanP13wxGBSizerItem
_ZN14wxGridBagSizer3AddEiiiiiP8wxObject
_ZN14wxGridBagSizer3AddEiiRK12wxGBPositionRK8wxGBSpaniiP8wxObject
_ZN14wxGridBagSizer3AddEP11wxSizerItem
_ZN14wxGridBagSizer3AddEP13wxGBSizerItem
_ZN14wxGridBagSizer3AddEP7wxSizeriiiP8wxObject
_ZN14wxGridBagSizer3AddEP7wxSizerRK12wxGBPositionRK8wxGBSpaniiP8wxObject
_ZN14wxGridBagSizer3AddEP8wxWindowiiiP8wxObject
_ZN14wxGridBagSizer3AddEP8wxWindowRK12wxGBPositionRK8wxGBSpaniiP8wxObject
_ZN14wxGridBagSizer6InsertEjiiiiiP8wxObject
_ZN14wxGridBagSizer6InsertEjP11wxSizerItem
_ZN14wxGridBagSizer6InsertEjP7wxSizeriiiP8wxObject
_ZN14wxGridBagSizer6InsertEjP8wxWindowiiiP8wxObject
_ZN14wxGridBagSizer7CalcMinEv
_ZN14wxGridBagSizer7PrependEiiiiiP8wxObject
_ZN14wxGridBagSizer7PrependEP11wxSizerItem
_ZN14wxGridBagSizer7PrependEP7wxSizeriiiP8wxObject
_ZN14wxGridBagSizer7PrependEP8wxWindowiiiP8wxObject
_ZN14wxGridBagSizer8FindItemEP7wxSizer
_ZN14wxGridBagSizer8FindItemEP8wxWindow
_ZN14wxGridBagSizerC1Eii
_ZN14wxGridBagSizerC2Eii
_ZN14wxGridBagSizerD0Ev
_ZN14wxGridBagSizerD1Ev
_ZN14wxGUIAppTraits12WaitForChildER13wxExecuteData
_ZN14wxGUIAppTraits20CreateEndProcessPipeER13wxExecuteData
_ZN14wxGUIAppTraits25IsWriteFDOfEndProcessPipeER13wxExecuteDatai
_ZN14wxGUIAppTraits29DetachWriteFDOfEndProcessPipeER13wxExecuteData
_ZN14wxGUIAppTraitsD0Ev
_ZN14wxGUIAppTraitsD1Ev
_ZN14wxHelpProvider10RemoveHelpEP12wxWindowBase
_ZN14wxHelpProvider15ms_helpProviderE
_ZN14wxHelpProvider15ShowHelpAtPointEP12wxWindowBaseRK7wxPointN11wxHelpEvent6OriginE
_ZN14wxHelpProvider23GetHelpTextMaybeAtPointEP12wxWindowBase
_ZN14wxHelpProvider7AddHelpEiRK8wxString
_ZN14wxHelpProvider7AddHelpEP12wxWindowBaseRK8wxString
_ZN14wxHelpProvider8ShowHelpEP12wxWindowBase
_ZN14wxHelpProviderD0Ev
_ZN14wxHelpProviderD1Ev
_ZN14wxHelpProviderD2Ev
_ZN14wxIconizeEvent12ms_classInfoE
_ZN14wxIconizeEvent14wxCreateObjectEv
_ZN14wxIconizeEventD0Ev
_ZN14wxIconizeEventD1Ev
_ZN14wxImageHandler12ms_classInfoE
_ZN14wxImageHandler13CallDoCanReadER13wxInputStream
_ZN14wxImageHandler13GetImageCountER13wxInputStream
_ZN14wxImageHandler7CanReadERK8wxString
_ZN14wxImageHandler8LoadFileEP7wxImageR13wxInputStreambi
_ZN14wxImageHandler8SaveFileEP7wxImageR14wxOutputStreamb
_ZN14wxImageHandlerC2Ev
_ZN14wxImageHandlerD0Ev
_ZN14wxImageHandlerD1Ev
_ZN14wxImageHandlerD2Ev
_ZN14wxImageRefDataC1Ev
_ZN14wxImageRefDataC2Ev
_ZN14wxImageRefDataD0Ev
_ZN14wxImageRefDataD1Ev
_ZN14wxImageRefDataD2Ev
_ZN14wxLabelWrapper12OnOutputLineERK8wxString
_ZN14wxLabelWrapper9OnNewLineEv
_ZN14wxLabelWrapperD0Ev
_ZN14wxLabelWrapperD1Ev
_ZN14wxListItemData11SetPositionEii
_ZN14wxListItemData4InitEv
_ZN14wxListItemData7SetItemERK10wxListItem
_ZN14wxListItemData7SetSizeEii
_ZN14wxListItemDataC1EP16wxListMainWindow
_ZN14wxListItemDataC2EP16wxListMainWindow
_ZN14wxListItemDataD1Ev
_ZN14wxListItemDataD2Ev
_ZN14wxListLineData11SetPositionEiii
_ZN14wxListLineData13CalculateSizeEP4wxDCi
_ZN14wxListLineData13SetAttributesEP4wxDCPK14wxListItemAttrb
_ZN14wxListLineData16DrawInReportModeEP4wxDCRK6wxRectS4_b
_ZN14wxListLineData16ReverseHighlightEv
_ZN14wxListLineData17DrawTextFormattedEP4wxDCRK8wxStringiiii
_ZN14wxListLineData4DrawEP4wxDC
_ZN14wxListLineData7GetItemEiR10wxListItem
_ZN14wxListLineData7SetAttrEP14wxListItemAttr
_ZN14wxListLineData7SetItemEiRK10wxListItem
_ZN14wxListLineData7SetTextEiRK8wxString
_ZN14wxListLineData8SetImageEii
_ZN14wxListLineData9HighlightEb
_ZN14wxListLineData9InitItemsEi
_ZN14wxListLineDataC1EP16wxListMainWindow
_ZN14wxListLineDataC2EP16wxListMainWindow
_ZN14wxMemoryDCBase20SelectObjectAsSourceERK8wxBitmap
_ZN14wxMemoryDCBaseD0Ev
_ZN14wxMemoryDCBaseD1Ev
_ZN14wxMenuItemBase12GetLabelTextERK8wxString
_ZN14wxMenuItemBase12SetCheckableEb
_ZN14wxMenuItemBase16GetLabelFromTextERK8wxString
_ZN14wxMenuItemBase3NewEP6wxMenuiRK8wxStringS4_10wxItemKindS1_
_ZN14wxMenuItemBase5CheckEb
_ZN14wxMenuItemBase6EnableEb
_ZN14wxMenuItemBase7SetHelpERK8wxString
_ZN14wxMenuItemBase7SetTextERK8wxString
_ZN14wxMenuItemBase8SetAccelEP18wxAcceleratorEntry
_ZN14wxMenuItemBaseC1EP6wxMenuiRK8wxStringS4_10wxItemKindS1_
_ZN14wxMenuItemBaseC2EP6wxMenuiRK8wxStringS4_10wxItemKindS1_
_ZN14wxMenuItemBaseD0Ev
_ZN14wxMenuItemBaseD1Ev
_ZN14wxMenuItemBaseD2Ev
_ZN14wxMenuItemList10CreateNodeEP10wxNodeBaseS1_PvRK9wxListKey
_ZN14wxMenuItemListD0Ev
_ZN14wxMenuItemListD1Ev
_ZN14wxNcPaintEvent12ms_classInfoE
_ZN14wxNcPaintEvent14wxCreateObjectEv
_ZN14wxNcPaintEventD0Ev
_ZN14wxNcPaintEventD1Ev
_ZN14wxNotebookBase20SendPageChangedEventEii
_ZN14wxNotebookBase21SendPageChangingEventEi
_ZN14wxNotebookBaseD0Ev
_ZN14wxNotebookBaseD1Ev
_ZN14wxPostScriptDC10DoDrawIconERK6wxIconii
_ZN14wxPostScriptDC10DoDrawLineEiiii
_ZN14wxPostScriptDC10DoDrawTextERK8wxStringii
_ZN14wxPostScriptDC10SetPaletteERK9wxPalette
_ZN14wxPostScriptDC11DoCrossHairEii
_ZN14wxPostScriptDC11DoDrawLinesEiP7wxPointii
_ZN14wxPostScriptDC11DoDrawPointEii
_ZN14wxPostScriptDC11DoFloodFillEiiRK8wxColouri
_ZN14wxPostScriptDC12DoDrawBitmapERK8wxBitmapiib
_ZN14wxPostScriptDC12DoDrawSplineEP6wxList
_ZN14wxPostScriptDC12ms_classInfoE
_ZN14wxPostScriptDC13DoDrawEllipseEiiii
_ZN14wxPostScriptDC13DoDrawPolygonEiP7wxPointiii
_ZN14wxPostScriptDC13GetResolutionEv
_ZN14wxPostScriptDC13SetBackgroundERK7wxBrush
_ZN14wxPostScriptDC13SetResolutionEi
_ZN14wxPostScriptDC14wxCreateObjectEv
_ZN14wxPostScriptDC15DoDrawRectangleEiiii
_ZN14wxPostScriptDC15SetDeviceOriginEii
_ZN14wxPostScriptDC16ms_PSScaleFactorE
_ZN14wxPostScriptDC17DoDrawEllipticArcEiiiidd
_ZN14wxPostScriptDC17DoDrawPolyPolygonEiPiP7wxPointiii
_ZN14wxPostScriptDC17DoDrawRotatedTextERK8wxStringiid
_ZN14wxPostScriptDC17SetBackgroundModeEi
_ZN14wxPostScriptDC18SetAxisOrientationEbb
_ZN14wxPostScriptDC18SetLogicalFunctionEi
_ZN14wxPostScriptDC19DoSetClippingRegionEiiii
_ZN14wxPostScriptDC21DestroyClippingRegionEv
_ZN14wxPostScriptDC22DoDrawRoundedRectangleEiiiid
_ZN14wxPostScriptDC27DoSetClippingRegionAsRegionERK8wxRegion
_ZN14wxPostScriptDC5ClearEv
_ZN14wxPostScriptDC6DoBlitEiiiiP4wxDCiiibii
_ZN14wxPostScriptDC6EndDocEv
_ZN14wxPostScriptDC6SetPenERK5wxPen
_ZN14wxPostScriptDC7EndPageEv
_ZN14wxPostScriptDC7PsPrintEi
_ZN14wxPostScriptDC7PsPrintEPKc
_ZN14wxPostScriptDC7SetFontERK6wxFont
_ZN14wxPostScriptDC8PsPrintfEPKcz
_ZN14wxPostScriptDC8SetBrushERK7wxBrush
_ZN14wxPostScriptDC8StartDocERK8wxString
_ZN14wxPostScriptDC9DoDrawArcEiiiiii
_ZN14wxPostScriptDC9StartPageEv
_ZN14wxPostScriptDCC1ERK11wxPrintData
_ZN14wxPostScriptDCC1Ev
_ZN14wxPostScriptDCC2ERK11wxPrintData
_ZN14wxPostScriptDCC2Ev
_ZN14wxPostScriptDCD0Ev
_ZN14wxPostScriptDCD1Ev
_ZN14wxPostScriptDCD2Ev
_ZN14wxPreviewFrame10InitializeEv
_ZN14wxPreviewFrame12CreateCanvasEv
_ZN14wxPreviewFrame12ms_classInfoE
_ZN14wxPreviewFrame13OnCloseWindowER12wxCloseEvent
_ZN14wxPreviewFrame13sm_eventTableE
_ZN14wxPreviewFrame16CreateControlBarEv
_ZN14wxPreviewFrame17sm_eventHashTableE
_ZN14wxPreviewFrame20sm_eventTableEntriesE
_ZN14wxPreviewFrameC1EP18wxPrintPreviewBaseP8wxWindowRK8wxStringRK7wxPointRK6wxSizelS6_
_ZN14wxPreviewFrameC2EP18wxPrintPreviewBaseP8wxWindowRK8wxStringRK7wxPointRK6wxSizelS6_
_ZN14wxPreviewFrameD0Ev
_ZN14wxPreviewFrameD1Ev
_ZN14wxPreviewFrameD2Ev
_ZN14wxPrintFactory10GetFactoryEv
_ZN14wxPrintFactory15SetPrintFactoryEPS_
_ZN14wxPrintFactory9m_factoryE
_ZN14wxPrintFactoryD0Ev
_ZN14wxPrintFactoryD1Ev
_ZN14wxPrintPreview10RenderPageEi
_ZN14wxPrintPreview11SetPrintoutEP10wxPrintout
_ZN14wxPrintPreview12ms_classInfoE
_ZN14wxPrintPreview13DrawBlankPageEP15wxPreviewCanvasR4wxDC
_ZN14wxPrintPreview14SetCurrentPageEi
_ZN14wxPrintPreview16AdjustScrollbarsEP15wxPreviewCanvas
_ZN14wxPrintPreview16DetermineScalingEv
_ZN14wxPrintPreview18GetPrintDialogDataEv
_ZN14wxPrintPreview5PrintEb
_ZN14wxPrintPreview5SetOkEb
_ZN14wxPrintPreview7SetZoomEi
_ZN14wxPrintPreview8SetFrameEP7wxFrame
_ZN14wxPrintPreview9PaintPageEP15wxPreviewCanvasR4wxDC
_ZN14wxPrintPreview9SetCanvasEP15wxPreviewCanvas
_ZN14wxPrintPreviewC1EP10wxPrintoutS1_P11wxPrintData
_ZN14wxPrintPreviewC1EP10wxPrintoutS1_P17wxPrintDialogData
_ZN14wxPrintPreviewC2EP10wxPrintoutS1_P11wxPrintData
_ZN14wxPrintPreviewC2EP10wxPrintoutS1_P17wxPrintDialogData
_ZN14wxPrintPreviewD0Ev
_ZN14wxPrintPreviewD1Ev
_ZN14wxPrintPreviewD2Ev
_ZN14wxRadioBoxBase11SetMajorDimEjl
_ZN14wxRadioBoxBase14SetItemToolTipEjRK8wxString
_ZN14wxRadioBoxBase15SetItemHelpTextEjRK8wxString
_ZN14wxRadioBoxBase16DoSetItemToolTipEjP9wxToolTip
_ZN14wxRadioBoxBaseD0Ev
_ZN14wxRadioBoxBaseD1Ev
_ZN14wxRadioBoxBaseD2Ev
_ZN14wxRect2DDouble11ConstrainToERKS_
_ZN14wxRect2DDouble5UnionERK15wxPoint2DDouble
_ZN14wxRect2DDouble5UnionERKS_S1_PS_
_ZN14wxRect2DDouble9IntersectERKS_S1_PS_
_ZN14wxRect2DDoubleaSERKS_
_ZN14wxScrollHelper11DoPrepareDCER4wxDC
_ZN14wxScrollHelper12HandleOnCharER10wxKeyEvent
_ZN14wxScrollHelper12HandleOnSizeER11wxSizeEvent
_ZN14wxScrollHelper12ScrollLayoutEv
_ZN14wxScrollHelper13CalcScrollIncER16wxScrollWinEvent
_ZN14wxScrollHelper13HandleOnPaintER12wxPaintEvent
_ZN14wxScrollHelper13SetScrollbarsEiiiiiib
_ZN14wxScrollHelper13SetScrollRateEii
_ZN14wxScrollHelper14HandleOnScrollER16wxScrollWinEvent
_ZN14wxScrollHelper15EnableScrollingEbb
_ZN14wxScrollHelper15SetTargetWindowEP8wxWindow
_ZN14wxScrollHelper16AdjustScrollbarsEv
_ZN14wxScrollHelper16DeleteEvtHandlerEv
_ZN14wxScrollHelper17DoSetTargetWindowEP8wxWindow
_ZN14wxScrollHelper17SetScrollPageSizeEii
_ZN14wxScrollHelper17StopAutoScrollingEv
_ZN14wxScrollHelper18HandleOnChildFocusER17wxChildFocusEvent
_ZN14wxScrollHelper18HandleOnMouseEnterER12wxMouseEvent
_ZN14wxScrollHelper18HandleOnMouseLeaveER12wxMouseEvent
_ZN14wxScrollHelper18HandleOnMouseWheelER12wxMouseEvent
_ZN14wxScrollHelper22ScrollDoSetVirtualSizeEii
_ZN14wxScrollHelper6OnDrawER4wxDC
_ZN14wxScrollHelper6ScrollEii
_ZN14wxScrollHelperC1EP8wxWindow
_ZN14wxScrollHelperC2EP8wxWindow
_ZN14wxScrollHelperD0Ev
_ZN14wxScrollHelperD1Ev
_ZN14wxScrollHelperD2Ev
_ZN14wxSearchButton13sm_eventTableE
_ZN14wxSearchButton17sm_eventHashTableE
_ZN14wxSearchButton20sm_eventTableEntriesE
_ZN14wxSearchButton7OnPaintER12wxPaintEvent
_ZN14wxSearchButton8OnLeftUpER12wxMouseEvent
_ZN14wxSearchButtonD0Ev
_ZN14wxSearchButtonD1Ev
_ZN14wxStaticBitmap12ms_classInfoE
_ZN14wxStaticBitmap14wxCreateObjectEv
_ZN14wxStaticBitmap25GetClassDefaultAttributesE15wxWindowVariant
_ZN14wxStaticBitmap6CreateEP8wxWindowiRK8wxBitmapRK7wxPointRK6wxSizelRK8wxString
_ZN14wxStaticBitmap7SetIconERK6wxIcon
_ZN14wxStaticBitmap9SetBitmapERK8wxBitmap
_ZN14wxStaticBitmapC1EP8wxWindowiRK8wxBitmapRK7wxPointRK6wxSizelRK8wxString
_ZN14wxStaticBitmapC1Ev
_ZN14wxStaticBitmapC2EP8wxWindowiRK8wxBitmapRK7wxPointRK6wxSizelRK8wxString
_ZN14wxStaticBitmapC2Ev
_ZN14wxStaticBitmapD0Ev
_ZN14wxStaticBitmapD1Ev
_ZN14wxTextCtrlBase10DoLoadFileERK8wxStringi
_ZN14wxTextCtrlBase10DoSaveFileERK8wxStringi
_ZN14wxTextCtrlBase11ChangeValueERK8wxString
_ZN14wxTextCtrlBase12ms_classInfoE
_ZN14wxTextCtrlBase12SetMaxLengthEm
_ZN14wxTextCtrlBase15EmulateKeyPressERK10wxKeyEvent
_ZN14wxTextCtrlBase15SetDefaultStyleERK10wxTextAttr
_ZN14wxTextCtrlBase16DoUpdateWindowUIER15wxUpdateUIEvent
_ZN14wxTextCtrlBase20SendTextUpdatedEventEv
_ZN14wxTextCtrlBase8GetStyleElR10wxTextAttr
_ZN14wxTextCtrlBase8overflowEi
_ZN14wxTextCtrlBase8SaveFileERK8wxStringi
_ZN14wxTextCtrlBase8SetStyleEllRK10wxTextAttr
_ZN14wxTextCtrlBase8SetValueERK8wxString
_ZN14wxTextCtrlBase9SelectAllEv
_ZN14wxTextCtrlBaseC2Ev
_ZN14wxTextCtrlBaseD0Ev
_ZN14wxTextCtrlBaseD1Ev
_ZN14wxTextCtrlBaseD2Ev
_ZN14wxTextCtrlBaselsEc
_ZN14wxTextCtrlBaselsEd
_ZN14wxTextCtrlBaselsEf
_ZN14wxTextCtrlBaselsEi
_ZN14wxTextCtrlBaselsEl
_ZN14wxTextCtrlBaselsERK8wxString
_ZN14wxTextUrlEvent12ms_classInfoE
_ZN14wxTextUrlEvent14wxCreateObjectEv
_ZN14wxTextUrlEventD0Ev
_ZN14wxTextUrlEventD1Ev
_ZN14wxToggleButton12ms_classInfoE
_ZN14wxToggleButton14wxCreateObjectEv
_ZN14wxToggleButton18DoApplyWidgetStyleEP11_GtkRcStyle
_ZN14wxToggleButton25GetClassDefaultAttributesE15wxWindowVariant
_ZN14wxToggleButton6CreateEP8wxWindowiRK8wxStringRK7wxPointRK6wxSizelRK11wxValidatorS4_
_ZN14wxToggleButton6EnableEb
_ZN14wxToggleButton8SetLabelERK8wxString
_ZN14wxToggleButton8SetValueEb
_ZN14wxToggleButtonD0Ev
_ZN14wxToggleButtonD1Ev
_ZN14wxTreeCtrlBase11CollapseAllEv
_ZN14wxTreeCtrlBase14OnCompareItemsERK12wxTreeItemIdS2_
_ZN14wxTreeCtrlBase17ExpandAllChildrenERK12wxTreeItemId
_ZN14wxTreeCtrlBase19CollapseAllChildrenERK12wxTreeItemId
_ZN14wxTreeCtrlBase9ExpandAllEv
_ZN14wxTreeCtrlBaseD0Ev
_ZN14wxTreeCtrlBaseD1Ev
_ZN14wxTreeCtrlBaseD2Ev
_ZN14wxTreeItemDataD0Ev
_ZN14wxTreeItemDataD1Ev
_ZN14wxTreeTextCtrl11OnKillFocusER12wxFocusEvent
_ZN14wxTreeTextCtrl13AcceptChangesEv
_ZN14wxTreeTextCtrl13sm_eventTableE
_ZN14wxTreeTextCtrl17sm_eventHashTableE
_ZN14wxTreeTextCtrl20sm_eventTableEntriesE
_ZN14wxTreeTextCtrl6FinishEb
_ZN14wxTreeTextCtrl6OnCharER10wxKeyEvent
_ZN14wxTreeTextCtrl7EndEditEb
_ZN14wxTreeTextCtrl7OnKeyUpER10wxKeyEvent
_ZN14wxTreeTextCtrlC1EP17wxGenericTreeCtrlP17wxGenericTreeItem
_ZN14wxTreeTextCtrlC2EP17wxGenericTreeCtrlP17wxGenericTreeItem
_ZN14wxTreeTextCtrlD0Ev
_ZN14wxTreeTextCtrlD1Ev
_ZN15wxActivateEvent12ms_classInfoE
_ZN15wxActivateEvent14wxCreateObjectEv
_ZN15wxActivateEventD0Ev
_ZN15wxActivateEventD1Ev
_ZN15wxBitmapHandler12ms_classInfoE
_ZN15wxBitmapHandlerD0Ev
_ZN15wxBitmapHandlerD1Ev
_ZN15wxBitmapRefDataC1Ev
_ZN15wxBitmapRefDataC2Ev
_ZN15wxBitmapRefDataD0Ev
_ZN15wxBitmapRefDataD1Ev
_ZN15wxBitmapRefDataD2Ev
_ZN15wxClipboardBase19UsePrimarySelectionEb
_ZN15wxClipboardBase3GetEv
_ZN15wxClipboardBase5FlushEv
_ZN15wxClipboardBaseD0Ev
_ZN15wxClipboardBaseD1Ev
_ZN15wxColourRefData10FreeColourEv
_ZN15wxColourRefData11AllocColourEP12_GdkColormap
_ZN15wxColourRefDataD0Ev
_ZN15wxColourRefDataD1Ev
_ZN15wxComboCtrlBase10DrawButtonER4wxDCRK6wxRecti
_ZN15wxComboCtrlBase10OnKeyEventER10wxKeyEvent
_ZN15wxComboCtrlBase11AnimateShowERK6wxRecti
_ZN15wxComboCtrlBase11CreatePopupEv
_ZN15wxComboCtrlBase11DoShowPopupERK6wxRecti
_ZN15wxComboCtrlBase11OnIdleEventER11wxIdleEvent
_ZN15wxComboCtrlBase11OnSizeEventER11wxSizeEvent
_ZN15wxComboCtrlBase12DestroyPopupEv
_ZN15wxComboCtrlBase12DoSetToolTipEP9wxToolTip
_ZN15wxComboCtrlBase12GetValidatorEv
_ZN15wxComboCtrlBase12ms_classInfoE
_ZN15wxComboCtrlBase12OnFocusEventER12wxFocusEvent
_ZN15wxComboCtrlBase12SetSelectionEll
_ZN15wxComboCtrlBase12SetValidatorERK11wxValidator
_ZN15wxComboCtrlBase13GetButtonSizeEv
_ZN15wxComboCtrlBase13OnButtonClickEv
_ZN15wxComboCtrlBase13OnThemeChangeEv
_ZN15wxComboCtrlBase13SetTextIndentEi
_ZN15wxComboCtrlBase13sm_eventTableE
_ZN15wxComboCtrlBase14CalculateAreasEi
_ZN15wxComboCtrlBase14CreateTextCtrlEiRK11wxValidator
_ZN15wxComboCtrlBase14OnPopupDismissEv
_ZN15wxComboCtrlBase15OnTextCtrlEventER14wxCommandEvent
_ZN15wxComboCtrlBase16PositionTextCtrlEii
_ZN15wxComboCtrlBase16RecalcAndRefreshEv
_ZN15wxComboCtrlBase16SetButtonBitmapsERK8wxBitmapbS2_S2_S2_
_ZN15wxComboCtrlBase17DoSetPopupControlEP12wxComboPopup
_ZN15wxComboCtrlBase17SetButtonPositionEiiii
_ZN15wxComboCtrlBase17SetInsertionPointEl
_ZN15wxComboCtrlBase17SetValueWithEventERK8wxStringb
_ZN15wxComboCtrlBase17sm_eventHashTableE
_ZN15wxComboCtrlBase18EnsurePopupControlEv
_ZN15wxComboCtrlBase18OnSysColourChangedER23wxSysColourChangedEvent
_ZN15wxComboCtrlBase19SetCustomPaintWidthEi
_ZN15wxComboCtrlBase20InstallInputHandlersEv
_ZN15wxComboCtrlBase20PreprocessMouseEventER12wxMouseEventi
_ZN15wxComboCtrlBase20SetInsertionPointEndEv
_ZN15wxComboCtrlBase20sm_eventTableEntriesE
_ZN15wxComboCtrlBase22HandleButtonMouseEventER12wxMouseEventi
_ZN15wxComboCtrlBase22HandleNormalMouseEventER12wxMouseEvent
_ZN15wxComboCtrlBase31GetMainWindowOfCompositeControlEv
_ZN15wxComboCtrlBase3CutEv
_ZN15wxComboCtrlBase4CopyEv
_ZN15wxComboCtrlBase4InitEv
_ZN15wxComboCtrlBase4ShowEb
_ZN15wxComboCtrlBase4UndoEv
_ZN15wxComboCtrlBase5PasteEv
_ZN15wxComboCtrlBase6CreateEP8wxWindowiRK8wxStringRK7wxPointRK6wxSizelRK11wxValidatorS4_
_ZN15wxComboCtrlBase6EnableEb
_ZN15wxComboCtrlBase6RemoveEll
_ZN15wxComboCtrlBase7ReplaceEllRK8wxString
_ZN15wxComboCtrlBase7SetFontERK6wxFont
_ZN15wxComboCtrlBase7SetTextERK8wxString
_ZN15wxComboCtrlBase8SetValueERK8wxString
_ZN15wxComboCtrlBase9HidePopupEv
_ZN15wxComboCtrlBase9ShowPopupEv
_ZN15wxComboCtrlBaseD0Ev
_ZN15wxComboCtrlBaseD1Ev
_ZN15wxComboCtrlBaseD2Ev
_ZN15wxCursorRefDataC1Ev
_ZN15wxCursorRefDataC2Ev
_ZN15wxCursorRefDataD0Ev
_ZN15wxCursorRefDataD1Ev
_ZN15wxCursorRefDataD2Ev
_ZN15wxDialUpManager6CreateEv
_ZN15wxDialUpManagerD0Ev
_ZN15wxDialUpManagerD1Ev
_ZN15wxDirDialogBase10SetMessageERK8wxString
_ZN15wxDirDialogBase7SetPathERK8wxString
_ZN15wxDirDialogBase8SetStyleEl
_ZN15wxDirDialogBaseD0Ev
_ZN15wxDirDialogBaseD1Ev
_ZN15wxDirPickerCtrl12CreatePickerEP8wxWindowRK8wxStringS4_S4_
_ZN15wxDirPickerCtrl12ms_classInfoE
_ZN15wxDirPickerCtrl14wxCreateObjectEv
_ZN15wxDirPickerCtrlD0Ev
_ZN15wxDirPickerCtrlD1Ev
_ZN15wxDisplayModule12ms_classInfoE
_ZN15wxDisplayModule14wxCreateObjectEv
_ZN15wxDisplayModule6OnExitEv
_ZN15wxDisplayModule6OnInitEv
_ZN15wxDisplayModuleD0Ev
_ZN15wxDisplayModuleD1Ev
_ZN15wxDocChildFrame10OnActivateER15wxActivateEvent
_ZN15wxDocChildFrame12ms_classInfoE
_ZN15wxDocChildFrame12ProcessEventER7wxEvent
_ZN15wxDocChildFrame13OnCloseWindowER12wxCloseEvent
_ZN15wxDocChildFrame13sm_eventTableE
_ZN15wxDocChildFrame17sm_eventHashTableE
_ZN15wxDocChildFrame20sm_eventTableEntriesE
_ZN15wxDocChildFrame7DestroyEv
_ZN15wxDocChildFrameC1EP10wxDocumentP6wxViewP7wxFrameiRK8wxStringRK7wxPointRK6wxSizelS8_
_ZN15wxDocChildFrameC2EP10wxDocumentP6wxViewP7wxFrameiRK8wxStringRK7wxPointRK6wxSizelS8_
_ZN15wxDocChildFrameD0Ev
_ZN15wxDocChildFrameD1Ev
_ZN15wxEventLoopBase13ms_activeLoopE
_ZN15wxEventLoopBase6OnExitEv
_ZN15wxEventLoopBaseD0Ev
_ZN15wxEventLoopBaseD1Ev
_ZN15wxFileIconEntryD0Ev
_ZN15wxFileIconEntryD1Ev
_ZN15wxFlexGridSizer11RecalcSizesEv
_ZN15wxFlexGridSizer12ms_classInfoE
_ZN15wxFlexGridSizer14AddGrowableColEji
_ZN15wxFlexGridSizer14AddGrowableRowEji
_ZN15wxFlexGridSizer17RemoveGrowableColEj
_ZN15wxFlexGridSizer17RemoveGrowableRowEj
_ZN15wxFlexGridSizer18AdjustForGrowablesERK6wxSizeS2_ii
_ZN15wxFlexGridSizer22AdjustForFlexDirectionEv
_ZN15wxFlexGridSizer7CalcMinEv
_ZN15wxFlexGridSizerC1Eiii
_ZN15wxFlexGridSizerC1Eiiii
_ZN15wxFlexGridSizerC2Eiii
_ZN15wxFlexGridSizerC2Eiiii
_ZN15wxFlexGridSizerD0Ev
_ZN15wxFlexGridSizerD1Ev
_ZN15wxFlexGridSizerD2Ev
_ZN15wxHashTableBaseD0Ev
_ZN15wxHashTableBaseD1Ev
_ZN15wxItemContainer13SetClientDataEjPv
_ZN15wxItemContainer15SetClientObjectEjP12wxClientData
_ZN15wxItemContainer6AppendERK13wxArrayString
_ZN15wxItemContainer6InsertERK8wxStringjP12wxClientData
_ZN15wxItemContainer6InsertERK8wxStringjPv
_ZN15wxItemContainerD0Ev
_ZN15wxItemContainerD1Ev
_ZN15wxItemContainerD2Ev
_ZN15wxJoystickEvent12ms_classInfoE
_ZN15wxJoystickEvent14wxCreateObjectEv
_ZN15wxJoystickEventD0Ev
_ZN15wxJoystickEventD1Ev
_ZN15wxListbookEvent12ms_classInfoE
_ZN15wxListbookEvent14wxCreateObjectEv
_ZN15wxListbookEventD0Ev
_ZN15wxListbookEventD1Ev
_ZN15wxMaximizeEvent12ms_classInfoE
_ZN15wxMaximizeEvent14wxCreateObjectEv
_ZN15wxMaximizeEventD0Ev
_ZN15wxMaximizeEventD1Ev
_ZN15wxMDIChildFrame10OnActivateER15wxActivateEvent
_ZN15wxMDIChildFrame10SetMenuBarEP9wxMenuBar
_ZN15wxMDIChildFrame12ms_classInfoE
_ZN15wxMDIChildFrame13CreateToolBarEliRK8wxString
_ZN15wxMDIChildFrame13SetStatusTextERK8wxStringi
_ZN15wxMDIChildFrame13sm_eventTableE
_ZN15wxMDIChildFrame14DoSetSizeHintsEiiiiii
_ZN15wxMDIChildFrame14wxCreateObjectEv
_ZN15wxMDIChildFrame15CreateStatusBarEiliRK8wxString
_ZN15wxMDIChildFrame15DoSetClientSizeEii
_ZN15wxMDIChildFrame15OnMenuHighlightER11wxMenuEvent
_ZN15wxMDIChildFrame15SetStatusWidthsEiPKi
_ZN15wxMDIChildFrame17sm_eventHashTableE
_ZN15wxMDIChildFrame20sm_eventTableEntriesE
_ZN15wxMDIChildFrame6CreateEP16wxMDIParentFrameiRK8wxStringRK7wxPointRK6wxSizelS4_
_ZN15wxMDIChildFrame7DestroyEv
_ZN15wxMDIChildFrame7IconizeEb
_ZN15wxMDIChildFrame7RestoreEv
_ZN15wxMDIChildFrame7SetIconERK6wxIcon
_ZN15wxMDIChildFrame8ActivateEv
_ZN15wxMDIChildFrame8AddChildEP12wxWindowBase
_ZN15wxMDIChildFrame8MaximizeEb
_ZN15wxMDIChildFrame8SetIconsERK12wxIconBundle
_ZN15wxMDIChildFrame8SetTitleERK8wxString
_ZN15wxMDIChildFrame9DoSetSizeEiiiii
_ZN15wxMDIChildFrameC1EP16wxMDIParentFrameiRK8wxStringRK7wxPointRK6wxSizelS4_
_ZN15wxMDIChildFrameC1Ev
_ZN15wxMDIChildFrameC2EP16wxMDIParentFrameiRK8wxStringRK7wxPointRK6wxSizelS4_
_ZN15wxMDIChildFrameC2Ev
_ZN15wxMDIChildFrameD0Ev
_ZN15wxMDIChildFrameD1Ev
_ZN15wxMDIChildFrameD2Ev
_ZN15wxMessageDialog12DoMoveWindowEiiii
_ZN15wxMessageDialog12ms_classInfoE
_ZN15wxMessageDialog4ShowEb
_ZN15wxMessageDialog9DoSetSizeEiiiii
_ZN15wxMessageDialog9ShowModalEv
_ZN15wxMessageDialogC1EP8wxWindowRK8wxStringS4_lRK7wxPoint
_ZN15wxMessageDialogC2EP8wxWindowRK8wxStringS4_lRK7wxPoint
_ZN15wxMessageDialogD0Ev
_ZN15wxMessageDialogD1Ev
_ZN15wxMessageDialogD2Ev
_ZN15wxMessageOutputD0Ev
_ZN15wxMessageOutputD1Ev
_ZN15wxNotebookEvent12ms_classInfoE
_ZN15wxNotebookEvent14wxCreateObjectEv
_ZN15wxNotebookEventD0Ev
_ZN15wxNotebookEventD1Ev
_ZN15wxObjectRefDataD0Ev
_ZN15wxObjectRefDataD1Ev
_ZN15wxPoint2DDouble14SetVectorAngleEd
_ZN15wxPreviewCanvas12ms_classInfoE
_ZN15wxPreviewCanvas12OnMouseWheelER12wxMouseEvent
_ZN15wxPreviewCanvas13sm_eventTableE
_ZN15wxPreviewCanvas17sm_eventHashTableE
_ZN15wxPreviewCanvas18OnSysColourChangedER23wxSysColourChangedEvent
_ZN15wxPreviewCanvas20sm_eventTableEntriesE
_ZN15wxPreviewCanvas6OnCharER10wxKeyEvent
_ZN15wxPreviewCanvas7OnPaintER12wxPaintEvent
_ZN15wxPreviewCanvasC1EP18wxPrintPreviewBaseP8wxWindowRK7wxPointRK6wxSizelRK8wxString
_ZN15wxPreviewCanvasC2EP18wxPrintPreviewBaseP8wxWindowRK7wxPointRK6wxSizelRK8wxString
_ZN15wxPreviewCanvasD0Ev
_ZN15wxPreviewCanvasD1Ev
_ZN15wxPreviewCanvasD2Ev
_ZN15wxRegionRefDataD0Ev
_ZN15wxRegionRefDataD1Ev
_ZN15wxResourceCacheD0Ev
_ZN15wxResourceCacheD1Ev
_ZN15wxResourceCacheD2Ev
_ZN15wxScrollBarBaseD0Ev
_ZN15wxScrollBarBaseD1Ev
_ZN15wxSizerItemList10CreateNodeEP10wxNodeBaseS1_PvRK9wxListKey
_ZN15wxSizerItemListD0Ev
_ZN15wxSizerItemListD1Ev
_ZN15wxSplitterEvent12ms_classInfoE
_ZN15wxSplitterEvent14wxCreateObjectEv
_ZN15wxSplitterEventD0Ev
_ZN15wxSplitterEventD1Ev
_ZN15wxStaticBoxBase24HasTransparentBackgroundEv
_ZN15wxStaticBoxBaseD0Ev
_ZN15wxStaticBoxBaseD1Ev
_ZN15wxStatusBarBase10FreeStacksEv
_ZN15wxStatusBarBase10FreeStylesEv
_ZN15wxStatusBarBase10FreeWidthsEv
_ZN15wxStatusBarBase10InitStacksEv
_ZN15wxStatusBarBase10InitStylesEv
_ZN15wxStatusBarBase10InitWidthsEv
_ZN15wxStatusBarBase13PopStatusTextEi
_ZN15wxStatusBarBase14PushStatusTextERK8wxStringi
_ZN15wxStatusBarBase14SetFieldsCountEiPKi
_ZN15wxStatusBarBase15SetStatusStylesEiPKi
_ZN15wxStatusBarBase15SetStatusWidthsEiPKi
_ZN15wxStatusBarBase22GetOrCreateStatusStackEi
_ZN15wxStatusBarBaseC1Ev
_ZN15wxStatusBarBaseC2Ev
_ZN15wxStatusBarBaseD0Ev
_ZN15wxStatusBarBaseD1Ev
_ZN15wxStatusBarBaseD2Ev
_ZN15wxSystemObjectsC1Ev
_ZN15wxSystemObjectsD1Ev
_ZN15wxTextValidator12ms_classInfoE
_ZN15wxTextValidator13sm_eventTableE
_ZN15wxTextValidator14wxCreateObjectEv
_ZN15wxTextValidator16IsInCharIncludesERK8wxString
_ZN15wxTextValidator16TransferToWindowEv
_ZN15wxTextValidator17sm_eventHashTableE
_ZN15wxTextValidator18TransferFromWindowEv
_ZN15wxTextValidator19IsNotInCharExcludesERK8wxString
_ZN15wxTextValidator20sm_eventTableEntriesE
_ZN15wxTextValidator4CopyERKS_
_ZN15wxTextValidator6OnCharER10wxKeyEvent
_ZN15wxTextValidator8ValidateEP8wxWindow
_ZN15wxTextValidatorC1ElP8wxString
_ZN15wxTextValidatorC1ERKS_
_ZN15wxTextValidatorC2ElP8wxString
_ZN15wxTextValidatorC2ERKS_
_ZN15wxTextValidatorD0Ev
_ZN15wxTextValidatorD1Ev
_ZN15wxTipWindowView11OnMouseMoveER12wxMouseEvent
_ZN15wxTipWindowView12OnMouseClickER12wxMouseEvent
_ZN15wxTipWindowView13sm_eventTableE
_ZN15wxTipWindowView17sm_eventHashTableE
_ZN15wxTipWindowView20sm_eventTableEntriesE
_ZN15wxTipWindowView6AdjustERK8wxStringi
_ZN15wxTipWindowView7OnPaintER12wxPaintEvent
_ZN15wxTipWindowViewC1EP8wxWindow
_ZN15wxTipWindowViewC2EP8wxWindow
_ZN15wxTipWindowViewD0Ev
_ZN15wxTipWindowViewD1Ev
_ZN15wxToolbookEvent12ms_classInfoE
_ZN15wxToolbookEvent14wxCreateObjectEv
_ZN15wxToolbookEventD0Ev
_ZN15wxToolbookEventD1Ev
_ZN15wxTreebookEvent12ms_classInfoE
_ZN15wxTreebookEvent14wxCreateObjectEv
_ZN15wxTreebookEventD0Ev
_ZN15wxTreebookEventD1Ev
_ZN15wxTreeFindTimer6NotifyEv
_ZN15wxTreeFindTimerD0Ev
_ZN15wxTreeFindTimerD1Ev
_ZN15wxUpdateUIEvent12ms_classInfoE
_ZN15wxUpdateUIEvent13sm_lastUpdateE
_ZN15wxUpdateUIEvent13sm_updateModeE
_ZN15wxUpdateUIEvent14wxCreateObjectEv
_ZN15wxUpdateUIEvent15ResetUpdateTimeEv
_ZN15wxUpdateUIEvent17sm_updateIntervalE
_ZN15wxUpdateUIEvent9CanUpdateEP12wxWindowBase
_ZN15wxUpdateUIEventD0Ev
_ZN15wxUpdateUIEventD1Ev
_ZN16wxColourDatabase10FindColourERK8wxString
_ZN16wxColourDatabase10InitializeEv
_ZN16wxColourDatabase9AddColourERK8wxStringRK8wxColour
_ZN16wxColourDatabaseC1Ev
_ZN16wxColourDatabaseC2Ev
_ZN16wxColourDatabaseD1Ev
_ZN16wxColourDatabaseD2Ev
_ZN16wxDataObjectBase7SetDataERK12wxDataFormatjPKv
_ZN16wxDataObjectBaseD0Ev
_ZN16wxDataObjectBaseD1Ev
_ZN16wxDataObjectBaseD2Ev
_ZN16wxDisplayFactory13GetFromWindowEP8wxWindow
_ZN16wxDisplayFactoryD0Ev
_ZN16wxDisplayFactoryD1Ev
_ZN16wxDisplayImplX1110ChangeModeERK11wxVideoMode
_ZN16wxDisplayImplX11D0Ev
_ZN16wxDisplayImplX11D1Ev
_ZN16wxDocParentFrame12ms_classInfoE
_ZN16wxDocParentFrame12ProcessEventER7wxEvent
_ZN16wxDocParentFrame13OnCloseWindowER12wxCloseEvent
_ZN16wxDocParentFrame13sm_eventTableE
_ZN16wxDocParentFrame17sm_eventHashTableE
_ZN16wxDocParentFrame20sm_eventTableEntriesE
_ZN16wxDocParentFrame6CreateEP12wxDocManagerP7wxFrameiRK8wxStringRK7wxPointRK6wxSizelS6_
_ZN16wxDocParentFrame6OnExitER14wxCommandEvent
_ZN16wxDocParentFrame9OnMRUFileER14wxCommandEvent
_ZN16wxDocParentFrameC1EP12wxDocManagerP7wxFrameiRK8wxStringRK7wxPointRK6wxSizelS6_
_ZN16wxDocParentFrameC1Ev
_ZN16wxDocParentFrameC2EP12wxDocManagerP7wxFrameiRK8wxStringRK7wxPointRK6wxSizelS6_
_ZN16wxDocParentFrameC2Ev
_ZN16wxDocParentFrameD0Ev
_ZN16wxDocParentFrameD1Ev
_ZN16wxDropFilesEvent12ms_classInfoE
_ZN16wxDropFilesEvent14wxCreateObjectEv
_ZN16wxDropFilesEventD0Ev
_ZN16wxDropFilesEventD1Ev
_ZN16wxDropSourceBase12GiveFeedbackE12wxDragResult
_ZN16wxDropSourceBaseD0Ev
_ZN16wxDropSourceBaseD1Ev
_ZN16wxDropTargetBase10OnDragOverEii12wxDragResult
_ZN16wxDropTargetBase7OnEnterEii12wxDragResult
_ZN16wxDropTargetBase7OnLeaveEv
_ZN16wxDropTargetBaseD0Ev
_ZN16wxDropTargetBaseD1Ev
_ZN16wxFileDataObject7AddFileERK8wxString
_ZN16wxFileDataObject7SetDataEjPKv
_ZN16wxFileDataObject7SetDataERK12wxDataFormatjPKv
_ZN16wxFileDataObjectD0Ev
_ZN16wxFileDataObjectD1Ev
_ZN16wxFileDialogBase10SetMessageERK8wxString
_ZN16wxFileDialogBase11SetFilenameERK8wxString
_ZN16wxFileDialogBase11SetWildcardERK8wxString
_ZN16wxFileDialogBase12ms_classInfoE
_ZN16wxFileDialogBase12SetDirectoryERK8wxString
_ZN16wxFileDialogBase14SetFilterIndexEi
_ZN16wxFileDialogBase14wxCreateObjectEv
_ZN16wxFileDialogBase15AppendExtensionERK8wxStringS2_
_ZN16wxFileDialogBase4InitEv
_ZN16wxFileDialogBase6CreateEP8wxWindowRK8wxStringS4_S4_S4_lRK7wxPointRK6wxSizeS4_
_ZN16wxFileDialogBase7SetPathERK8wxString
_ZN16wxFileDialogBase8SetStyleEl
_ZN16wxFileDialogBaseC2Ev
_ZN16wxFileDialogBaseD0Ev
_ZN16wxFileDialogBaseD1Ev
_ZN16wxFileDialogBaseD2Ev
_ZN16wxFileDropTarget6OnDataEii12wxDragResult
_ZN16wxFileDropTargetC1Ev
_ZN16wxFileDropTargetC2Ev
_ZN16wxFileDropTargetD0Ev
_ZN16wxFileDropTargetD1Ev
_ZN16wxFileIconsTable17GetSmallImageListEv
_ZN16wxFileIconsTable6CreateEv
_ZN16wxFileIconsTable9GetIconIDERK8wxStringS2_
_ZN16wxFileIconsTableC1Ev
_ZN16wxFileIconsTableC2Ev
_ZN16wxFileIconsTableD1Ev
_ZN16wxFileIconsTableD2Ev
_ZN16wxFilePickerCtrl12CreatePickerEP8wxWindowRK8wxStringS4_S4_
_ZN16wxFilePickerCtrl12ms_classInfoE
_ZN16wxFilePickerCtrl14wxCreateObjectEv
_ZN16wxFilePickerCtrlD0Ev
_ZN16wxFilePickerCtrlD1Ev
_ZN16wxFontDialogBase8DoCreateEP8wxWindow
_ZN16wxFontDialogBaseD0Ev
_ZN16wxFontDialogBaseD1Ev
_ZN16wxFontDialogBaseD2Ev
_ZN16wxFontEnumerator10OnFacenameERK8wxString
_ZN16wxFontEnumerator12GetEncodingsERK8wxString
_ZN16wxFontEnumerator12GetFacenamesE14wxFontEncodingb
_ZN16wxFontEnumerator14OnFontEncodingERK8wxStringS2_
_ZN16wxFontEnumerator15IsValidFacenameERK8wxString
_ZN16wxFontEnumerator18EnumerateEncodingsERK8wxString
_ZN16wxFontEnumerator18EnumerateFacenamesE14wxFontEncodingb
_ZN16wxFontEnumerator22EnumerateEncodingsUTF8ERK8wxString
_ZN16wxFontEnumeratorD0Ev
_ZN16wxFontEnumeratorD1Ev
_ZN16wxFontPickerCtrl11Font2StringERK6wxFont
_ZN16wxFontPickerCtrl11String2FontERK8wxString
_ZN16wxFontPickerCtrl12ms_classInfoE
_ZN16wxFontPickerCtrl12OnFontChangeER17wxFontPickerEvent
_ZN16wxFontPickerCtrl14wxCreateObjectEv
_ZN16wxFontPickerCtrl15SetSelectedFontERK6wxFont
_ZN16wxFontPickerCtrl24UpdatePickerFromTextCtrlEv
_ZN16wxFontPickerCtrl24UpdateTextCtrlFromPickerEv
_ZN16wxFontPickerCtrl6CreateEP8wxWindowiRK6wxFontRK7wxPointRK6wxSizelRK11wxValidatorRK8wxString
_ZN16wxFontPickerCtrlD0Ev
_ZN16wxFontPickerCtrlD1Ev
_ZN16wxGDIObjListBaseC1Ev
_ZN16wxGDIObjListBaseC2Ev
_ZN16wxGDIObjListBaseD1Ev
_ZN16wxGDIObjListBaseD2Ev
_ZN16wxGenericDirCtrl10AddSectionERK8wxStringS2_i
_ZN16wxGenericDirCtrl10AppendItemERK12wxTreeItemIdRK8wxStringiiP14wxTreeItemData
_ZN16wxGenericDirCtrl10ExpandPathERK8wxString
_ZN16wxGenericDirCtrl10ExpandRootEv
_ZN16wxGenericDirCtrl10ShowHiddenEb
_ZN16wxGenericDirCtrl11CollapseDirE12wxTreeItemId
_ZN16wxGenericDirCtrl12CollapsePathERK8wxString
_ZN16wxGenericDirCtrl12CollapseTreeEv
_ZN16wxGenericDirCtrl12ms_classInfoE
_ZN16wxGenericDirCtrl12OnExpandItemER11wxTreeEvent
_ZN16wxGenericDirCtrl12ReCreateTreeEv
_ZN16wxGenericDirCtrl13GetShowHiddenEv
_ZN16wxGenericDirCtrl13OnEndEditItemER11wxTreeEvent
_ZN16wxGenericDirCtrl13SetupSectionsEv
_ZN16wxGenericDirCtrl13sm_eventTableE
_ZN16wxGenericDirCtrl14CreateTreeCtrlEP8wxWindowiRK7wxPointRK6wxSizel
_ZN16wxGenericDirCtrl14OnCollapseItemER11wxTreeEvent
_ZN16wxGenericDirCtrl14SetDefaultPathERK8wxString
_ZN16wxGenericDirCtrl14SetFilterIndexEi
_ZN16wxGenericDirCtrl14wxCreateObjectEv
_ZN16wxGenericDirCtrl15ExtractWildcardERK8wxStringiRS0_S3_
_ZN16wxGenericDirCtrl15OnBeginEditItemER11wxTreeEvent
_ZN16wxGenericDirCtrl17sm_eventHashTableE
_ZN16wxGenericDirCtrl20sm_eventTableEntriesE
_ZN16wxGenericDirCtrl4InitEv
_ZN16wxGenericDirCtrl6CreateEP8wxWindowiRK8wxStringRK7wxPointRK6wxSizelS4_iS4_
_ZN16wxGenericDirCtrl6OnSizeER11wxSizeEvent
_ZN16wxGenericDirCtrl7SetPathERK8wxString
_ZN16wxGenericDirCtrl8DoResizeEv
_ZN16wxGenericDirCtrl9ExpandDirE12wxTreeItemId
_ZN16wxGenericDirCtrl9FindChildE12wxTreeItemIdRK8wxStringRb
_ZN16wxGenericDirCtrl9GetRootIdEv
_ZN16wxGenericDirCtrl9SetFilterERK8wxString
_ZN16wxGenericDirCtrlC1Ev
_ZN16wxGenericDirCtrlC2Ev
_ZN16wxGenericDirCtrlD0Ev
_ZN16wxGenericDirCtrlD1Ev
_ZN16wxGenericDirCtrlD2Ev
_ZN16wxListHeaderData11SetPositionEii
_ZN16wxListHeaderData4InitEv
_ZN16wxListHeaderData7GetItemER10wxListItem
_ZN16wxListHeaderData7SetItemERK10wxListItem
_ZN16wxListHeaderData8SetStateEi
_ZN16wxListHeaderData8SetWidthEi
_ZN16wxListHeaderData9SetFormatEi
_ZN16wxListHeaderData9SetHeightEi
_ZN16wxListHeaderDataC1ERK10wxListItem
_ZN16wxListHeaderDataC1Ev
_ZN16wxListHeaderDataC2ERK10wxListItem
_ZN16wxListHeaderDataC2Ev
_ZN16wxListHeaderDataD0Ev
_ZN16wxListHeaderDataD1Ev
_ZN16wxListMainWindow10DeleteItemEl
_ZN16wxListMainWindow10InsertItemER10wxListItem
_ZN16wxListMainWindow10MoveToItemEj
_ZN16wxListMainWindow10OnSetFocusER12wxFocusEvent
_ZN16wxListMainWindow10RefreshAllEv
_ZN16wxListMainWindow10ScrollListEii
_ZN16wxListMainWindow10SendNotifyEjiRK7wxPoint
_ZN16wxListMainWindow11OnArrowCharEjRK10wxKeyEvent
_ZN16wxListMainWindow11OnKillFocusER12wxFocusEvent
_ZN16wxListMainWindow11RefreshLineEj
_ZN16wxListMainWindow12DeleteColumnEi
_ZN16wxListMainWindow12HighlightAllEb
_ZN16wxListMainWindow12InsertColumnElR10wxListItem
_ZN16wxListMainWindow12ms_classInfoE
_ZN16wxListMainWindow12OnChildFocusER17wxChildFocusEvent
_ZN16wxListMainWindow12RefreshAfterEj
_ZN16wxListMainWindow12RefreshLinesEjj
_ZN16wxListMainWindow12SetImageListEP11wxImageListi
_ZN16wxListMainWindow12SetItemCountEl
_ZN16wxListMainWindow12SetItemStateElll
_ZN16wxListMainWindow13CacheLineDataEj
_ZN16wxListMainWindow13ChangeCurrentEj
_ZN16wxListMainWindow13EnsureVisibleEl
_ZN16wxListMainWindow13HighlightLineEjb
_ZN16wxListMainWindow13OnRenameTimerEv
_ZN16wxListMainWindow13sm_eventTableE
_ZN16wxListMainWindow13UpdateCurrentEv
_ZN16wxListMainWindow14DeleteAllItemsEv
_ZN16wxListMainWindow14GetItemSpacingEb
_ZN16wxListMainWindow14HighlightLinesEjjb
_ZN16wxListMainWindow14OnRenameAcceptEjRK8wxString
_ZN16wxListMainWindow14SetColumnWidthEii
_ZN16wxListMainWindow14SetItemSpacingEib
_ZN16wxListMainWindow14wxCreateObjectEv
_ZN16wxListMainWindow15RefreshSelectedEv
_ZN16wxListMainWindow15SetItemStateAllEll
_ZN16wxListMainWindow16DeleteEverythingEv
_ZN16wxListMainWindow16DoDeleteAllItemsEv
_ZN16wxListMainWindow17OnRenameCancelledEj
_ZN16wxListMainWindow17sm_eventHashTableE
_ZN16wxListMainWindow20GetVisibleLinesRangeEPjS0_
_ZN16wxListMainWindow20RecalculatePositionsEb
_ZN16wxListMainWindow20sm_eventTableEntriesE
_ZN16wxListMainWindow21GetItemWidthWithImageEP10wxListItem
_ZN16wxListMainWindow31GetMainWindowOfCompositeControlEv
_ZN16wxListMainWindow4InitEv
_ZN16wxListMainWindow4ThawEv
_ZN16wxListMainWindow6FreezeEv
_ZN16wxListMainWindow6OnCharER10wxKeyEvent
_ZN16wxListMainWindow7OnKeyUpER10wxKeyEvent
_ZN16wxListMainWindow7OnMouseER12wxMouseEvent
_ZN16wxListMainWindow7OnPaintER12wxPaintEvent
_ZN16wxListMainWindow7SetFontERK6wxFont
_ZN16wxListMainWindow7SetItemER10wxListItem
_ZN16wxListMainWindow8FindItemElm
_ZN16wxListMainWindow8FindItemElRK8wxStringb
_ZN16wxListMainWindow8FindItemERK7wxPoint
_ZN16wxListMainWindow8OnScrollER16wxScrollWinEvent
_ZN16wxListMainWindow9DrawImageEiP4wxDCii
_ZN16wxListMainWindow9EditLabelElP11wxClassInfo
_ZN16wxListMainWindow9OnKeyDownER10wxKeyEvent
_ZN16wxListMainWindow9SetColumnEiR10wxListItem
_ZN16wxListMainWindow9SortItemsEPFilllEl
_ZN16wxListMainWindowC1EP8wxWindowiRK7wxPointRK6wxSizelRK8wxString
_ZN16wxListMainWindowC1Ev
_ZN16wxListMainWindowC2EP8wxWindowiRK7wxPointRK6wxSizelRK8wxString
_ZN16wxListMainWindowC2Ev
_ZN16wxListMainWindowD0Ev
_ZN16wxListMainWindowD1Ev
_ZN16wxListMainWindowD2Ev
_ZN16wxLogPassThroughD0Ev
_ZN16wxLogPassThroughD1Ev
_ZN16wxMDIParentFrame12ActivateNextEv
_ZN16wxMDIParentFrame12ArrangeIconsEv
_ZN16wxMDIParentFrame12ms_classInfoE
_ZN16wxMDIParentFrame14OnCreateClientEv
_ZN16wxMDIParentFrame14OnInternalIdleEv
_ZN16wxMDIParentFrame14wxCreateObjectEv
_ZN16wxMDIParentFrame16ActivatePreviousEv
_ZN16wxMDIParentFrame4InitEv
_ZN16wxMDIParentFrame4TileE13wxOrientation
_ZN16wxMDIParentFrame6CreateEP8wxWindowiRK8wxStringRK7wxPointRK6wxSizelS4_
_ZN16wxMDIParentFrame7CascadeEv
_ZN16wxMDIParentFrame9GtkOnSizeEv
_ZN16wxMDIParentFrameD0Ev
_ZN16wxMDIParentFrameD1Ev
_ZN16wxMDIParentFrameD2Ev
_ZN16wxNativeFontInfo10FromStringERK8wxString
_ZN16wxNativeFontInfo11SetEncodingE14wxFontEncoding
_ZN16wxNativeFontInfo11SetFaceNameERK13wxArrayString
_ZN16wxNativeFontInfo11SetFaceNameERK8wxString
_ZN16wxNativeFontInfo12SetPointSizeEi
_ZN16wxNativeFontInfo13SetUnderlinedEb
_ZN16wxNativeFontInfo14FromUserStringERK8wxString
_ZN16wxNativeFontInfo4FreeEv
_ZN16wxNativeFontInfo4InitERKS_
_ZN16wxNativeFontInfo4InitEv
_ZN16wxNativeFontInfo8SetStyleE11wxFontStyle
_ZN16wxNativeFontInfo9SetFamilyE12wxFontFamily
_ZN16wxNativeFontInfo9SetWeightE12wxFontWeight
_ZN16wxPaletteRefDataC1Ev
_ZN16wxPaletteRefDataC2Ev
_ZN16wxPaletteRefDataD0Ev
_ZN16wxPaletteRefDataD1Ev
_ZN16wxPaletteRefDataD2Ev
_ZN16wxPrintPaperType12ms_classInfoE
_ZN16wxPrintPaperType14wxCreateObjectEv
_ZN16wxPrintPaperTypeC1E11wxPaperSizeiRK8wxStringii
_ZN16wxPrintPaperTypeC1Ev
_ZN16wxPrintPaperTypeC2E11wxPaperSizeiRK8wxStringii
_ZN16wxPrintPaperTypeC2Ev
_ZN16wxPrintPaperTypeD0Ev
_ZN16wxPrintPaperTypeD1Ev
_ZN16wxProgressDialog10EnableSkipEb
_ZN16wxProgressDialog11CreateLabelERK8wxStringP7wxSizer
_ZN16wxProgressDialog11EnableAbortEb
_ZN16wxProgressDialog11EnableCloseEv
_ZN16wxProgressDialog12ms_classInfoE
_ZN16wxProgressDialog13DoAfterUpdateEPb
_ZN16wxProgressDialog13sm_eventTableE
_ZN16wxProgressDialog13UpdateMessageERK8wxString
_ZN16wxProgressDialog17sm_eventHashTableE
_ZN16wxProgressDialog20ReenableOtherWindowsEv
_ZN16wxProgressDialog20sm_eventTableEntriesE
_ZN16wxProgressDialog4ShowEb
_ZN16wxProgressDialog5PulseERK8wxStringPb
_ZN16wxProgressDialog6OnSkipER14wxCommandEvent
_ZN16wxProgressDialog6ResumeEv
_ZN16wxProgressDialog6UpdateEiRK8wxStringPb
_ZN16wxProgressDialog6UpdateEv
_ZN16wxProgressDialog7OnCloseER12wxCloseEvent
_ZN16wxProgressDialog8OnCancelER14wxCommandEvent
_ZN16wxProgressDialogC1ERK8wxStringS2_iP8wxWindowi
_ZN16wxProgressDialogC2ERK8wxStringS2_iP8wxWindowi
_ZN16wxProgressDialogD0Ev
_ZN16wxProgressDialogD1Ev
_ZN16wxProgressDialogD2Ev
_ZN16wxRegionIterator11CreateRectsERK8wxRegion
_ZN16wxRegionIterator12ms_classInfoE
_ZN16wxRegionIterator14wxCreateObjectEv
_ZN16wxRegionIterator4InitEv
_ZN16wxRegionIterator5ResetERK8wxRegion
_ZN16wxRegionIteratoraSERKS_
_ZN16wxRegionIteratorC1ERK8wxRegion
_ZN16wxRegionIteratorC1Ev
_ZN16wxRegionIteratorC2ERK8wxRegion
_ZN16wxRegionIteratorC2Ev
_ZN16wxRegionIteratorD0Ev
_ZN16wxRegionIteratorD1Ev
_ZN16wxRegionIteratorD2Ev
_ZN16wxRegionIteratorppEi
_ZN16wxRegionIteratorppEv
_ZN16wxRendererNative10GetDefaultEv
_ZN16wxRendererNative10GetGenericEv
_ZN16wxRendererNative3GetEv
_ZN16wxRendererNative3SetEPS_
_ZN16wxRendererNative4LoadERK8wxString
_ZN16wxRendererNativeD0Ev
_ZN16wxRendererNativeD1Ev
_ZN16wxRendererNativeD2Ev
_ZN16wxScrolledWindow12ms_classInfoE
_ZN16wxScrolledWindow13sm_eventTableE
_ZN16wxScrolledWindow14wxCreateObjectEv
_ZN16wxScrolledWindow16DoSetVirtualSizeEii
_ZN16wxScrolledWindow17sm_eventHashTableE
_ZN16wxScrolledWindow20sm_eventTableEntriesE
_ZN16wxScrolledWindow6CreateEP8wxWindowiRK7wxPointRK6wxSizelRK8wxString
_ZN16wxScrolledWindow6LayoutEv
_ZN16wxScrolledWindow7OnPaintER12wxPaintEvent
_ZN16wxScrolledWindow9PrepareDCER4wxDC
_ZN16wxScrolledWindowD0Ev
_ZN16wxScrolledWindowD1Ev
_ZN16wxScrolledWindowD2Ev
_ZN16wxScrollWinEvent12ms_classInfoE
_ZN16wxScrollWinEvent14wxCreateObjectEv
_ZN16wxScrollWinEventC1Eiii
_ZN16wxScrollWinEventC2Eiii
_ZN16wxScrollWinEventD0Ev
_ZN16wxScrollWinEventD1Ev
_ZN16wxSearchCtrlBaseD0Ev
_ZN16wxSearchCtrlBaseD1Ev
_ZN16wxSearchTextCtrl13sm_eventTableE
_ZN16wxSearchTextCtrl17sm_eventHashTableE
_ZN16wxSearchTextCtrl20sm_eventTableEntriesE
_ZN16wxSearchTextCtrl6OnIdleER11wxIdleEvent
_ZN16wxSearchTextCtrl6OnTextER14wxCommandEvent
_ZN16wxSearchTextCtrl7OnFocusER12wxFocusEvent
_ZN16wxSearchTextCtrl9OnTextUrlER14wxTextUrlEvent
_ZN16wxSearchTextCtrlD0Ev
_ZN16wxSearchTextCtrlD1Ev
_ZN16wxSelectionStore10SelectItemEjb
_ZN16wxSelectionStore11SelectRangeEjjbP10wxArrayInt
_ZN16wxSelectionStore12OnItemDeleteEj
_ZN16wxSetCursorEvent12ms_classInfoE
_ZN16wxSetCursorEvent14wxCreateObjectEv
_ZN16wxSetCursorEventD0Ev
_ZN16wxSetCursorEventD1Ev
_ZN16wxSpinButtonBase6SetMaxEi
_ZN16wxSpinButtonBase6SetMinEi
_ZN16wxSpinButtonBase8SetRangeEii
_ZN16wxSpinButtonBaseD0Ev
_ZN16wxSpinButtonBaseD1Ev
_ZN16wxSplitterWindow10InitializeEP8wxWindow
_ZN16wxSplitterWindow10UpdateSizeEv
_ZN16wxSplitterWindow11DoSendEventER15wxSplitterEvent
_ZN16wxSplitterWindow11OnEnterSashEv
_ZN16wxSplitterWindow11OnLeaveSashEv
_ZN16wxSplitterWindow11RemoveChildEP12wxWindowBase
_ZN16wxSplitterWindow11SashHitTestEiii
_ZN16wxSplitterWindow11SizeWindowsEv
_ZN16wxSplitterWindow12ms_classInfoE
_ZN16wxSplitterWindow12OnChildFocusER17wxChildFocusEvent
_ZN16wxSplitterWindow12OnMouseEventER12wxMouseEvent
_ZN16wxSplitterWindow13ReplaceWindowEP8wxWindowS1_
_ZN16wxSplitterWindow13sm_eventTableE
_ZN16wxSplitterWindow14OnInternalIdleEv
_ZN16wxSplitterWindow14SetSashGravityEd
_ZN16wxSplitterWindow14wxCreateObjectEv
_ZN16wxSplitterWindow15DrawSashTrackerEii
_ZN16wxSplitterWindow15OnNavigationKeyER20wxNavigationKeyEvent
_ZN16wxSplitterWindow15SetResizeCursorEv
_ZN16wxSplitterWindow15SetSashPositionEib
_ZN16wxSplitterWindow15SplitVerticallyEP8wxWindowS1_i
_ZN16wxSplitterWindow17DoSetSashPositionEi
_ZN16wxSplitterWindow17OnDoubleClickSashEii
_ZN16wxSplitterWindow17sm_eventHashTableE
_ZN16wxSplitterWindow17SplitHorizontallyEP8wxWindowS1_i
_ZN16wxSplitterWindow18SetMinimumPaneSizeEi
_ZN16wxSplitterWindow20OnSashPositionChangeEi
_ZN16wxSplitterWindow20RedrawIfHotSensitiveEb
_ZN16wxSplitterWindow20sm_eventTableEntriesE
_ZN16wxSplitterWindow22OnSashPositionChangingEi
_ZN16wxSplitterWindow24SetFocusIgnoringChildrenEv
_ZN16wxSplitterWindow24SetSashPositionAndNotifyEi
_ZN16wxSplitterWindow4InitEv
_ZN16wxSplitterWindow6CreateEP8wxWindowiRK7wxPointRK6wxSizelRK8wxString
_ZN16wxSplitterWindow6OnSizeER11wxSizeEvent
_ZN16wxSplitterWindow7DoSplitE11wxSplitModeP8wxWindowS2_i
_ZN16wxSplitterWindow7OnFocusER12wxFocusEvent
_ZN16wxSplitterWindow7OnPaintER12wxPaintEvent
_ZN16wxSplitterWindow7UnsplitEP8wxWindow
_ZN16wxSplitterWindow8DrawSashER4wxDC
_ZN16wxSplitterWindow8SetFocusEv
_ZN16wxSplitterWindow9OnUnsplitEP8wxWindow
_ZN16wxSplitterWindowD0Ev
_ZN16wxSplitterWindowD1Ev
_ZN16wxSplitterWindowD2Ev
_ZN16wxStaticBoxSizer11RecalcSizesEv
_ZN16wxStaticBoxSizer12ms_classInfoE
_ZN16wxStaticBoxSizer6DetachEi
_ZN16wxStaticBoxSizer6DetachEP7wxSizer
_ZN16wxStaticBoxSizer6DetachEP8wxWindow
_ZN16wxStaticBoxSizer7CalcMinEv
_ZN16wxStaticBoxSizer9ShowItemsEb
_ZN16wxStaticBoxSizerC1EiP8wxWindowRK8wxString
_ZN16wxStaticBoxSizerC1EP11wxStaticBoxi
_ZN16wxStaticBoxSizerC2EiP8wxWindowRK8wxString
_ZN16wxStaticBoxSizerC2EP11wxStaticBoxi
_ZN16wxStaticBoxSizerD0Ev
_ZN16wxStaticBoxSizerD1Ev
_ZN16wxStaticBoxSizerD2Ev
_ZN16wxStaticLineBaseD0Ev
_ZN16wxStaticLineBaseD1Ev
_ZN16wxSystemSettings13GetScreenTypeEv
_ZN16wxSystemSettings13SetScreenTypeE18wxSystemScreenType
_ZN16wxSystemSettings9ms_screenE
_ZN16wxTextDataObject7SetDataEjPKv
_ZN16wxTextDataObject7SetDataERK12wxDataFormatjPKv
_ZN16wxTextDataObject7SetTextERK8wxString
_ZN16wxTextDataObjectD0Ev
_ZN16wxTextDataObjectD1Ev
_ZN16wxTextDropTarget6OnDataEii12wxDragResult
_ZN16wxTextDropTargetC1Ev
_ZN16wxTextDropTargetC2Ev
_ZN16wxTextDropTargetD0Ev
_ZN16wxTextDropTargetD1Ev
_ZN16wxTopLevelWindow12ms_classInfoE
_ZN16wxTopLevelWindowD0Ev
_ZN16wxTopLevelWindowD1Ev
_ZN16wxWindowDisablerC1EP8wxWindow
_ZN16wxWindowDisablerC2EP8wxWindow
_ZN16wxWindowDisablerD1Ev
_ZN16wxWindowDisablerD2Ev
_ZN16wxWindowListNode10DeleteDataEv
_ZN16wxWindowListNodeD0Ev
_ZN16wxWindowListNodeD1Ev
_ZN16wxwxMenuListNode10DeleteDataEv
_ZN16wxwxMenuListNodeD0Ev
_ZN16wxwxMenuListNodeD1Ev
_ZN17wxAnyChoiceDialog10CreateListEiPK8wxStringl
_ZN17wxAnyChoiceDialog6CreateEP8wxWindowRK8wxStringS4_iPS3_lRK7wxPointl
_ZN17wxAnyChoiceDialog6CreateEP8wxWindowRK8wxStringS4_RK13wxArrayStringlRK7wxPointl
_ZN17wxAnyChoiceDialogD0Ev
_ZN17wxAnyChoiceDialogD1Ev
_ZN17wxArrayVideoModes3AddERK11wxVideoModej
_ZN17wxArrayVideoModes6DoCopyERKS_
_ZN17wxArrayVideoModes6InsertERK11wxVideoModejj
_ZN17wxArrayVideoModes7DoEmptyEv
_ZN17wxArrayVideoModes8RemoveAtEjj
_ZN17wxArrayVideoModesaSERKS_
_ZN17wxArrayVideoModesC1ERKS_
_ZN17wxArrayVideoModesC2ERKS_
_ZN17wxArrayVideoModesD1Ev
_ZN17wxArrayVideoModesD2Ev
_ZN17wxAutoScrollTimer6NotifyEv
_ZN17wxAutoScrollTimerC1EP8wxWindowP14wxScrollHelperiii
_ZN17wxAutoScrollTimerC2EP8wxWindowP14wxScrollHelperiii
_ZN17wxAutoScrollTimerD0Ev
_ZN17wxAutoScrollTimerD1Ev
_ZN17wxBufferedPaintDC12ms_classInfoE
_ZN17wxBufferedPaintDCD0Ev
_ZN17wxBufferedPaintDCD1Ev
_ZN17wxChildFocusEvent12ms_classInfoE
_ZN17wxChildFocusEvent14wxCreateObjectEv
_ZN17wxChildFocusEventC1EP8wxWindow
_ZN17wxChildFocusEventC2EP8wxWindow
_ZN17wxChildFocusEventD0Ev
_ZN17wxChildFocusEventD1Ev
_ZN17wxChoicebookEvent12ms_classInfoE
_ZN17wxChoicebookEvent14wxCreateObjectEv
_ZN17wxChoicebookEventD0Ev
_ZN17wxChoicebookEventD1Ev
_ZN17wxClipboardModule12ms_classInfoE
_ZN17wxClipboardModule14wxCreateObjectEv
_ZN17wxClipboardModule6OnExitEv
_ZN17wxClipboardModule6OnInitEv
_ZN17wxClipboardModuleD0Ev
_ZN17wxClipboardModuleD1Ev
_ZN17wxCollapsiblePane12ms_classInfoE
_ZN17wxCollapsiblePane13sm_eventTableE
_ZN17wxCollapsiblePane14wxCreateObjectEv
_ZN17wxCollapsiblePane17sm_eventHashTableE
_ZN17wxCollapsiblePane20sm_eventTableEntriesE
_ZN17wxCollapsiblePane6CreateEP8wxWindowiRK8wxStringRK7wxPointRK6wxSizelRK11wxValidatorS4_
_ZN17wxCollapsiblePane6OnSizeER11wxSizeEvent
_ZN17wxCollapsiblePane8CollapseEb
_ZN17wxCollapsiblePane8SetLabelERK8wxString
_ZN17wxCollapsiblePaneD0Ev
_ZN17wxCollapsiblePaneD1Ev
_ZN17wxFindDialogEvent12ms_classInfoE
_ZN17wxFindDialogEvent14wxCreateObjectEv
_ZN17wxFindDialogEventD0Ev
_ZN17wxFindDialogEventD1Ev
_ZN17wxFindReplaceData4InitEv
_ZN17wxFontPickerEvent12ms_classInfoE
_ZN17wxFontPickerEvent14wxCreateObjectEv
_ZN17wxFontPickerEventD0Ev
_ZN17wxFontPickerEventD1Ev
_ZN17wxGenericListCtrl10DeleteItemEl
_ZN17wxGenericListCtrl10InsertItemEli
_ZN17wxGenericListCtrl10InsertItemElRK8wxString
_ZN17wxGenericListCtrl10InsertItemElRK8wxStringi
_ZN17wxGenericListCtrl10InsertItemER10wxListItem
_ZN17wxGenericListCtrl10ScrollListEii
_ZN17wxGenericListCtrl11DoPopupMenuEP6wxMenuii
_ZN17wxGenericListCtrl11RefreshItemEl
_ZN17wxGenericListCtrl11SetItemDataEll
_ZN17wxGenericListCtrl11SetItemFontElRK6wxFont
_ZN17wxGenericListCtrl11SetItemTextElRK8wxString
_ZN17wxGenericListCtrl12DeleteColumnEi
_ZN17wxGenericListCtrl12InsertColumnElR10wxListItem
_ZN17wxGenericListCtrl12InsertColumnElRK8wxStringii
_ZN17wxGenericListCtrl12ms_classInfoE
_ZN17wxGenericListCtrl12RefreshItemsEll
_ZN17wxGenericListCtrl12SetImageListEP11wxImageListi
_ZN17wxGenericListCtrl12SetItemCountEl
_ZN17wxGenericListCtrl12SetItemImageElii
_ZN17wxGenericListCtrl12SetItemStateElll
_ZN17wxGenericListCtrl12SetScrollPosEiib
_ZN17wxGenericListCtrl13EnsureVisibleEl
_ZN17wxGenericListCtrl13SetDropTargetEP12wxDropTarget
_ZN17wxGenericListCtrl13SetTextColourERK8wxColour
_ZN17wxGenericListCtrl13sm_eventTableE
_ZN17wxGenericListCtrl14DeleteAllItemsEv
_ZN17wxGenericListCtrl14OnInternalIdleEv
_ZN17wxGenericListCtrl14SetColumnWidthEii
_ZN17wxGenericListCtrl14SetItemPtrDataElm
_ZN17wxGenericListCtrl14SetItemSpacingEib
_ZN17wxGenericListCtrl14SetSingleStyleElb
_ZN17wxGenericListCtrl14wxCreateObjectEv
_ZN17wxGenericListCtrl15AssignImageListEP11wxImageListi
_ZN17wxGenericListCtrl15SetItemPositionElRK7wxPoint
_ZN17wxGenericListCtrl16DeleteAllColumnsEv
_ZN17wxGenericListCtrl16ResizeReportViewEb
_ZN17wxGenericListCtrl17SetItemTextColourElRK8wxColour
_ZN17wxGenericListCtrl17sm_eventHashTableE
_ZN17wxGenericListCtrl18CreateHeaderWindowEv
_ZN17wxGenericListCtrl18SetItemColumnImageElli
_ZN17wxGenericListCtrl18SetWindowStyleFlagEl
_ZN17wxGenericListCtrl19SetBackgroundColourERK8wxColour
_ZN17wxGenericListCtrl19SetForegroundColourERK8wxColour
_ZN17wxGenericListCtrl20sm_eventTableEntriesE
_ZN17wxGenericListCtrl23SetItemBackgroundColourElRK8wxColour
_ZN17wxGenericListCtrl25GetClassDefaultAttributesE15wxWindowVariant
_ZN17wxGenericListCtrl27CalculateAndSetHeaderHeightEv
_ZN17wxGenericListCtrl4ThawEv
_ZN17wxGenericListCtrl6CreateEP8wxWindowiRK7wxPointRK6wxSizelRK11wxValidatorRK8wxString
_ZN17wxGenericListCtrl6FreezeEv
_ZN17wxGenericListCtrl6OnSizeER11wxSizeEvent
_ZN17wxGenericListCtrl6UpdateEv
_ZN17wxGenericListCtrl7ArrangeEi
_ZN17wxGenericListCtrl7RefreshEbPK6wxRect
_ZN17wxGenericListCtrl7SetFontERK6wxFont
_ZN17wxGenericListCtrl7SetItemEliRK8wxStringi
_ZN17wxGenericListCtrl7SetItemER10wxListItem
_ZN17wxGenericListCtrl8ClearAllEv
_ZN17wxGenericListCtrl8FindItemElm
_ZN17wxGenericListCtrl8FindItemElRK7wxPointi
_ZN17wxGenericListCtrl8FindItemElRK8wxStringb
_ZN17wxGenericListCtrl8SetFocusEv
_ZN17wxGenericListCtrl9EditLabelElP11wxClassInfo
_ZN17wxGenericListCtrl9SetColumnEiR10wxListItem
_ZN17wxGenericListCtrl9SetCursorERK8wxCursor
_ZN17wxGenericListCtrl9SortItemsEPFilllEl
_ZN17wxGenericListCtrlC1Ev
_ZN17wxGenericListCtrlC2Ev
_ZN17wxGenericListCtrlD0Ev
_ZN17wxGenericListCtrlD1Ev
_ZN17wxGenericListCtrlD2Ev
_ZN17wxGenericTreeCtrl10DrawBorderERK12wxTreeItemId
_ZN17wxGenericTreeCtrl10OnSetFocusER12wxFocusEvent
_ZN17wxGenericTreeCtrl10PaintLevelEP17wxGenericTreeItemR4wxDCiRi
_ZN17wxGenericTreeCtrl10SelectItemERK12wxTreeItemIdb
_ZN17wxGenericTreeCtrl11OnKillFocusER12wxFocusEvent
_ZN17wxGenericTreeCtrl11RefreshLineEP17wxGenericTreeItem
_ZN17wxGenericTreeCtrl11SetItemBoldERK12wxTreeItemIdb
_ZN17wxGenericTreeCtrl11SetItemDataERK12wxTreeItemIdP14wxTreeItemData
_ZN17wxGenericTreeCtrl11SetItemFontERK12wxTreeItemIdRK6wxFont
_ZN17wxGenericTreeCtrl11SetItemTextERK12wxTreeItemIdRK8wxString
_ZN17wxGenericTreeCtrl11UnselectAllEv
_ZN17wxGenericTreeCtrl12DoInsertItemERK12wxTreeItemIdjRK8wxStringiiP14wxTreeItemData
_ZN17wxGenericTreeCtrl12DoSelectItemERK12wxTreeItemIdbb
_ZN17wxGenericTreeCtrl12EndEditLabelERK12wxTreeItemIdb
_ZN17wxGenericTreeCtrl12ms_classInfoE
_ZN17wxGenericTreeCtrl12OnGetToolTipER11wxTreeEvent
_ZN17wxGenericTreeCtrl12SetImageListEP11wxImageList
_ZN17wxGenericTreeCtrl12SetItemImageERK12wxTreeItemIdi14wxTreeItemIcon
_ZN17wxGenericTreeCtrl12SortChildrenERK12wxTreeItemId
_ZN17wxGenericTreeCtrl13CalculateSizeEP17wxGenericTreeItemR4wxDC
_ZN17wxGenericTreeCtrl13DoInsertAfterERK12wxTreeItemIdS2_RK8wxStringiiP14wxTreeItemData
_ZN17wxGenericTreeCtrl13EnsureVisibleERK12wxTreeItemId
_ZN17wxGenericTreeCtrl13OnRenameTimerEv
_ZN17wxGenericTreeCtrl13sm_eventTableE
_ZN17wxGenericTreeCtrl14CalculateLevelEP17wxGenericTreeItemR4wxDCiRi
_ZN17wxGenericTreeCtrl14DeleteAllItemsEv
_ZN17wxGenericTreeCtrl14DeleteChildrenERK12wxTreeItemId
_ZN17wxGenericTreeCtrl14DrawDropEffectEP17wxGenericTreeItem
_ZN17wxGenericTreeCtrl14OnInternalIdleEv
_ZN17wxGenericTreeCtrl14OnRenameAcceptEP17wxGenericTreeItemRK8wxString
_ZN17wxGenericTreeCtrl14RefreshSubtreeEP17wxGenericTreeItem
_ZN17wxGenericTreeCtrl14SetWindowStyleEl
_ZN17wxGenericTreeCtrl14wxCreateObjectEv
_ZN17wxGenericTreeCtrl15ChildrenClosingEP17wxGenericTreeItem
_ZN17wxGenericTreeCtrl15RefreshSelectedEv
_ZN17wxGenericTreeCtrl15SelectItemRangeEP17wxGenericTreeItemS1_
_ZN17wxGenericTreeCtrl15SendDeleteEventEP17wxGenericTreeItem
_ZN17wxGenericTreeCtrl15TagNextChildrenEP17wxGenericTreeItemS1_b
_ZN17wxGenericTreeCtrl16CollapseAndResetERK12wxTreeItemId
_ZN17wxGenericTreeCtrl16DoSetVirtualSizeEii
_ZN17wxGenericTreeCtrl16ResetTextControlEv
_ZN17wxGenericTreeCtrl17DoDirtyProcessingEv
_ZN17wxGenericTreeCtrl17OnRenameCancelledEP17wxGenericTreeItem
_ZN17wxGenericTreeCtrl17SetItemTextColourERK12wxTreeItemIdRK8wxColour
_ZN17wxGenericTreeCtrl17SetStateImageListEP11wxImageList
_ZN17wxGenericTreeCtrl17sm_eventHashTableE
_ZN17wxGenericTreeCtrl18AdjustMyScrollbarsEv
_ZN17wxGenericTreeCtrl18CalculatePositionsEv
_ZN17wxGenericTreeCtrl18SetItemHasChildrenERK12wxTreeItemIdb
_ZN17wxGenericTreeCtrl19CalculateLineHeightEv
_ZN17wxGenericTreeCtrl19SetBackgroundColourERK8wxColour
_ZN17wxGenericTreeCtrl19SetButtonsImageListEP11wxImageList
_ZN17wxGenericTreeCtrl19SetForegroundColourERK8wxColour
_ZN17wxGenericTreeCtrl19UnselectAllChildrenEP17wxGenericTreeItem
_ZN17wxGenericTreeCtrl20RefreshSelectedUnderEP17wxGenericTreeItem
_ZN17wxGenericTreeCtrl20SetItemDropHighlightERK12wxTreeItemIdb
_ZN17wxGenericTreeCtrl20sm_eventTableEntriesE
_ZN17wxGenericTreeCtrl22AssignButtonsImageListEP11wxImageList
_ZN17wxGenericTreeCtrl23SetItemBackgroundColourERK12wxTreeItemIdRK8wxColour
_ZN17wxGenericTreeCtrl23TagAllChildrenUntilLastEP17wxGenericTreeItemS1_b
_ZN17wxGenericTreeCtrl25GetClassDefaultAttributesE15wxWindowVariant
_ZN17wxGenericTreeCtrl4InitEv
_ZN17wxGenericTreeCtrl4ThawEv
_ZN17wxGenericTreeCtrl6CreateEP8wxWindowiRK7wxPointRK6wxSizelRK11wxValidatorRK8wxString
_ZN17wxGenericTreeCtrl6DeleteERK12wxTreeItemId
_ZN17wxGenericTreeCtrl6ExpandERK12wxTreeItemId
_ZN17wxGenericTreeCtrl6FreezeEv
_ZN17wxGenericTreeCtrl6LayoutEv
_ZN17wxGenericTreeCtrl6OnCharER10wxKeyEvent
_ZN17wxGenericTreeCtrl6OnSizeER11wxSizeEvent
_ZN17wxGenericTreeCtrl6ToggleERK12wxTreeItemId
_ZN17wxGenericTreeCtrl7AddRootERK8wxStringiiP14wxTreeItemData
_ZN17wxGenericTreeCtrl7OnMouseER12wxMouseEvent
_ZN17wxGenericTreeCtrl7OnPaintER12wxPaintEvent
_ZN17wxGenericTreeCtrl7RefreshEbPK6wxRect
_ZN17wxGenericTreeCtrl7SetFontERK6wxFont
_ZN17wxGenericTreeCtrl8CollapseERK12wxTreeItemId
_ZN17wxGenericTreeCtrl8DrawLineERK12wxTreeItemIdb
_ZN17wxGenericTreeCtrl8ScrollToERK12wxTreeItemId
_ZN17wxGenericTreeCtrl8UnselectEv
_ZN17wxGenericTreeCtrl9EditLabelERK12wxTreeItemIdP11wxClassInfo
_ZN17wxGenericTreeCtrl9PaintItemEP17wxGenericTreeItemR4wxDC
_ZN17wxGenericTreeCtrl9PrepareDCER4wxDC
_ZN17wxGenericTreeCtrl9SetIndentEj
_ZN17wxGenericTreeCtrlD0Ev
_ZN17wxGenericTreeCtrlD1Ev
_ZN17wxGenericTreeCtrlD2Ev
_ZN17wxGenericTreeItem14DeleteChildrenEP17wxGenericTreeCtrl
_ZN17wxGenericTreeItem7GetSizeERiS0_PK17wxGenericTreeCtrl
_ZN17wxGenericTreeItem7HitTestERK7wxPointPK17wxGenericTreeCtrlRii
_ZN17wxGenericTreeItem7SetTextERK8wxString
_ZN17wxGenericTreeItemC1EPS_RK8wxStringiiP14wxTreeItemData
_ZN17wxGenericTreeItemC2EPS_RK8wxStringiiP14wxTreeItemData
_ZN17wxGenericTreeItemD1Ev
_ZN17wxGenericTreeItemD2Ev
_ZN17wxGTK2ArtProvider12CreateBitmapERK8wxStringS2_RK6wxSize
_ZN17wxGTK2ArtProviderD0Ev
_ZN17wxGTK2ArtProviderD1Ev
_ZN17wxGtkNotebookPageD0Ev
_ZN17wxGtkNotebookPageD1Ev
_ZN17wxIconVariantData12ms_classInfoE
_ZN17wxIconVariantData17GetValueClassInfoEv
_ZN17wxIconVariantDataD0Ev
_ZN17wxIconVariantDataD1Ev
_ZN17wxInitDialogEvent12ms_classInfoE
_ZN17wxInitDialogEvent14wxCreateObjectEv
_ZN17wxInitDialogEventD0Ev
_ZN17wxInitDialogEventD1Ev
_ZN17wxListRenameTimer6NotifyEv
_ZN17wxListRenameTimerC1EP16wxListMainWindow
_ZN17wxListRenameTimerC2EP16wxListMainWindow
_ZN17wxListRenameTimerD0Ev
_ZN17wxListRenameTimerD1Ev
_ZN17wxMDIClientWindow12CreateClientEP16wxMDIParentFramel
_ZN17wxMDIClientWindow12ms_classInfoE
_ZN17wxMDIClientWindow14wxCreateObjectEv
_ZN17wxMDIClientWindowC1EP16wxMDIParentFramel
_ZN17wxMDIClientWindowC1Ev
_ZN17wxMDIClientWindowC2EP16wxMDIParentFramel
_ZN17wxMDIClientWindowC2Ev
_ZN17wxMDIClientWindowD0Ev
_ZN17wxMDIClientWindowD1Ev
_ZN17wxMDIClientWindowD2Ev
_ZN17wxMemoryFSHandler7AddFileERK8wxStringRK7wxImagel
_ZN17wxMemoryFSHandler7AddFileERK8wxStringRK8wxBitmapl
_ZN17wxPageSetupDialog12ms_classInfoE
_ZN17wxPageSetupDialog16GetPageSetupDataEv
_ZN17wxPageSetupDialog22GetPageSetupDialogDataEv
_ZN17wxPageSetupDialog9ShowModalEv
_ZN17wxPageSetupDialogC1EP8wxWindowP21wxPageSetupDialogData
_ZN17wxPageSetupDialogC2EP8wxWindowP21wxPageSetupDialogData
_ZN17wxPageSetupDialogD0Ev
_ZN17wxPageSetupDialogD1Ev
_ZN17wxPageSetupDialogD2Ev
_ZN17wxPopupWindowBase6CreateEP8wxWindowi
_ZN17wxPopupWindowBase8PositionERK7wxPointRK6wxSize
_ZN17wxPopupWindowBaseD0Ev
_ZN17wxPopupWindowBaseD1Ev
_ZN17wxPopupWindowBaseD2Ev
_ZN17wxPrintDialogBase12ms_classInfoE
_ZN17wxPrintDialogBaseC1EP8wxWindowiRK8wxStringRK7wxPointRK6wxSizel
_ZN17wxPrintDialogBaseC2EP8wxWindowiRK8wxStringRK7wxPointRK6wxSizel
_ZN17wxPrintDialogBaseD0Ev
_ZN17wxPrintDialogBaseD1Ev
_ZN17wxPrintDialogData12ms_classInfoE
_ZN17wxPrintDialogData14wxCreateObjectEv
_ZN17wxPrintDialogDataaSERK11wxPrintData
_ZN17wxPrintDialogDataaSERKS_
_ZN17wxPrintDialogDataC1ERK11wxPrintData
_ZN17wxPrintDialogDataC1ERKS_
_ZN17wxPrintDialogDataC1Ev
_ZN17wxPrintDialogDataC2ERK11wxPrintData
_ZN17wxPrintDialogDataC2ERKS_
_ZN17wxPrintDialogDataC2Ev
_ZN17wxPrintDialogDataD0Ev
_ZN17wxPrintDialogDataD1Ev
_ZN17wxPrintDialogDataD2Ev
_ZN17wxRendererGeneric12DoGetGenericEv
_ZN17wxRendererGeneric12DrawCheckBoxEP8wxWindowR4wxDCRK6wxRecti
_ZN17wxRendererGeneric13DrawDropArrowEP8wxWindowR4wxDCRK6wxRecti
_ZN17wxRendererGeneric14DrawPushButtonEP8wxWindowR4wxDCRK6wxRecti
_ZN17wxRendererGeneric14DrawShadedRectER4wxDCP6wxRectRK5wxPenS6_
_ZN17wxRendererGeneric16DrawHeaderButtonEP8wxWindowR4wxDCRK6wxRecti20wxHeaderSortIconTypeP20wxHeaderButtonParams
_ZN17wxRendererGeneric16DrawSplitterSashEP8wxWindowR4wxDCRK6wxSizei13wxOrientationi
_ZN17wxRendererGeneric17GetSplitterParamsEPK8wxWindow
_ZN17wxRendererGeneric18DrawSplitterBorderEP8wxWindowR4wxDCRK6wxRecti
_ZN17wxRendererGeneric18DrawTreeItemButtonEP8wxWindowR4wxDCRK6wxRecti
_ZN17wxRendererGeneric18sm_rendererGenericE
_ZN17wxRendererGeneric21DrawItemSelectionRectEP8wxWindowR4wxDCRK6wxRecti
_ZN17wxRendererGeneric21GetHeaderButtonHeightEP8wxWindow
_ZN17wxRendererGeneric22DrawComboBoxDropButtonEP8wxWindowR4wxDCRK6wxRecti
_ZN17wxRendererGeneric24DrawHeaderButtonContentsEP8wxWindowR4wxDCRK6wxRecti20wxHeaderSortIconTypeP20wxHeaderButtonParams
_ZN17wxRendererGeneric7CleanupEv
_ZN17wxRendererGenericC1Ev
_ZN17wxRendererGenericC2Ev
_ZN17wxRendererGenericD0Ev
_ZN17wxRendererGenericD1Ev
_ZN17wxRendererPtrBaseD1Ev
_ZN17wxRendererPtrBaseD2Ev
_ZN17wxStringTokenizerD0Ev
_ZN17wxStringTokenizerD1Ev
_ZN17wxTextEntryDialog12ms_classInfoE
_ZN17wxTextEntryDialog13sm_eventTableE
_ZN17wxTextEntryDialog16SetTextValidatorEl
_ZN17wxTextEntryDialog16SetTextValidatorERK15wxTextValidator
_ZN17wxTextEntryDialog17sm_eventHashTableE
_ZN17wxTextEntryDialog20sm_eventTableEntriesE
_ZN17wxTextEntryDialog4OnOKER14wxCommandEvent
_ZN17wxTextEntryDialog8SetValueERK8wxString
_ZN17wxTextEntryDialogC1EP8wxWindowRK8wxStringS4_S4_lRK7wxPoint
_ZN17wxTextEntryDialogC2EP8wxWindowRK8wxStringS4_S4_lRK7wxPoint
_ZN17wxTextEntryDialogD0Ev
_ZN17wxTextEntryDialogD1Ev
_ZN17wxToolBarToolBase11SetLongHelpERK8wxString
_ZN17wxToolBarToolBase12ms_classInfoE
_ZN17wxToolBarToolBase12SetShortHelpERK8wxString
_ZN17wxToolBarToolBase14wxCreateObjectEv
_ZN17wxToolBarToolBase6AttachEP13wxToolBarBase
_ZN17wxToolBarToolBase6DetachEv
_ZN17wxToolBarToolBase6EnableEb
_ZN17wxToolBarToolBase6ToggleEb
_ZN17wxToolBarToolBase8SetLabelERK8wxString
_ZN17wxToolBarToolBase9SetToggleEb
_ZN17wxToolBarToolBaseD0Ev
_ZN17wxToolBarToolBaseD1Ev
_ZN17wxTransformMatrix10Get_scaleXEv
_ZN17wxTransformMatrix10Get_scaleYEv
_ZN17wxTransformMatrix11GetRotationEv
_ZN17wxTransformMatrix11SetRotationEd
_ZN17wxTransformMatrix5ScaleEd
_ZN17wxTransformMatrix5ScaleERKdS1_S1_S1_
_ZN17wxTransformMatrix6InvertEv
_ZN17wxTransformMatrix6MirrorEbb
_ZN17wxTransformMatrix6RotateEd
_ZN17wxTransformMatrix6RotateERKdS1_S1_
_ZN17wxTransformMatrix8IdentityEv
_ZN17wxTransformMatrix8SetValueEiid
_ZN17wxTransformMatrix9TranslateEdd
_ZN17wxTransformMatrixaSERKS_
_ZN17wxTransformMatrixC1ERKS_
_ZN17wxTransformMatrixC1Ev
_ZN17wxTransformMatrixC2ERKS_
_ZN17wxTransformMatrixC2Ev
_ZN17wxTransformMatrixclEii
_ZN17wxTransformMatrixD0Ev
_ZN17wxTransformMatrixD1Ev
_ZN17wxTransformMatrixdVERKd
_ZN17wxTransformMatrixmIERKS_
_ZN17wxTransformMatrixmLERKd
_ZN17wxTransformMatrixmLERKS_
_ZN17wxTransformMatrixpLERKS_
_ZN17wxTreeRenameTimer6NotifyEv
_ZN17wxTreeRenameTimerC1EP17wxGenericTreeCtrl
_ZN17wxTreeRenameTimerC2EP17wxGenericTreeCtrl
_ZN17wxTreeRenameTimerD0Ev
_ZN17wxTreeRenameTimerD1Ev
_ZN17wxVScrolledWindow10RefreshAllEv
_ZN17wxVScrolledWindow11RefreshLineEj
_ZN17wxVScrolledWindow11ScrollLinesEi
_ZN17wxVScrolledWindow11ScrollPagesEi
_ZN17wxVScrolledWindow12ms_classInfoE
_ZN17wxVScrolledWindow12OnMouseWheelER12wxMouseEvent
_ZN17wxVScrolledWindow12RefreshLinesEjj
_ZN17wxVScrolledWindow12ScrollToLineEj
_ZN17wxVScrolledWindow12SetLineCountEj
_ZN17wxVScrolledWindow13sm_eventTableE
_ZN17wxVScrolledWindow15RemoveScrollbarEv
_ZN17wxVScrolledWindow15UpdateScrollbarEv
_ZN17wxVScrolledWindow17sm_eventHashTableE
_ZN17wxVScrolledWindow19FindFirstFromBottomEjb
_ZN17wxVScrolledWindow20sm_eventTableEntriesE
_ZN17wxVScrolledWindow4InitEv
_ZN17wxVScrolledWindow6LayoutEv
_ZN17wxVScrolledWindow6OnSizeER11wxSizeEvent
_ZN17wxVScrolledWindow8OnScrollER16wxScrollWinEvent
_ZN17wxVScrolledWindowD0Ev
_ZN17wxVScrolledWindowD1Ev
_ZN17wxwxAccelListNode10DeleteDataEv
_ZN17wxwxAccelListNodeD0Ev
_ZN17wxwxAccelListNodeD1Ev
_ZN18wxAcceleratorEntry10FromStringERK8wxString
_ZN18wxAcceleratorEntry10ParseAccelERK8wxStringPiS3_
_ZN18wxAcceleratorEntry6CreateERK8wxString
_ZN18wxAcceleratorTable12ms_classInfoE
_ZN18wxAcceleratorTable14wxCreateObjectEv
_ZN18wxAcceleratorTable3AddERK18wxAcceleratorEntry
_ZN18wxAcceleratorTable6RemoveERK18wxAcceleratorEntry
_ZN18wxAcceleratorTableC1EiPK18wxAcceleratorEntry
_ZN18wxAcceleratorTableC1Ev
_ZN18wxAcceleratorTableC2EiPK18wxAcceleratorEntry
_ZN18wxAcceleratorTableC2Ev
_ZN18wxAcceleratorTableD0Ev
_ZN18wxAcceleratorTableD1Ev
_ZN18wxAcceleratorTableD2Ev
_ZN18wxAnimationDecoderD0Ev
_ZN18wxAnimationDecoderD1Ev
_ZN18wxArtProviderCache15ConstructHashIDERK8wxStringS2_RK6wxSize
_ZN18wxArtProviderCache5ClearEv
_ZN18wxArtProviderCache9GetBitmapERK8wxStringP8wxBitmap
_ZN18wxArtProvidersList10CreateNodeEP10wxNodeBaseS1_PvRK9wxListKey
_ZN18wxArtProvidersListD0Ev
_ZN18wxArtProvidersListD1Ev
_ZN18wxBitmapBaseModule12ms_classInfoE
_ZN18wxBitmapBaseModule14wxCreateObjectEv
_ZN18wxBitmapBaseModule6OnExitEv
_ZN18wxBitmapBaseModule6OnInitEv
_ZN18wxBitmapBaseModuleD0Ev
_ZN18wxBitmapBaseModuleD1Ev
_ZN18wxBitmapButtonBase10SetMarginsEii
_ZN18wxBitmapButtonBase11OnSetBitmapEv
_ZN18wxBitmapButtonBase8SetLabelERK8wxString
_ZN18wxBitmapButtonBaseD0Ev
_ZN18wxBitmapButtonBaseD1Ev
_ZN18wxBitmapDataObject14DoConvertToPngEv
_ZN18wxBitmapDataObject7SetDataEjPKv
_ZN18wxBitmapDataObject7SetDataERK12wxDataFormatjPKv
_ZN18wxBitmapDataObject9SetBitmapERK8wxBitmap
_ZN18wxBitmapDataObjectC1ERK8wxBitmap
_ZN18wxBitmapDataObjectC1Ev
_ZN18wxBitmapDataObjectC2ERK8wxBitmap
_ZN18wxBitmapDataObjectC2Ev
_ZN18wxBitmapDataObjectD0Ev
_ZN18wxBitmapDataObjectD1Ev
_ZN18wxBitmapDataObjectD2Ev
_ZN18wxColourPickerCtrl12ms_classInfoE
_ZN18wxColourPickerCtrl14OnColourChangeER19wxColourPickerEvent
_ZN18wxColourPickerCtrl14wxCreateObjectEv
_ZN18wxColourPickerCtrl24UpdatePickerFromTextCtrlEv
_ZN18wxColourPickerCtrl24UpdateTextCtrlFromPickerEv
_ZN18wxColourPickerCtrl6CreateEP8wxWindowiRK8wxColourRK7wxPointRK6wxSizelRK11wxValidatorRK8wxString
_ZN18wxColourPickerCtrl9SetColourERK8wxColour
_ZN18wxColourPickerCtrl9SetColourERK8wxString
_ZN18wxColourPickerCtrlD0Ev
_ZN18wxColourPickerCtrlD1Ev
_ZN18wxComboPopupWindow15ProcessLeftDownER12wxMouseEvent
_ZN18wxComboPopupWindow4ShowEb
_ZN18wxComboPopupWindow9OnDismissEv
_ZN18wxComboPopupWindowD0Ev
_ZN18wxComboPopupWindowD1Ev
_ZN18wxCommandProcessor10InitializeEv
_ZN18wxCommandProcessor11UndoCommandER9wxCommand
_ZN18wxCommandProcessor12ms_classInfoE
_ZN18wxCommandProcessor13ClearCommandsEv
_ZN18wxCommandProcessor14SetMenuStringsEv
_ZN18wxCommandProcessor14wxCreateObjectEv
_ZN18wxCommandProcessor4RedoEv
_ZN18wxCommandProcessor4UndoEv
_ZN18wxCommandProcessor5StoreEP9wxCommand
_ZN18wxCommandProcessor6SubmitEP9wxCommandb
_ZN18wxCommandProcessor9DoCommandER9wxCommand
_ZN18wxCommandProcessorC1Ei
_ZN18wxCommandProcessorC2Ei
_ZN18wxCommandProcessorD0Ev
_ZN18wxCommandProcessorD1Ev
_ZN18wxCommandProcessorD2Ev
_ZN18wxContextMenuEvent12ms_classInfoE
_ZN18wxContextMenuEvent14wxCreateObjectEv
_ZN18wxContextMenuEventD0Ev
_ZN18wxContextMenuEventD1Ev
_ZN18wxControlContainer10DoSetFocusEv
_ZN18wxControlContainer12SetLastFocusEP8wxWindow
_ZN18wxControlContainer13HandleOnFocusER12wxFocusEvent
_ZN18wxControlContainer15SetFocusToChildEv
_ZN18wxControlContainer21HandleOnNavigationKeyER20wxNavigationKeyEvent
_ZN18wxControlContainer21HandleOnWindowDestroyEP12wxWindowBase
_ZN18wxControlContainerC1EP8wxWindow
_ZN18wxControlContainerC2EP8wxWindow
_ZN18wxControlWithItems12ms_classInfoE
_ZN18wxControlWithItems25InitCommandEventWithItemsER14wxCommandEventi
_ZN18wxControlWithItemsD0Ev
_ZN18wxControlWithItemsD1Ev
_ZN18wxControlWithItemsD2Ev
_ZN18wxCustomDataObject4FreeEv
_ZN18wxCustomDataObject5AllocEj
_ZN18wxCustomDataObject7SetDataEjPKv
_ZN18wxCustomDataObject7SetDataERK12wxDataFormatjPKv
_ZN18wxCustomDataObject8TakeDataEjPv
_ZN18wxCustomDataObjectC1ERK12wxDataFormat
_ZN18wxCustomDataObjectC2ERK12wxDataFormat
_ZN18wxCustomDataObjectD0Ev
_ZN18wxCustomDataObjectD1Ev
_ZN18wxCustomDataObjectD2Ev
_ZN18wxDataObjectSimple7SetDataEjPKv
_ZN18wxDataObjectSimple7SetDataERK12wxDataFormatjPKv
_ZN18wxDataObjectSimpleD0Ev
_ZN18wxDataObjectSimpleD1Ev
_ZN18wxDocMDIChildFrame10OnActivateER15wxActivateEvent
_ZN18wxDocMDIChildFrame12ms_classInfoE
_ZN18wxDocMDIChildFrame12ProcessEventER7wxEvent
_ZN18wxDocMDIChildFrame13OnCloseWindowER12wxCloseEvent
_ZN18wxDocMDIChildFrame13sm_eventTableE
_ZN18wxDocMDIChildFrame17sm_eventHashTableE
_ZN18wxDocMDIChildFrame20sm_eventTableEntriesE
_ZN18wxDocMDIChildFrame4InitEv
_ZN18wxDocMDIChildFrame6CreateEP10wxDocumentP6wxViewP16wxMDIParentFrameiRK8wxStringRK7wxPointRK6wxSizelS8_
_ZN18wxDocMDIChildFrame7DestroyEv
_ZN18wxDocMDIChildFrameC1EP10wxDocumentP6wxViewP16wxMDIParentFrameiRK8wxStringRK7wxPointRK6wxSizelS8_
_ZN18wxDocMDIChildFrameC1Ev
_ZN18wxDocMDIChildFrameC2EP10wxDocumentP6wxViewP16wxMDIParentFrameiRK8wxStringRK7wxPointRK6wxSizelS8_
_ZN18wxDocMDIChildFrameC2Ev
_ZN18wxDocMDIChildFrameD0Ev
_ZN18wxDocMDIChildFrameD1Ev
_ZN18wxDocMDIChildFrameD2Ev
_ZN18wxGenericComboCtrl12ms_classInfoE
_ZN18wxGenericComboCtrl12OnMouseEventER12wxMouseEvent
_ZN18wxGenericComboCtrl12OnPaintEventER12wxPaintEvent
_ZN18wxGenericComboCtrl13sm_eventTableE
_ZN18wxGenericComboCtrl14wxCreateObjectEv
_ZN18wxGenericComboCtrl17sm_eventHashTableE
_ZN18wxGenericComboCtrl19SetCustomPaintWidthEi
_ZN18wxGenericComboCtrl20sm_eventTableEntriesE
_ZN18wxGenericComboCtrl4InitEv
_ZN18wxGenericComboCtrl6CreateEP8wxWindowiRK8wxStringRK7wxPointRK6wxSizelRK11wxValidatorS4_
_ZN18wxGenericComboCtrl8OnResizeEv
_ZN18wxGenericComboCtrlD0Ev
_ZN18wxGenericComboCtrlD1Ev
_ZN18wxGenericComboCtrlD2Ev
_ZN18wxGenericDirButton12CreateDialogEv
_ZN18wxGenericDirButton12ms_classInfoE
_ZN18wxGenericDirButton14wxCreateObjectEv
_ZN18wxGenericDirButton16UpdateDialogPathEP8wxDialog
_ZN18wxGenericDirButton20UpdatePathFromDialogEP8wxDialog
_ZN18wxGenericDirButtonD0Ev
_ZN18wxGenericDirButtonD1Ev
_ZN18wxGenericDirDialog12ms_classInfoE
_ZN18wxGenericDirDialog12OnShowHiddenER14wxCommandEvent
_ZN18wxGenericDirDialog13OnCloseWindowER12wxCloseEvent
_ZN18wxGenericDirDialog13OnTreeKeyDownER11wxTreeEvent
_ZN18wxGenericDirDialog13sm_eventTableE
_ZN18wxGenericDirDialog14OnTreeSelectedER11wxTreeEvent
_ZN18wxGenericDirDialog14wxCreateObjectEv
_ZN18wxGenericDirDialog17sm_eventHashTableE
_ZN18wxGenericDirDialog20sm_eventTableEntriesE
_ZN18wxGenericDirDialog4OnOKER14wxCommandEvent
_ZN18wxGenericDirDialog5OnNewER14wxCommandEvent
_ZN18wxGenericDirDialog6CreateEP8wxWindowRK8wxStringS4_lRK7wxPointRK6wxSizeS4_
_ZN18wxGenericDirDialog7SetPathERK8wxString
_ZN18wxGenericDirDialog8EndModalEi
_ZN18wxGenericDirDialog8OnGoHomeER14wxCommandEvent
_ZN18wxGenericDirDialog9ShowModalEv
_ZN18wxGenericDirDialogC1EP8wxWindowRK8wxStringS4_lRK7wxPointRK6wxSizeS4_
_ZN18wxGenericDirDialogC2EP8wxWindowRK8wxStringS4_lRK7wxPointRK6wxSizeS4_
_ZN18wxGenericDirDialogD0Ev
_ZN18wxGenericDirDialogD1Ev
_ZN18wxGenericDragImage11RedrawImageERK7wxPointS2_bb
_ZN18wxGenericDragImage12ms_classInfoE
_ZN18wxGenericDragImage14wxCreateObjectEv
_ZN18wxGenericDragImage4HideEv
_ZN18wxGenericDragImage4InitEv
_ZN18wxGenericDragImage4MoveERK7wxPoint
_ZN18wxGenericDragImage4ShowEv
_ZN18wxGenericDragImage6CreateERK10wxListCtrll
_ZN18wxGenericDragImage6CreateERK10wxTreeCtrlR12wxTreeItemId
_ZN18wxGenericDragImage6CreateERK6wxIconRK8wxCursor
_ZN18wxGenericDragImage6CreateERK6wxIconRK8wxCursorRK7wxPoint
_ZN18wxGenericDragImage6CreateERK8wxBitmapRK8wxCursor
_ZN18wxGenericDragImage6CreateERK8wxBitmapRK8wxCursorRK7wxPoint
_ZN18wxGenericDragImage6CreateERK8wxCursor
_ZN18wxGenericDragImage6CreateERK8wxCursorRK7wxPoint
_ZN18wxGenericDragImage6CreateERK8wxStringRK8wxCursor
_ZN18wxGenericDragImage6CreateERK8wxStringRK8wxCursorRK7wxPoint
_ZN18wxGenericDragImage7EndDragEv
_ZN18wxGenericDragImage9BeginDragERK7wxPointP8wxWindowbP6wxRect
_ZN18wxGenericDragImage9BeginDragERK7wxPointP8wxWindowS4_
_ZN18wxGenericDragImageC1ERK6wxIconRK8wxCursorRK7wxPoint
_ZN18wxGenericDragImageC1ERK8wxBitmapRK8wxCursorRK7wxPoint
_ZN18wxGenericDragImageC1ERK8wxCursorRK7wxPoint
_ZN18wxGenericDragImageC1ERK8wxStringRK8wxCursorRK7wxPoint
_ZN18wxGenericDragImageC2ERK6wxIconRK8wxCursorRK7wxPoint
_ZN18wxGenericDragImageC2ERK8wxBitmapRK8wxCursorRK7wxPoint
_ZN18wxGenericDragImageC2ERK8wxCursorRK7wxPoint
_ZN18wxGenericDragImageC2ERK8wxStringRK8wxCursorRK7wxPoint
_ZN18wxGenericDragImageD0Ev
_ZN18wxGenericDragImageD1Ev
_ZN18wxGenericDragImageD2Ev
_ZN18wxGenericImageList12ms_classInfoE
_ZN18wxGenericImageList14wxCreateObjectEv
_ZN18wxGenericImageList3AddERK8wxBitmap
_ZN18wxGenericImageList3AddERK8wxBitmapRK8wxColour
_ZN18wxGenericImageList3AddERK8wxBitmapS2_
_ZN18wxGenericImageList4DrawEiR4wxDCiiib
_ZN18wxGenericImageList6CreateEiibi
_ZN18wxGenericImageList6CreateEv
_ZN18wxGenericImageList6RemoveEi
_ZN18wxGenericImageList7ReplaceEiRK8wxBitmap
_ZN18wxGenericImageList7ReplaceEiRK8wxBitmapS2_
_ZN18wxGenericImageList9RemoveAllEv
_ZN18wxGenericImageListC1Eiibi
_ZN18wxGenericImageListC2Eiibi
_ZN18wxGenericImageListD0Ev
_ZN18wxGenericImageListD1Ev
_ZN18wxGenericImageListD2Ev
_ZN18wxGenericValidator10InitializeEv
_ZN18wxGenericValidator12ms_classInfoE
_ZN18wxGenericValidator16TransferToWindowEv
_ZN18wxGenericValidator18TransferFromWindowEv
_ZN18wxGenericValidator4CopyERKS_
_ZN18wxGenericValidator8ValidateEP8wxWindow
_ZN18wxGenericValidatorC1EP10wxArrayInt
_ZN18wxGenericValidatorC1EP8wxString
_ZN18wxGenericValidatorC1EPb
_ZN18wxGenericValidatorC1EPi
_ZN18wxGenericValidatorC1ERKS_
_ZN18wxGenericValidatorC2EP10wxArrayInt
_ZN18wxGenericValidatorC2EP8wxString
_ZN18wxGenericValidatorC2EPb
_ZN18wxGenericValidatorC2EPi
_ZN18wxGenericValidatorC2ERKS_
_ZN18wxGenericValidatorD0Ev
_ZN18wxGenericValidatorD1Ev
_ZN18wxGUIAppTraitsBase14CreateRendererEv
_ZN18wxGUIAppTraitsBase15CreateLogTargetEv
_ZN18wxGUIAppTraitsBase16CreateFontMapperEv
_ZN18wxGUIAppTraitsBase18ScheduleForDestroyEP8wxObject
_ZN18wxGUIAppTraitsBase19CreateMessageOutputEv
_ZN18wxGUIAppTraitsBase23RemoveFromPendingDeleteEP8wxObject
_ZN18wxGUIAppTraitsBase26GetSocketGUIFunctionsTableEv
_ZN18wxGUIAppTraitsBase9HasStderrEv
_ZN18wxGUIAppTraitsBaseD0Ev
_ZN18wxGUIAppTraitsBaseD1Ev
_ZN18wxImageVariantData12ms_classInfoE
_ZN18wxImageVariantData17GetValueClassInfoEv
_ZN18wxImageVariantDataD0Ev
_ZN18wxImageVariantDataD1Ev
_ZN18wxListHeaderWindow10OnSetFocusER12wxFocusEvent
_ZN18wxListHeaderWindow11DrawCurrentEv
_ZN18wxListHeaderWindow12ms_classInfoE
_ZN18wxListHeaderWindow13SendListEventEiRK7wxPoint
_ZN18wxListHeaderWindow13sm_eventTableE
_ZN18wxListHeaderWindow14wxCreateObjectEv
_ZN18wxListHeaderWindow17sm_eventHashTableE
_ZN18wxListHeaderWindow20sm_eventTableEntriesE
_ZN18wxListHeaderWindow4InitEv
_ZN18wxListHeaderWindow7OnMouseER12wxMouseEvent
_ZN18wxListHeaderWindow7OnPaintER12wxPaintEvent
_ZN18wxListHeaderWindow8AdjustDCER4wxDC
_ZN18wxListHeaderWindowC1EP8wxWindowiP16wxListMainWindowRK7wxPointRK6wxSizelRK8wxString
_ZN18wxListHeaderWindowC1Ev
_ZN18wxListHeaderWindowC2EP8wxWindowiP16wxListMainWindowRK7wxPointRK6wxSizelRK8wxString
_ZN18wxListHeaderWindowC2Ev
_ZN18wxListHeaderWindowD0Ev
_ZN18wxListHeaderWindowD1Ev
_ZN18wxListHeaderWindowD2Ev
_ZN18wxListItemDataList10CreateNodeEP10wxNodeBaseS1_PvRK9wxListKey
_ZN18wxListItemDataListD0Ev
_ZN18wxListItemDataListD1Ev
_ZN18wxPrintAbortDialog13sm_eventTableE
_ZN18wxPrintAbortDialog17sm_eventHashTableE
_ZN18wxPrintAbortDialog20sm_eventTableEntriesE
_ZN18wxPrintAbortDialog8OnCancelER14wxCommandEvent
_ZN18wxPrintAbortDialogD0Ev
_ZN18wxPrintAbortDialogD1Ev
_ZN18wxPrintPaperModule12ms_classInfoE
_ZN18wxPrintPaperModule14wxCreateObjectEv
_ZN18wxPrintPaperModule6OnExitEv
_ZN18wxPrintPaperModule6OnInitEv
_ZN18wxPrintPaperModuleD0Ev
_ZN18wxPrintPaperModuleD1Ev
_ZN18wxPrintPreviewBase10RenderPageEi
_ZN18wxPrintPreviewBase11SetPrintoutEP10wxPrintout
_ZN18wxPrintPreviewBase12ms_classInfoE
_ZN18wxPrintPreviewBase13DrawBlankPageEP15wxPreviewCanvasR4wxDC
_ZN18wxPrintPreviewBase14SetCurrentPageEi
_ZN18wxPrintPreviewBase16AdjustScrollbarsEP15wxPreviewCanvas
_ZN18wxPrintPreviewBase16RenderPageIntoDCER4wxDCi
_ZN18wxPrintPreviewBase18GetPrintDialogDataEv
_ZN18wxPrintPreviewBase20RenderPageIntoBitmapER8wxBitmapi
_ZN18wxPrintPreviewBase4InitEP10wxPrintoutS1_
_ZN18wxPrintPreviewBase5SetOkEb
_ZN18wxPrintPreviewBase7SetZoomEi
_ZN18wxPrintPreviewBase8SetFrameEP7wxFrame
_ZN18wxPrintPreviewBase9CalcRectsEP15wxPreviewCanvasR6wxRectS3_
_ZN18wxPrintPreviewBase9PaintPageEP15wxPreviewCanvasR4wxDC
_ZN18wxPrintPreviewBase9SetCanvasEP15wxPreviewCanvas
_ZN18wxPrintPreviewBaseC1EP10wxPrintoutS1_P11wxPrintData
_ZN18wxPrintPreviewBaseC1EP10wxPrintoutS1_P17wxPrintDialogData
_ZN18wxPrintPreviewBaseC2EP10wxPrintoutS1_P11wxPrintData
_ZN18wxPrintPreviewBaseC2EP10wxPrintoutS1_P17wxPrintDialogData
_ZN18wxPrintPreviewBaseD0Ev
_ZN18wxPrintPreviewBaseD1Ev
_ZN18wxPrintPreviewBaseD2Ev
_ZN18wxStaticBitmapBase24HasTransparentBackgroundEv
_ZN18wxStaticBitmapBaseD0Ev
_ZN18wxStaticBitmapBaseD1Ev
_ZN18wxStaticBitmapBaseD2Ev
_ZN18wxTextSizerWrapper12OnOutputLineERK8wxString
_ZN18wxTextSizerWrapperD0Ev
_ZN18wxTextSizerWrapperD1Ev
_ZN18wxToolBarToolsList10CreateNodeEP10wxNodeBaseS1_PvRK9wxListKey
_ZN18wxToolBarToolsListD0Ev
_ZN18wxToolBarToolsListD1Ev
_ZN18wxwxListStringNode10DeleteDataEv
_ZN18wxwxListStringNodeD0Ev
_ZN18wxwxListStringNodeD1Ev
_ZN19wxANIFrameInfoArray3AddERK14wxANIFrameInfoj
_ZN19wxANIFrameInfoArray6DoCopyERKS_
_ZN19wxANIFrameInfoArray6InsertERK14wxANIFrameInfojj
_ZN19wxANIFrameInfoArray7DoEmptyEv
_ZN19wxANIFrameInfoArray8RemoveAtEjj
_ZN19wxANIFrameInfoArrayaSERKS_
_ZN19wxANIFrameInfoArrayC1ERKS_
_ZN19wxANIFrameInfoArrayC2ERKS_
_ZN19wxANIFrameInfoArrayD1Ev
_ZN19wxANIFrameInfoArrayD2Ev
_ZN19wxArtProviderModule12ms_classInfoE
_ZN19wxArtProviderModule14wxCreateObjectEv
_ZN19wxArtProviderModule6OnExitEv
_ZN19wxArtProviderModule6OnInitEv
_ZN19wxArtProviderModuleD0Ev
_ZN19wxArtProviderModuleD1Ev
_ZN19wxBitmapHandlerBase12ms_classInfoE
_ZN19wxBitmapHandlerBase6CreateEP8wxBitmapPKvliii
_ZN19wxBitmapHandlerBase8LoadFileEP8wxBitmapRK8wxStringlii
_ZN19wxBitmapHandlerBase8SaveFileEPK8wxBitmapRK8wxStringiPK9wxPalette
_ZN19wxBitmapHandlerBaseD0Ev
_ZN19wxBitmapHandlerBaseD1Ev
_ZN19wxBitmapVariantData12ms_classInfoE
_ZN19wxBitmapVariantData17GetValueClassInfoEv
_ZN19wxBitmapVariantDataD0Ev
_ZN19wxBitmapVariantDataD1Ev
_ZN19wxBookCtrlBaseEventD0Ev
_ZN19wxBookCtrlBaseEventD1Ev
_ZN19wxColourPickerEvent12ms_classInfoE
_ZN19wxColourPickerEvent14wxCreateObjectEv
_ZN19wxColourPickerEventD0Ev
_ZN19wxColourPickerEventD1Ev
_ZN19wxColourVariantData12ms_classInfoE
_ZN19wxColourVariantData17GetValueClassInfoEv
_ZN19wxColourVariantDataD0Ev
_ZN19wxColourVariantDataD1Ev
_ZN19wxContextHelpButton12ms_classInfoE
_ZN19wxContextHelpButton13OnContextHelpER14wxCommandEvent
_ZN19wxContextHelpButton13sm_eventTableE
_ZN19wxContextHelpButton17sm_eventHashTableE
_ZN19wxContextHelpButton20sm_eventTableEntriesE
_ZN19wxContextHelpButtonC1EP8wxWindowiRK7wxPointRK6wxSizel
_ZN19wxContextHelpButtonC2EP8wxWindowiRK7wxPointRK6wxSizel
_ZN19wxContextHelpButtonD0Ev
_ZN19wxContextHelpButtonD1Ev
_ZN19wxDialUpManagerImpl12CheckConnectEv
_ZN19wxDialUpManagerImpl12CheckProcNetEv
_ZN19wxDialUpManagerImpl13CancelDialingEv
_ZN19wxDialUpManagerImpl13CheckIfconfigEv
_ZN19wxDialUpManagerImpl15SetOnlineStatusEb
_ZN19wxDialUpManagerImpl16SetWellKnownHostERK8wxStringi
_ZN19wxDialUpManagerImpl17SetConnectCommandERK8wxStringS2_
_ZN19wxDialUpManagerImpl19CheckConnectAndPingEv
_ZN19wxDialUpManagerImpl19CheckStatusInternalEv
_ZN19wxDialUpManagerImpl27EnableAutoCheckOnlineStatusEj
_ZN19wxDialUpManagerImpl28DisableAutoCheckOnlineStatusEv
_ZN19wxDialUpManagerImpl4DialERK8wxStringS2_S2_b
_ZN19wxDialUpManagerImpl6HangUpEv
_ZN19wxDialUpManagerImpl9CheckPingEv
_ZN19wxDialUpManagerImplC1Ev
_ZN19wxDialUpManagerImplC2Ev
_ZN19wxDialUpManagerImplD0Ev
_ZN19wxDialUpManagerImplD1Ev
_ZN19wxDialUpManagerImplD2Ev
_ZN19wxDirFilterListCtrl11OnSelFilterER14wxCommandEvent
_ZN19wxDirFilterListCtrl12ms_classInfoE
_ZN19wxDirFilterListCtrl13sm_eventTableE
_ZN19wxDirFilterListCtrl14FillFilterListERK8wxStringi
_ZN19wxDirFilterListCtrl17sm_eventHashTableE
_ZN19wxDirFilterListCtrl20sm_eventTableEntriesE
_ZN19wxDirFilterListCtrl4InitEv
_ZN19wxDirFilterListCtrl6CreateEP16wxGenericDirCtrliRK7wxPointRK6wxSizel
_ZN19wxDirFilterListCtrlD0Ev
_ZN19wxDirFilterListCtrlD1Ev
_ZN19wxDisplayFactoryX1112GetFromPointERK7wxPoint
_ZN19wxDisplayFactoryX1113CreateDisplayEj
_ZN19wxDisplayFactoryX118GetCountEv
_ZN19wxDisplayFactoryX11D0Ev
_ZN19wxDisplayFactoryX11D1Ev
_ZN19wxDisplayImplSingle10ChangeModeERK11wxVideoMode
_ZN19wxDisplayImplSingleD0Ev
_ZN19wxDisplayImplSingleD1Ev
_ZN19wxDocMDIParentFrame12ms_classInfoE
_ZN19wxDocMDIParentFrame12ProcessEventER7wxEvent
_ZN19wxDocMDIParentFrame13OnCloseWindowER12wxCloseEvent
_ZN19wxDocMDIParentFrame13sm_eventTableE
_ZN19wxDocMDIParentFrame17sm_eventHashTableE
_ZN19wxDocMDIParentFrame20sm_eventTableEntriesE
_ZN19wxDocMDIParentFrame4InitEv
_ZN19wxDocMDIParentFrame6CreateEP12wxDocManagerP7wxFrameiRK8wxStringRK7wxPointRK6wxSizelS6_
_ZN19wxDocMDIParentFrame6OnExitER14wxCommandEvent
_ZN19wxDocMDIParentFrame9OnMRUFileER14wxCommandEvent
_ZN19wxDocMDIParentFrameC1EP12wxDocManagerP7wxFrameiRK8wxStringRK7wxPointRK6wxSizelS6_
_ZN19wxDocMDIParentFrameC1Ev
_ZN19wxDocMDIParentFrameC2EP12wxDocManagerP7wxFrameiRK8wxStringRK7wxPointRK6wxSizelS6_
_ZN19wxDocMDIParentFrameC2Ev
_ZN19wxDocMDIParentFrameD0Ev
_ZN19wxDocMDIParentFrameD1Ev
_ZN19wxFindReplaceDialog12ms_classInfoE
_ZN19wxFindReplaceDialog12OnReplaceAllER14wxCommandEvent
_ZN19wxFindReplaceDialog13OnCloseWindowER12wxCloseEvent
_ZN19wxFindReplaceDialog13sm_eventTableE
_ZN19wxFindReplaceDialog14OnUpdateFindUIER15wxUpdateUIEvent
_ZN19wxFindReplaceDialog14wxCreateObjectEv
_ZN19wxFindReplaceDialog17sm_eventHashTableE
_ZN19wxFindReplaceDialog20sm_eventTableEntriesE
_ZN19wxFindReplaceDialog4InitEv
_ZN19wxFindReplaceDialog6CreateEP8wxWindowP17wxFindReplaceDataRK8wxStringi
_ZN19wxFindReplaceDialog6OnFindER14wxCommandEvent
_ZN19wxFindReplaceDialog8OnCancelER14wxCommandEvent
_ZN19wxFindReplaceDialog9OnReplaceER14wxCommandEvent
_ZN19wxFindReplaceDialog9SendEventERKi
_ZN19wxFindReplaceDialogD0Ev
_ZN19wxFindReplaceDialogD1Ev
_ZN19wxGenericFileButton12CreateDialogEv
_ZN19wxGenericFileButton12ms_classInfoE
_ZN19wxGenericFileButton14wxCreateObjectEv
_ZN19wxGenericFileButton16UpdateDialogPathEP8wxDialog
_ZN19wxGenericFileButton20UpdatePathFromDialogEP8wxDialog
_ZN19wxGenericFileButtonD0Ev
_ZN19wxGenericFileButtonD1Ev
_ZN19wxGenericFileDialog10OnSelectedER11wxListEvent
_ZN19wxGenericFileDialog10SetMessageERK8wxString
_ZN19wxGenericFileDialog11OnActivatedER11wxListEvent
_ZN19wxGenericFileDialog11OnTextEnterER14wxCommandEvent
_ZN19wxGenericFileDialog11SetWildcardERK8wxString
_ZN19wxGenericFileDialog12HandleActionERK8wxString
_ZN19wxGenericFileDialog12ms_classInfoE
_ZN19wxGenericFileDialog12OnTextChangeER14wxCommandEvent
_ZN19wxGenericFileDialog13sm_eventTableE
_ZN19wxGenericFileDialog14OnChoiceFilterER14wxCommandEvent
_ZN19wxGenericFileDialog14SetFilterIndexEi
_ZN19wxGenericFileDialog14UpdateControlsEv
_ZN19wxGenericFileDialog14wxCreateObjectEv
_ZN19wxGenericFileDialog16DoSetFilterIndexEi
_ZN19wxGenericFileDialog16ms_lastViewStyleE
_ZN19wxGenericFileDialog17ms_lastShowHiddenE
_ZN19wxGenericFileDialog17sm_eventHashTableE
_ZN19wxGenericFileDialog20sm_eventTableEntriesE
_ZN19wxGenericFileDialog4InitEv
_ZN19wxGenericFileDialog4OnUpER14wxCommandEvent
_ZN19wxGenericFileDialog4ShowEb
_ZN19wxGenericFileDialog5OnNewER14wxCommandEvent
_ZN19wxGenericFileDialog6CreateEP8wxWindowRK8wxStringS4_S4_S4_lRK7wxPointRK6wxSizeS4_b
_ZN19wxGenericFileDialog6OnHomeER14wxCommandEvent
_ZN19wxGenericFileDialog6OnListER14wxCommandEvent
_ZN19wxGenericFileDialog7OnCheckER14wxCommandEvent
_ZN19wxGenericFileDialog7SetPathERK8wxString
_ZN19wxGenericFileDialog8OnListOkER14wxCommandEvent
_ZN19wxGenericFileDialog8OnReportER14wxCommandEvent
_ZN19wxGenericFileDialog9ShowModalEv
_ZN19wxGenericFileDialogC1EP8wxWindowRK8wxStringS4_S4_S4_lRK7wxPointRK6wxSizeS4_b
_ZN19wxGenericFileDialogC2EP8wxWindowRK8wxStringS4_S4_S4_lRK7wxPointRK6wxSizeS4_b
_ZN19wxGenericFileDialogD0Ev
_ZN19wxGenericFileDialogD1Ev
_ZN19wxGenericFileDialogD2Ev
_ZN19wxGenericFontButton10UpdateFontEv
_ZN19wxGenericFontButton12InitFontDataEv
_ZN19wxGenericFontButton12ms_classInfoE
_ZN19wxGenericFontButton13OnButtonClickER14wxCommandEvent
_ZN19wxGenericFontButton14wxCreateObjectEv
_ZN19wxGenericFontButton6CreateEP8wxWindowiRK6wxFontRK7wxPointRK6wxSizelRK11wxValidatorRK8wxString
_ZN19wxGenericFontButton7ms_dataE
_ZN19wxGenericFontButtonD0Ev
_ZN19wxGenericFontButtonD1Ev
_ZN19wxLayoutConstraints12ms_classInfoE
_ZN19wxLayoutConstraints14wxCreateObjectEv
_ZN19wxLayoutConstraints18SatisfyConstraintsEP12wxWindowBasePi
_ZN19wxLayoutConstraintsC1Ev
_ZN19wxLayoutConstraintsC2Ev
_ZN19wxLayoutConstraintsD0Ev
_ZN19wxLayoutConstraintsD1Ev
_ZN19wxListLineDataArray3AddERK14wxListLineDataj
_ZN19wxListLineDataArray6DoCopyERKS_
_ZN19wxListLineDataArray6InsertERK14wxListLineDatajj
_ZN19wxListLineDataArray7DoEmptyEv
_ZN19wxListLineDataArray8RemoveAtEjj
_ZN19wxListLineDataArrayaSERKS_
_ZN19wxListLineDataArrayC1ERKS_
_ZN19wxListLineDataArrayC2ERKS_
_ZN19wxListLineDataArrayD1Ev
_ZN19wxListLineDataArrayD2Ev
_ZN19wxMultiChoiceDialog10CreateListEiPK8wxStringl
_ZN19wxMultiChoiceDialog12ms_classInfoE
_ZN19wxMultiChoiceDialog13SetSelectionsERK10wxArrayInt
_ZN19wxMultiChoiceDialog14wxCreateObjectEv
_ZN19wxMultiChoiceDialog22TransferDataFromWindowEv
_ZN19wxMultiChoiceDialog6CreateEP8wxWindowRK8wxStringS4_iPS3_lRK7wxPoint
_ZN19wxMultiChoiceDialog6CreateEP8wxWindowRK8wxStringS4_RK13wxArrayStringlRK7wxPoint
_ZN19wxMultiChoiceDialogD0Ev
_ZN19wxMultiChoiceDialogD1Ev
_ZN19wxNumberEntryDialog12ms_classInfoE
_ZN19wxNumberEntryDialog13sm_eventTableE
_ZN19wxNumberEntryDialog17sm_eventHashTableE
_ZN19wxNumberEntryDialog20sm_eventTableEntriesE
_ZN19wxNumberEntryDialog4OnOKER14wxCommandEvent
_ZN19wxNumberEntryDialog8OnCancelER14wxCommandEvent
_ZN19wxNumberEntryDialogC1EP8wxWindowRK8wxStringS4_S4_lllRK7wxPoint
_ZN19wxNumberEntryDialogC2EP8wxWindowRK8wxStringS4_S4_lllRK7wxPoint
_ZN19wxNumberEntryDialogD0Ev
_ZN19wxNumberEntryDialogD1Ev
_ZN19wxPopupFocusHandler11OnKillFocusER12wxFocusEvent
_ZN19wxPopupFocusHandler13sm_eventTableE
_ZN19wxPopupFocusHandler17sm_eventHashTableE
_ZN19wxPopupFocusHandler20sm_eventTableEntriesE
_ZN19wxPopupFocusHandler9OnKeyDownER10wxKeyEvent
_ZN19wxPopupFocusHandlerD0Ev
_ZN19wxPopupFocusHandlerD1Ev
_ZN19wxPostScriptPrinter11PrintDialogEP8wxWindow
_ZN19wxPostScriptPrinter12ms_classInfoE
_ZN19wxPostScriptPrinter14wxCreateObjectEv
_ZN19wxPostScriptPrinter5PrintEP8wxWindowP10wxPrintoutb
_ZN19wxPostScriptPrinter5SetupEP8wxWindow
_ZN19wxPostScriptPrinterC1EP17wxPrintDialogData
_ZN19wxPostScriptPrinterC2EP17wxPrintDialogData
_ZN19wxPostScriptPrinterD0Ev
_ZN19wxPostScriptPrinterD1Ev
_ZN19wxPostScriptPrinterD2Ev
_ZN19wxPreviewControlBar10OnPreviousEv
_ZN19wxPreviewControlBar12ms_classInfoE
_ZN19wxPreviewControlBar12OnGotoButtonER14wxCommandEvent
_ZN19wxPreviewControlBar12OnLastButtonER14wxCommandEvent
_ZN19wxPreviewControlBar12OnNextButtonER14wxCommandEvent
_ZN19wxPreviewControlBar13CreateButtonsEv
_ZN19wxPreviewControlBar13OnFirstButtonER14wxCommandEvent
_ZN19wxPreviewControlBar13OnPrintButtonER14wxCommandEvent
_ZN19wxPreviewControlBar13OnWindowCloseER14wxCommandEvent
_ZN19wxPreviewControlBar13sm_eventTableE
_ZN19wxPreviewControlBar14GetZoomControlEv
_ZN19wxPreviewControlBar14SetZoomControlEi
_ZN19wxPreviewControlBar16OnPreviousButtonER14wxCommandEvent
_ZN19wxPreviewControlBar17sm_eventHashTableE
_ZN19wxPreviewControlBar20sm_eventTableEntriesE
_ZN19wxPreviewControlBar6OnGotoEv
_ZN19wxPreviewControlBar6OnLastEv
_ZN19wxPreviewControlBar6OnNextEv
_ZN19wxPreviewControlBar6OnZoomER14wxCommandEvent
_ZN19wxPreviewControlBar7OnFirstEv
_ZN19wxPreviewControlBar7OnPaintER12wxPaintEvent
_ZN19wxPreviewControlBar7OnPrintEv
_ZN19wxPreviewControlBarC1EP18wxPrintPreviewBaselP8wxWindowRK7wxPointRK6wxSizelRK8wxString
_ZN19wxPreviewControlBarC2EP18wxPrintPreviewBaselP8wxWindowRK7wxPointRK6wxSizelRK8wxString
_ZN19wxPreviewControlBarD0Ev
_ZN19wxPreviewControlBarD1Ev
_ZN19wxPreviewControlBarD2Ev
_ZN19wxTopLevelWindowGTK10RemoveGrabEv
_ZN19wxTopLevelWindowGTK12DoMoveWindowEiiii
_ZN19wxTopLevelWindowGTK14DoSetSizeHintsEiiiiii
_ZN19wxTopLevelWindowGTK14OnInternalIdleEv
_ZN19wxTopLevelWindowGTK14SetTransparentEh
_ZN19wxTopLevelWindowGTK14ShowFullScreenEbl
_ZN19wxTopLevelWindowGTK15DoSetClientSizeEii
_ZN19wxTopLevelWindowGTK15SetIconizeStateEb
_ZN19wxTopLevelWindowGTK17CanSetTransparentEv
_ZN19wxTopLevelWindowGTK17EnableCloseButtonEb
_ZN19wxTopLevelWindowGTK18SetWindowStyleFlagEl
_ZN19wxTopLevelWindowGTK20RequestUserAttentionEi
_ZN19wxTopLevelWindowGTK4InitEv
_ZN19wxTopLevelWindowGTK4ShowEb
_ZN19wxTopLevelWindowGTK5RaiseEv
_ZN19wxTopLevelWindowGTK6CreateEP8wxWindowiRK8wxStringRK7wxPointRK6wxSizelS4_
_ZN19wxTopLevelWindowGTK7AddGrabEv
_ZN19wxTopLevelWindowGTK7IconizeEb
_ZN19wxTopLevelWindowGTK7RestoreEv
_ZN19wxTopLevelWindowGTK7SetIconERK6wxIcon
_ZN19wxTopLevelWindowGTK8IsActiveEv
_ZN19wxTopLevelWindowGTK8MaximizeEb
_ZN19wxTopLevelWindowGTK8SetIconsERK12wxIconBundle
_ZN19wxTopLevelWindowGTK8SetShapeERK8wxRegion
_ZN19wxTopLevelWindowGTK8SetTitleERK8wxString
_ZN19wxTopLevelWindowGTK9DoSetSizeEiiiii
_ZN19wxTopLevelWindowGTK9GtkOnSizeEv
_ZN19wxTopLevelWindowGTKD0Ev
_ZN19wxTopLevelWindowGTKD1Ev
_ZN19wxTopLevelWindowGTKD2Ev
_ZN19wxWindowCreateEvent12ms_classInfoE
_ZN19wxWindowCreateEvent14wxCreateObjectEv
_ZN19wxWindowCreateEventC1EP8wxWindow
_ZN19wxWindowCreateEventC2EP8wxWindow
_ZN19wxWindowCreateEventD0Ev
_ZN19wxWindowCreateEventD1Ev
_ZN20wxClipboardTextEvent12ms_classInfoE
_ZN20wxClipboardTextEvent14wxCreateObjectEv
_ZN20wxClipboardTextEventD0Ev
_ZN20wxClipboardTextEventD1Ev
_ZN20wxDefaultArtProvider12CreateBitmapERK8wxStringS2_RK6wxSize
_ZN20wxDefaultArtProviderD0Ev
_ZN20wxDefaultArtProviderD1Ev
_ZN20wxFileDataObjectBaseD0Ev
_ZN20wxFileDataObjectBaseD1Ev
_ZN20wxFileDirPickerEvent12ms_classInfoE
_ZN20wxFileDirPickerEvent14wxCreateObjectEv
_ZN20wxFileDirPickerEventD0Ev
_ZN20wxFileDirPickerEventD1Ev
_ZN20wxGenericPrintDialog10GetPrintDCEv
_ZN20wxGenericPrintDialog12GetPrintDataEv
_ZN20wxGenericPrintDialog12ms_classInfoE
_ZN20wxGenericPrintDialog13sm_eventTableE
_ZN20wxGenericPrintDialog17sm_eventHashTableE
_ZN20wxGenericPrintDialog18GetPrintDialogDataEv
_ZN20wxGenericPrintDialog20sm_eventTableEntriesE
_ZN20wxGenericPrintDialog20TransferDataToWindowEv
_ZN20wxGenericPrintDialog22TransferDataFromWindowEv
_ZN20wxGenericPrintDialog4InitEP8wxWindow
_ZN20wxGenericPrintDialog4OnOKER14wxCommandEvent
_ZN20wxGenericPrintDialog7OnRangeER14wxCommandEvent
_ZN20wxGenericPrintDialog7OnSetupER14wxCommandEvent
_ZN20wxGenericPrintDialog9ShowModalEv
_ZN20wxGenericPrintDialogC1EP8wxWindowP11wxPrintData
_ZN20wxGenericPrintDialogC1EP8wxWindowP17wxPrintDialogData
_ZN20wxGenericPrintDialogC2EP8wxWindowP11wxPrintData
_ZN20wxGenericPrintDialogC2EP8wxWindowP17wxPrintDialogData
_ZN20wxGenericPrintDialogD0Ev
_ZN20wxGenericPrintDialogD1Ev
_ZN20wxGenericPrintDialogD2Ev
_ZN20wxGTKRadioButtonInfoD0Ev
_ZN20wxGTKRadioButtonInfoD1Ev
_ZN20wxHelpControllerBase10InitializeERK8wxString
_ZN20wxHelpControllerBase10InitializeERK8wxStringi
_ZN20wxHelpControllerBase12ms_classInfoE
_ZN20wxHelpControllerBase14DisplaySectionERK8wxString
_ZN20wxHelpControllerBase15SetParentWindowEP8wxWindow
_ZN20wxHelpControllerBase16DisplayTextPopupERK8wxStringRK7wxPoint
_ZN20wxHelpControllerBase18GetFrameParametersEP6wxSizeP7wxPointPb
_ZN20wxHelpControllerBase18SetFrameParametersERK8wxStringRK6wxSizeRK7wxPointb
_ZN20wxHelpControllerBase19DisplayContextPopupEi
_ZN20wxHelpControllerBase6OnQuitEv
_ZN20wxHelpControllerBase9SetViewerERK8wxStringl
_ZN20wxHelpControllerBaseD0Ev
_ZN20wxHelpControllerBaseD1Ev
_ZN20wxHelpProviderModule12ms_classInfoE
_ZN20wxHelpProviderModule14wxCreateObjectEv
_ZN20wxHelpProviderModule6OnExitEv
_ZN20wxHelpProviderModule6OnInitEv
_ZN20wxHelpProviderModuleD0Ev
_ZN20wxHelpProviderModuleD1Ev
_ZN20wxListHeaderDataList10CreateNodeEP10wxNodeBaseS1_PvRK9wxListKey
_ZN20wxListHeaderDataListD0Ev
_ZN20wxListHeaderDataListD1Ev
_ZN20wxNativeEncodingInfo10FromStringERK8wxString
_ZN20wxNativePrintFactory13CreatePrinterEP17wxPrintDialogData
_ZN20wxNativePrintFactory13HasStatusLineEv
_ZN20wxNativePrintFactory14HasPrinterLineEv
_ZN20wxNativePrintFactory15CreatePrinterDCERK11wxPrintData
_ZN20wxNativePrintFactory16CreateStatusLineEv
_ZN20wxNativePrintFactory17CreatePrintDialogEP8wxWindowP11wxPrintData
_ZN20wxNativePrintFactory17CreatePrintDialogEP8wxWindowP17wxPrintDialogData
_ZN20wxNativePrintFactory17CreatePrinterLineEv
_ZN20wxNativePrintFactory17HasOwnPrintToFileEv
_ZN20wxNativePrintFactory18CreatePrintPreviewEP10wxPrintoutS1_P11wxPrintData
_ZN20wxNativePrintFactory18CreatePrintPreviewEP10wxPrintoutS1_P17wxPrintDialogData
_ZN20wxNativePrintFactory19HasPrintSetupDialogEv
_ZN20wxNativePrintFactory21CreatePageSetupDialogEP8wxWindowP21wxPageSetupDialogData
_ZN20wxNativePrintFactory21CreatePrintNativeDataEv
_ZN20wxNativePrintFactory22CreatePrintSetupDialogEP8wxWindowP11wxPrintData
_ZN20wxNativePrintFactoryD0Ev
_ZN20wxNativePrintFactoryD1Ev
_ZN20wxNavigationKeyEvent12ms_classInfoE
_ZN20wxNavigationKeyEvent14wxCreateObjectEv
_ZN20wxNavigationKeyEventD0Ev
_ZN20wxNavigationKeyEventD1Ev
_ZN20wxPopupWindowHandler10OnLeftDownER12wxMouseEvent
_ZN20wxPopupWindowHandler13sm_eventTableE
_ZN20wxPopupWindowHandler17sm_eventHashTableE
_ZN20wxPopupWindowHandler20sm_eventTableEntriesE
_ZN20wxPopupWindowHandlerD0Ev
_ZN20wxPopupWindowHandlerD1Ev
_ZN20wxPrintFactoryModule12ms_classInfoE
_ZN20wxPrintFactoryModule14wxCreateObjectEv
_ZN20wxPrintFactoryModule6OnExitEv
_ZN20wxPrintFactoryModule6OnInitEv
_ZN20wxPrintFactoryModuleD0Ev
_ZN20wxPrintFactoryModuleD1Ev
_ZN20wxPrintPaperDatabase12AddPaperTypeE11wxPaperSizeiRK8wxStringii
_ZN20wxPrintPaperDatabase12AddPaperTypeE11wxPaperSizeRK8wxStringii
_ZN20wxPrintPaperDatabase13ClearDatabaseEv
_ZN20wxPrintPaperDatabase13FindPaperTypeE11wxPaperSize
_ZN20wxPrintPaperDatabase13FindPaperTypeERK6wxSize
_ZN20wxPrintPaperDatabase13FindPaperTypeERK8wxString
_ZN20wxPrintPaperDatabase14CreateDatabaseEv
_ZN20wxPrintPaperDatabase15ConvertIdToNameE11wxPaperSize
_ZN20wxPrintPaperDatabase15ConvertNameToIdERK8wxString
_ZN20wxPrintPaperDatabase25FindPaperTypeByPlatformIdEi
_ZN20wxPrintPaperDatabase7GetSizeE11wxPaperSize
_ZN20wxPrintPaperDatabase7GetSizeERK6wxSize
_ZN20wxPrintPaperDatabaseC1Ev
_ZN20wxPrintPaperDatabaseC2Ev
_ZN20wxPrintPaperDatabaseD1Ev
_ZN20wxPrintPaperDatabaseD2Ev
_ZN20wxPrintPaperTypeList10CreateNodeEP10wxNodeBaseS1_PvRK9wxListKey
_ZN20wxPrintPaperTypeListD0Ev
_ZN20wxPrintPaperTypeListD1Ev
_ZN20wxRendererFromDynLibD0Ev
_ZN20wxRendererFromDynLibD1Ev
_ZN20wxScrollHelperNative13SetScrollbarsEiiiiiib
_ZN20wxScrollHelperNative16AdjustScrollbarsEv
_ZN20wxScrollHelperNative17DoAdjustScrollbarEP9_GtkRangeiiiPiS2_S2_
_ZN20wxScrollHelperNative6ScrollEii
_ZN20wxScrollHelperNative8DoScrollEiiiPi
_ZN20wxScrollHelperNativeD0Ev
_ZN20wxScrollHelperNativeD1Ev
_ZN20wxSimpleHelpProvider10RemoveHelpEP12wxWindowBase
_ZN20wxSimpleHelpProvider7AddHelpEiRK8wxString
_ZN20wxSimpleHelpProvider7AddHelpEP12wxWindowBaseRK8wxString
_ZN20wxSimpleHelpProvider7GetHelpEPK12wxWindowBase
_ZN20wxSimpleHelpProvider8ShowHelpEP12wxWindowBase
_ZN20wxSimpleHelpProviderD0Ev
_ZN20wxSimpleHelpProviderD1Ev
_ZN20wxSingleChoiceDialog12ms_classInfoE
_ZN20wxSingleChoiceDialog12SetSelectionEi
_ZN20wxSingleChoiceDialog13sm_eventTableE
_ZN20wxSingleChoiceDialog14wxCreateObjectEv
_ZN20wxSingleChoiceDialog15OnListBoxDClickER14wxCommandEvent
_ZN20wxSingleChoiceDialog17sm_eventHashTableE
_ZN20wxSingleChoiceDialog20sm_eventTableEntriesE
_ZN20wxSingleChoiceDialog4OnOKER14wxCommandEvent
_ZN20wxSingleChoiceDialog6CreateEP8wxWindowRK8wxStringS4_iPS3_PPclRK7wxPoint
_ZN20wxSingleChoiceDialog6CreateEP8wxWindowRK8wxStringS4_RK13wxArrayStringPPclRK7wxPoint
_ZN20wxSingleChoiceDialog8DoChoiceEv
_ZN20wxSingleChoiceDialogC1EP8wxWindowRK8wxStringS4_iPS3_PPclRK7wxPoint
_ZN20wxSingleChoiceDialogC1EP8wxWindowRK8wxStringS4_RK13wxArrayStringPPclRK7wxPoint
_ZN20wxSingleChoiceDialogC2EP8wxWindowRK8wxStringS4_iPS3_PPclRK7wxPoint
_ZN20wxSingleChoiceDialogC2EP8wxWindowRK8wxStringS4_RK13wxArrayStringPPclRK7wxPoint
_ZN20wxSingleChoiceDialogD0Ev
_ZN20wxSingleChoiceDialogD1Ev
_ZN20wxThreadHelperThread5EntryEv
_ZN20wxThreadHelperThreadD0Ev
_ZN20wxThreadHelperThreadD1Ev
_ZN20wxToggleBitmapButton11OnSetBitmapEv
_ZN20wxToggleBitmapButton12ms_classInfoE
_ZN20wxToggleBitmapButton14wxCreateObjectEv
_ZN20wxToggleBitmapButton18DoApplyWidgetStyleEP11_GtkRcStyle
_ZN20wxToggleBitmapButton25GetClassDefaultAttributesE15wxWindowVariant
_ZN20wxToggleBitmapButton6CreateEP8wxWindowiRK8wxBitmapRK7wxPointRK6wxSizelRK11wxValidatorRK8wxString
_ZN20wxToggleBitmapButton6EnableEb
_ZN20wxToggleBitmapButton8SetLabelERK8wxBitmap
_ZN20wxToggleBitmapButton8SetLabelERK8wxString
_ZN20wxToggleBitmapButton8SetValueEb
_ZN20wxToggleBitmapButtonD0Ev
_ZN20wxToggleBitmapButtonD1Ev
_ZN20wxTopLevelWindowBase10SetMaxSizeERK6wxSize
_ZN20wxTopLevelWindowBase10SetMinSizeERK6wxSize
_ZN20wxTopLevelWindowBase11RemoveChildEP12wxWindowBase
_ZN20wxTopLevelWindowBase13OnCloseWindowER12wxCloseEvent
_ZN20wxTopLevelWindowBase13sm_eventTableE
_ZN20wxTopLevelWindowBase14DoSetSizeHintsEiiiiii
_ZN20wxTopLevelWindowBase14GetDefaultSizeEv
_ZN20wxTopLevelWindowBase16DoUpdateWindowUIER15wxUpdateUIEvent
_ZN20wxTopLevelWindowBase16SendIconizeEventEb
_ZN20wxTopLevelWindowBase17EnableCloseButtonEb
_ZN20wxTopLevelWindowBase17sm_eventHashTableE
_ZN20wxTopLevelWindowBase20RequestUserAttentionEi
_ZN20wxTopLevelWindowBase20sm_eventTableEntriesE
_ZN20wxTopLevelWindowBase26GetRectForTopLevelChildrenEPiS0_S0_S0_
_ZN20wxTopLevelWindowBase6OnSizeER11wxSizeEvent
_ZN20wxTopLevelWindowBase7DestroyEv
_ZN20wxTopLevelWindowBase7SetIconERK6wxIcon
_ZN20wxTopLevelWindowBase8DoCentreEi
_ZN20wxTopLevelWindowBase8DoLayoutEv
_ZN20wxTopLevelWindowBase8IsActiveEv
_ZN20wxTopLevelWindowBase8SetIconsERK12wxIconBundle
_ZN20wxTopLevelWindowBase8SetShapeERK8wxRegion
_ZN20wxTopLevelWindowBaseC1Ev
_ZN20wxTopLevelWindowBaseC2Ev
_ZN20wxTopLevelWindowBaseD0Ev
_ZN20wxTopLevelWindowBaseD1Ev
_ZN20wxTopLevelWindowBaseD2Ev
_ZN20wxWindowDestroyEvent12ms_classInfoE
_ZN20wxWindowDestroyEvent14wxCreateObjectEv
_ZN20wxWindowDestroyEventC1EP8wxWindow
_ZN20wxWindowDestroyEventC2EP8wxWindow
_ZN20wxWindowDestroyEventD0Ev
_ZN20wxWindowDestroyEventD1Ev
_ZN20wxwxMenuItemListNode10DeleteDataEv
_ZN20wxwxMenuItemListNodeD0Ev
_ZN20wxwxMenuItemListNodeD1Ev
_ZN21wxCollapsiblePaneBaseD0Ev
_ZN21wxCollapsiblePaneBaseD1Ev
_ZN21wxConvBrokenFileNamesD0Ev
_ZN21wxConvBrokenFileNamesD1Ev
_ZN21wxDataObjectComposite3AddEP18wxDataObjectSimpleb
_ZN21wxDataObjectComposite7SetDataERK12wxDataFormatjPKv
_ZN21wxDataObjectCompositeC1Ev
_ZN21wxDataObjectCompositeC2Ev
_ZN21wxDataObjectCompositeD0Ev
_ZN21wxDataObjectCompositeD1Ev
_ZN21wxDataObjectCompositeD2Ev
_ZN21wxDisplayChangedEvent12ms_classInfoE
_ZN21wxDisplayChangedEvent14wxCreateObjectEv
_ZN21wxDisplayChangedEventD0Ev
_ZN21wxDisplayChangedEventD1Ev
_ZN21wxGenericColourButton12ms_classInfoE
_ZN21wxGenericColourButton12UpdateColourEv
_ZN21wxGenericColourButton13OnButtonClickER14wxCommandEvent
_ZN21wxGenericColourButton14InitColourDataEv
_ZN21wxGenericColourButton14wxCreateObjectEv
_ZN21wxGenericColourButton6CreateEP8wxWindowiRK8wxColourRK7wxPointRK6wxSizelRK11wxValidatorRK8wxString
_ZN21wxGenericColourButton7ms_dataE
_ZN21wxGenericColourButtonD0Ev
_ZN21wxGenericColourButtonD1Ev
_ZN21wxListTextCtrlWrapper11OnKillFocusER12wxFocusEvent
_ZN21wxListTextCtrlWrapper13AcceptChangesEv
_ZN21wxListTextCtrlWrapper13sm_eventTableE
_ZN21wxListTextCtrlWrapper17sm_eventHashTableE
_ZN21wxListTextCtrlWrapper20sm_eventTableEntriesE
_ZN21wxListTextCtrlWrapper22AcceptChangesAndFinishEv
_ZN21wxListTextCtrlWrapper6FinishEv
_ZN21wxListTextCtrlWrapper6OnCharER10wxKeyEvent
_ZN21wxListTextCtrlWrapper7OnKeyUpER10wxKeyEvent
_ZN21wxListTextCtrlWrapperC1EP16wxListMainWindowP10wxTextCtrlj
_ZN21wxListTextCtrlWrapperC2EP16wxListMainWindowP10wxTextCtrlj
_ZN21wxListTextCtrlWrapperD0Ev
_ZN21wxListTextCtrlWrapperD1Ev
_ZN21wxPageSetupDialogBase12ms_classInfoE
_ZN21wxPageSetupDialogBaseC1EP8wxWindowiRK8wxStringRK7wxPointRK6wxSizel
_ZN21wxPageSetupDialogBaseC2EP8wxWindowiRK8wxStringRK7wxPointRK6wxSizel
_ZN21wxPageSetupDialogBaseD0Ev
_ZN21wxPageSetupDialogBaseD1Ev
_ZN21wxPageSetupDialogData12ms_classInfoE
_ZN21wxPageSetupDialogData12SetPaperSizeE11wxPaperSize
_ZN21wxPageSetupDialogData12SetPaperSizeERK6wxSize
_ZN21wxPageSetupDialogData12SetPrintDataERK11wxPrintData
_ZN21wxPageSetupDialogData14wxCreateObjectEv
_ZN21wxPageSetupDialogData24CalculateIdFromPaperSizeEv
_ZN21wxPageSetupDialogData24CalculatePaperSizeFromIdEv
_ZN21wxPageSetupDialogDataaSERK11wxPrintData
_ZN21wxPageSetupDialogDataaSERKS_
_ZN21wxPageSetupDialogDataC1ERK11wxPrintData
_ZN21wxPageSetupDialogDataC1ERKS_
_ZN21wxPageSetupDialogDataC1Ev
_ZN21wxPageSetupDialogDataC2ERK11wxPrintData
_ZN21wxPageSetupDialogDataC2ERKS_
_ZN21wxPageSetupDialogDataC2Ev
_ZN21wxPageSetupDialogDataD0Ev
_ZN21wxPageSetupDialogDataD1Ev
_ZN21wxPageSetupDialogDataD2Ev
_ZN21wxPaletteChangedEvent12ms_classInfoE
_ZN21wxPaletteChangedEvent14wxCreateObjectEv
_ZN21wxPaletteChangedEventD0Ev
_ZN21wxPaletteChangedEventD1Ev
_ZN21wxPasswordEntryDialog12ms_classInfoE
_ZN21wxPasswordEntryDialogC1EP8wxWindowRK8wxStringS4_S4_lRK7wxPoint
_ZN21wxPasswordEntryDialogC2EP8wxWindowRK8wxStringS4_S4_lRK7wxPoint
_ZN21wxPasswordEntryDialogD0Ev
_ZN21wxPasswordEntryDialogD1Ev
_ZN21wxPrintNativeDataBase12ms_classInfoE
_ZN21wxPrintNativeDataBaseC1Ev
_ZN21wxPrintNativeDataBaseC2Ev
_ZN21wxPrintNativeDataBaseD0Ev
_ZN21wxPrintNativeDataBaseD1Ev
_ZN21wxwxSizerItemListNode10DeleteDataEv
_ZN21wxwxSizerItemListNodeD0Ev
_ZN21wxwxSizerItemListNodeD1Ev
_ZN22wxBitmapDataObjectBase9SetBitmapERK8wxBitmap
_ZN22wxBitmapDataObjectBaseD0Ev
_ZN22wxBitmapDataObjectBaseD1Ev
_ZN22wxCollapsiblePaneEvent12ms_classInfoE
_ZN22wxCollapsiblePaneEvent14wxCreateObjectEv
_ZN22wxCollapsiblePaneEventD0Ev
_ZN22wxCollapsiblePaneEventD1Ev
_ZN22wxDisplayFactorySingle12GetFromPointERK7wxPoint
_ZN22wxDisplayFactorySingle13CreateDisplayEj
_ZN22wxDisplayFactorySingle8GetCountEv
_ZN22wxDisplayFactorySingleD0Ev
_ZN22wxDisplayFactorySingleD1Ev
_ZN22wxFileIconsTableModule12ms_classInfoE
_ZN22wxFileIconsTableModule14wxCreateObjectEv
_ZN22wxFileIconsTableModule6OnExitEv
_ZN22wxFileIconsTableModule6OnInitEv
_ZN22wxFileIconsTableModuleD0Ev
_ZN22wxFileIconsTableModuleD1Ev
_ZN22wxFontPickerWidgetBase15SetSelectedFontERK6wxFont
_ZN22wxFontPickerWidgetBaseD0Ev
_ZN22wxFontPickerWidgetBaseD1Ev
_ZN22wxGenericFileDirButton13OnButtonClickER14wxCommandEvent
_ZN22wxGenericFileDirButton15GetDialogParentEv
_ZN22wxGenericFileDirButton6CreateEP8wxWindowiRK8wxStringS4_S4_S4_RK7wxPointRK6wxSizelRK11wxValidatorS4_
_ZN22wxGenericFileDirButton9AsControlEv
_ZN22wxGenericFileDirButtonD0Ev
_ZN22wxGenericFileDirButtonD1Ev
_ZN22wxGtkNotebookPagesList10CreateNodeEP10wxNodeBaseS1_PvRK9wxListKey
_ZN22wxGtkNotebookPagesListD0Ev
_ZN22wxGtkNotebookPagesListD1Ev
_ZN22wxPopupTransientWindow10CanDismissEv
_ZN22wxPopupTransientWindow11PopHandlersEv
_ZN22wxPopupTransientWindow12ms_classInfoE
_ZN22wxPopupTransientWindow13sm_eventTableE
_ZN22wxPopupTransientWindow14wxCreateObjectEv
_ZN22wxPopupTransientWindow15ProcessLeftDownER12wxMouseEvent
_ZN22wxPopupTransientWindow16DismissAndNotifyEv
_ZN22wxPopupTransientWindow17sm_eventHashTableE
_ZN22wxPopupTransientWindow20sm_eventTableEntriesE
_ZN22wxPopupTransientWindow4InitEv
_ZN22wxPopupTransientWindow4ShowEb
_ZN22wxPopupTransientWindow5PopupEP8wxWindow
_ZN22wxPopupTransientWindow7DismissEv
_ZN22wxPopupTransientWindow9OnDismissEv
_ZN22wxPopupTransientWindowC1EP8wxWindowi
_ZN22wxPopupTransientWindowC2EP8wxWindowi
_ZN22wxPopupTransientWindowD0Ev
_ZN22wxPopupTransientWindowD1Ev
_ZN22wxPopupTransientWindowD2Ev
_ZN22wxQueryNewPaletteEvent12ms_classInfoE
_ZN22wxQueryNewPaletteEvent14wxCreateObjectEv
_ZN22wxQueryNewPaletteEventD0Ev
_ZN22wxQueryNewPaletteEventD1Ev
_ZN22wxSimpleDataObjectList10CreateNodeEP10wxNodeBaseS1_PvRK9wxListKey
_ZN22wxSimpleDataObjectListD0Ev
_ZN22wxSimpleDataObjectListD1Ev
_ZN22wxSimpleFontEnumerator10OnFacenameERK8wxString
_ZN22wxSimpleFontEnumerator14OnFontEncodingERK8wxStringS2_
_ZN22wxSimpleFontEnumeratorD0Ev
_ZN22wxSimpleFontEnumeratorD1Ev
_ZN22wxStdDialogButtonSizer12ms_classInfoE
_ZN22wxStdDialogButtonSizer15SetCancelButtonEP8wxButton
_ZN22wxStdDialogButtonSizer17SetNegativeButtonEP8wxButton
_ZN22wxStdDialogButtonSizer20SetAffirmativeButtonEP8wxButton
_ZN22wxStdDialogButtonSizer7RealizeEv
_ZN22wxStdDialogButtonSizer9AddButtonEP8wxButton
_ZN22wxStdDialogButtonSizerC1Ev
_ZN22wxStdDialogButtonSizerC2Ev
_ZN22wxStdDialogButtonSizerD0Ev
_ZN22wxStdDialogButtonSizerD1Ev
_ZN22wxSystemSettingsNative10HasFeatureE15wxSystemFeature
_ZN22wxSystemSettingsNative7GetFontE12wxSystemFont
_ZN22wxSystemSettingsNative9GetColourE14wxSystemColour
_ZN22wxSystemSettingsNative9GetMetricE14wxSystemMetricP8wxWindow
_ZN23wxContextHelpEvtHandler12ProcessEventER7wxEvent
_ZN23wxContextHelpEvtHandlerD0Ev
_ZN23wxContextHelpEvtHandlerD1Ev
_ZN23wxFileDirPickerCtrlBase10CreateBaseEP8wxWindowiRK8wxStringS4_S4_RK7wxPointRK6wxSizelRK11wxValidatorS4_
_ZN23wxFileDirPickerCtrlBase15OnFileDirChangeER20wxFileDirPickerEvent
_ZN23wxFileDirPickerCtrlBase24UpdatePickerFromTextCtrlEv
_ZN23wxFileDirPickerCtrlBase24UpdateTextCtrlFromPickerEv
_ZN23wxFileDirPickerCtrlBase7SetPathERK8wxString
_ZN23wxFileDirPickerCtrlBaseD0Ev
_ZN23wxFileDirPickerCtrlBaseD1Ev
_ZN23wxFindReplaceDialogBase4SendER17wxFindDialogEvent
_ZN23wxFindReplaceDialogBaseD0Ev
_ZN23wxFindReplaceDialogBaseD1Ev
_ZN23wxFindReplaceDialogBaseD2Ev
_ZN23wxGenericRendererModule12ms_classInfoE
_ZN23wxGenericRendererModule14wxCreateObjectEv
_ZN23wxGenericRendererModule6OnExitEv
_ZN23wxGenericRendererModule6OnInitEv
_ZN23wxGenericRendererModuleD0Ev
_ZN23wxGenericRendererModuleD1Ev
_ZN23wxMouseCaptureLostEvent12ms_classInfoE
_ZN23wxMouseCaptureLostEvent14wxCreateObjectEv
_ZN23wxMouseCaptureLostEventD0Ev
_ZN23wxMouseCaptureLostEventD1Ev
_ZN23wxSharedDCBufferManager12ms_classInfoE
_ZN23wxSharedDCBufferManager14wxCreateObjectEv
_ZN23wxSharedDCBufferManager6OnExitEv
_ZN23wxSharedDCBufferManager6OnInitEv
_ZN23wxSharedDCBufferManager9ms_bufferE
_ZN23wxSharedDCBufferManagerD0Ev
_ZN23wxSharedDCBufferManagerD1Ev
_ZN23wxSysColourChangedEvent12ms_classInfoE
_ZN23wxSysColourChangedEvent14wxCreateObjectEv
_ZN23wxSysColourChangedEventD0Ev
_ZN23wxSysColourChangedEventD1Ev
_ZN24GSocketGUIFunctionsTableD0Ev
_ZN24GSocketGUIFunctionsTableD1Ev
_ZN24wxColourPickerWidgetBase9SetColourERK8wxColour
_ZN24wxColourPickerWidgetBase9SetColourERK8wxString
_ZN24wxColourPickerWidgetBaseD0Ev
_ZN24wxColourPickerWidgetBaseD1Ev
_ZN24wxComboFrameEventHandler10OnActivateER15wxActivateEvent
_ZN24wxComboFrameEventHandler11OnMenuEventER11wxMenuEvent
_ZN24wxComboFrameEventHandler12OnMouseEventER12wxMouseEvent
_ZN24wxComboFrameEventHandler13sm_eventTableE
_ZN24wxComboFrameEventHandler17sm_eventHashTableE
_ZN24wxComboFrameEventHandler20sm_eventTableEntriesE
_ZN24wxComboFrameEventHandler6OnIdleER11wxIdleEvent
_ZN24wxComboFrameEventHandler6OnMoveER11wxMoveEvent
_ZN24wxComboFrameEventHandler7OnCloseER12wxCloseEvent
_ZN24wxComboFrameEventHandler7OnPopupEv
_ZN24wxComboFrameEventHandler8OnResizeER11wxSizeEvent
_ZN24wxComboFrameEventHandlerC1EP15wxComboCtrlBase
_ZN24wxComboFrameEventHandlerC2EP15wxComboCtrlBase
_ZN24wxComboFrameEventHandlerD0Ev
_ZN24wxComboFrameEventHandlerD1Ev
_ZN24wxComboFrameEventHandlerD2Ev
_ZN24wxDelegateRendererNative12DrawCheckBoxEP8wxWindowR4wxDCRK6wxRecti
_ZN24wxDelegateRendererNative13DrawDropArrowEP8wxWindowR4wxDCRK6wxRecti
_ZN24wxDelegateRendererNative14DrawPushButtonEP8wxWindowR4wxDCRK6wxRecti
_ZN24wxDelegateRendererNative16DrawHeaderButtonEP8wxWindowR4wxDCRK6wxRecti20wxHeaderSortIconTypeP20wxHeaderButtonParams
_ZN24wxDelegateRendererNative16DrawSplitterSashEP8wxWindowR4wxDCRK6wxSizei13wxOrientationi
_ZN24wxDelegateRendererNative17GetSplitterParamsEPK8wxWindow
_ZN24wxDelegateRendererNative18DrawSplitterBorderEP8wxWindowR4wxDCRK6wxRecti
_ZN24wxDelegateRendererNative18DrawTreeItemButtonEP8wxWindowR4wxDCRK6wxRecti
_ZN24wxDelegateRendererNative21DrawItemSelectionRectEP8wxWindowR4wxDCRK6wxRecti
_ZN24wxDelegateRendererNative21GetHeaderButtonHeightEP8wxWindow
_ZN24wxDelegateRendererNative22DrawComboBoxDropButtonEP8wxWindowR4wxDCRK6wxRecti
_ZN24wxDelegateRendererNative24DrawHeaderButtonContentsEP8wxWindowR4wxDCRK6wxRecti20wxHeaderSortIconTypeP20wxHeaderButtonParams
_ZN24wxDelegateRendererNativeD0Ev
_ZN24wxDelegateRendererNativeD1Ev
_ZN24wxGenericCollapsiblePane12ms_classInfoE
_ZN24wxGenericCollapsiblePane13OnStateChangeERK6wxSize
_ZN24wxGenericCollapsiblePane13sm_eventTableE
_ZN24wxGenericCollapsiblePane14wxCreateObjectEv
_ZN24wxGenericCollapsiblePane17sm_eventHashTableE
_ZN24wxGenericCollapsiblePane20sm_eventTableEntriesE
_ZN24wxGenericCollapsiblePane6CreateEP8wxWindowiRK8wxStringRK7wxPointRK6wxSizelRK11wxValidatorS4_
_ZN24wxGenericCollapsiblePane6LayoutEv
_ZN24wxGenericCollapsiblePane6OnSizeER11wxSizeEvent
_ZN24wxGenericCollapsiblePane8CollapseEb
_ZN24wxGenericCollapsiblePane8OnButtonER14wxCommandEvent
_ZN24wxGenericCollapsiblePane8SetLabelERK8wxString
_ZN24wxGenericCollapsiblePaneD0Ev
_ZN24wxGenericCollapsiblePaneD1Ev
_ZN24wxGenericCollapsiblePaneD2Ev
_ZN24wxGenericPageSetupDialog12ms_classInfoE
_ZN24wxGenericPageSetupDialog13sm_eventTableE
_ZN24wxGenericPageSetupDialog17sm_eventHashTableE
_ZN24wxGenericPageSetupDialog20sm_eventTableEntriesE
_ZN24wxGenericPageSetupDialog20TransferDataToWindowEv
_ZN24wxGenericPageSetupDialog21CreatePaperTypeChoiceEPiS0_
_ZN24wxGenericPageSetupDialog22GetPageSetupDialogDataEv
_ZN24wxGenericPageSetupDialog22TransferDataFromWindowEv
_ZN24wxGenericPageSetupDialog9OnPrinterER14wxCommandEvent
_ZN24wxGenericPageSetupDialogC1EP8wxWindowP21wxPageSetupDialogData
_ZN24wxGenericPageSetupDialogC2EP8wxWindowP21wxPageSetupDialogData
_ZN24wxGenericPageSetupDialogD0Ev
_ZN24wxGenericPageSetupDialogD1Ev
_ZN24wxGenericPageSetupDialogD2Ev
_ZN24wxItemContainerImmutable18SetStringSelectionERK8wxString
_ZN24wxItemContainerImmutableD0Ev
_ZN24wxItemContainerImmutableD1Ev
_ZN24wxItemContainerImmutableD2Ev
_ZN24wxPostScriptPrintPreview12ms_classInfoE
_ZN24wxPostScriptPrintPreview16DetermineScalingEv
_ZN24wxPostScriptPrintPreview4InitEP10wxPrintoutS1_
_ZN24wxPostScriptPrintPreview5PrintEb
_ZN24wxPostScriptPrintPreviewC1EP10wxPrintoutS1_P11wxPrintData
_ZN24wxPostScriptPrintPreviewC1EP10wxPrintoutS1_P17wxPrintDialogData
_ZN24wxPostScriptPrintPreviewC2EP10wxPrintoutS1_P11wxPrintData
_ZN24wxPostScriptPrintPreviewC2EP10wxPrintoutS1_P17wxPrintDialogData
_ZN24wxPostScriptPrintPreviewD0Ev
_ZN24wxPostScriptPrintPreviewD1Ev
_ZN24wxPostScriptPrintPreviewD2Ev
_ZN24wxScrollHelperEvtHandler12ProcessEventER7wxEvent
_ZN24wxScrollHelperEvtHandlerD0Ev
_ZN24wxScrollHelperEvtHandlerD1Ev
_ZN24wxwxArtProvidersListNode10DeleteDataEv
_ZN24wxwxArtProvidersListNodeD0Ev
_ZN24wxwxArtProvidersListNodeD1Ev
_ZN24wxwxListItemDataListNode10DeleteDataEv
_ZN24wxwxListItemDataListNodeD0Ev
_ZN24wxwxListItemDataListNodeD1Ev
_ZN24wxwxToolBarToolsListNode10DeleteDataEv
_ZN24wxwxToolBarToolsListNodeD0Ev
_ZN24wxwxToolBarToolsListNodeD1Ev
_ZN25wxFileDirPickerWidgetBase7SetPathERK8wxString
_ZN25wxFileDirPickerWidgetBaseD0Ev
_ZN25wxFileDirPickerWidgetBaseD1Ev
_ZN25wxGenericPrintSetupDialog12ms_classInfoE
_ZN25wxGenericPrintSetupDialog13sm_eventTableE
_ZN25wxGenericPrintSetupDialog17sm_eventHashTableE
_ZN25wxGenericPrintSetupDialog20sm_eventTableEntriesE
_ZN25wxGenericPrintSetupDialog20TransferDataToWindowEv
_ZN25wxGenericPrintSetupDialog21CreatePaperTypeChoiceEv
_ZN25wxGenericPrintSetupDialog22TransferDataFromWindowEv
_ZN25wxGenericPrintSetupDialog4InitEP11wxPrintData
_ZN25wxGenericPrintSetupDialog9OnPrinterER11wxListEvent
_ZN25wxGenericPrintSetupDialogC1EP8wxWindowP11wxPrintData
_ZN25wxGenericPrintSetupDialogC2EP8wxWindowP11wxPrintData
_ZN25wxGenericPrintSetupDialogD0Ev
_ZN25wxGenericPrintSetupDialogD1Ev
_ZN25wxGenericPrintSetupDialogD2Ev
_ZN25wxMessageOutputMessageBox6PrintfEPKcz
_ZN25wxMessageOutputMessageBoxD0Ev
_ZN25wxMessageOutputMessageBoxD1Ev
_ZN25wxRadioBoxButtonsInfoList10CreateNodeEP10wxNodeBaseS1_PvRK9wxListKey
_ZN25wxRadioBoxButtonsInfoListD0Ev
_ZN25wxRadioBoxButtonsInfoListD1Ev
_ZN26wxMouseCaptureChangedEvent12ms_classInfoE
_ZN26wxMouseCaptureChangedEvent14wxCreateObjectEv
_ZN26wxMouseCaptureChangedEventD0Ev
_ZN26wxMouseCaptureChangedEventD1Ev
_ZN26wxwxListHeaderDataListNode10DeleteDataEv
_ZN26wxwxListHeaderDataListNodeD0Ev
_ZN26wxwxListHeaderDataListNodeD1Ev
_ZN26wxwxPrintPaperTypeListNode10DeleteDataEv
_ZN26wxwxPrintPaperTypeListNodeD0Ev
_ZN26wxwxPrintPaperTypeListNodeD1Ev
_ZN27wxComboBoxExtraInputHandler13sm_eventTableE
_ZN27wxComboBoxExtraInputHandler17sm_eventHashTableE
_ZN27wxComboBoxExtraInputHandler20sm_eventTableEntriesE
_ZN27wxComboBoxExtraInputHandler5OnKeyER10wxKeyEvent
_ZN27wxComboBoxExtraInputHandler7OnFocusER12wxFocusEvent
_ZN27wxComboBoxExtraInputHandlerD0Ev
_ZN27wxComboBoxExtraInputHandlerD1Ev
_ZN27wxDragAcceptFilesImplTarget11OnDropFilesEiiRK13wxArrayString
_ZN27wxDragAcceptFilesImplTargetD0Ev
_ZN27wxDragAcceptFilesImplTargetD1Ev
_ZN27wxPostScriptPrintNativeData10TransferToER11wxPrintData
_ZN27wxPostScriptPrintNativeData12ms_classInfoE
_ZN27wxPostScriptPrintNativeData12TransferFromERK11wxPrintData
_ZN27wxPostScriptPrintNativeDataC1Ev
_ZN27wxPostScriptPrintNativeDataC2Ev
_ZN27wxPostScriptPrintNativeDataD0Ev
_ZN27wxPostScriptPrintNativeDataD1Ev
_ZN27wxPostScriptPrintNativeDataD2Ev
_ZN28wxComboPopupWindowEvtHandler10OnKeyEventER10wxKeyEvent
_ZN28wxComboPopupWindowEvtHandler11OnSizeEventER11wxSizeEvent
_ZN28wxComboPopupWindowEvtHandler13sm_eventTableE
_ZN28wxComboPopupWindowEvtHandler17sm_eventHashTableE
_ZN28wxComboPopupWindowEvtHandler20sm_eventTableEntriesE
_ZN28wxComboPopupWindowEvtHandlerD0Ev
_ZN28wxComboPopupWindowEvtHandlerD1Ev
_ZN28wxHelpControllerHelpProvider8ShowHelpEP12wxWindowBase
_ZN28wxHelpControllerHelpProviderC1EP20wxHelpControllerBase
_ZN28wxHelpControllerHelpProviderC2EP20wxHelpControllerBase
_ZN28wxHelpControllerHelpProviderD0Ev
_ZN28wxHelpControllerHelpProviderD1Ev
_ZN28wxIndividualLayoutConstraint10ResetIfWinEP12wxWindowBase
_ZN28wxIndividualLayoutConstraint12ms_classInfoE
_ZN28wxIndividualLayoutConstraint14wxCreateObjectEv
_ZN28wxIndividualLayoutConstraint17SatisfyConstraintEP19wxLayoutConstraintsP12wxWindowBase
_ZN28wxIndividualLayoutConstraint3SetE14wxRelationshipP12wxWindowBase6wxEdgeii
_ZN28wxIndividualLayoutConstraint5AboveEP12wxWindowBasei
_ZN28wxIndividualLayoutConstraint5BelowEP12wxWindowBasei
_ZN28wxIndividualLayoutConstraint6LeftOfEP12wxWindowBasei
_ZN28wxIndividualLayoutConstraint6SameAsEP12wxWindowBase6wxEdgei
_ZN28wxIndividualLayoutConstraint7RightOfEP12wxWindowBasei
_ZN28wxIndividualLayoutConstraint8AbsoluteEi
_ZN28wxIndividualLayoutConstraint9PercentOfEP12wxWindowBase6wxEdgei
_ZN28wxIndividualLayoutConstraintC1Ev
_ZN28wxIndividualLayoutConstraintC2Ev
_ZN28wxIndividualLayoutConstraintD0Ev
_ZN28wxIndividualLayoutConstraintD1Ev
_ZN28wxwxGtkNotebookPagesListNode10DeleteDataEv
_ZN28wxwxGtkNotebookPagesListNodeD0Ev
_ZN28wxwxGtkNotebookPagesListNodeD1Ev
_ZN28wxwxSimpleDataObjectListNode10DeleteDataEv
_ZN28wxwxSimpleDataObjectListNodeD0Ev
_ZN28wxwxSimpleDataObjectListNodeD1Ev
_ZN29wxComboPopupExtraEventHandler12OnMouseEventER12wxMouseEvent
_ZN29wxComboPopupExtraEventHandler13sm_eventTableE
_ZN29wxComboPopupExtraEventHandler17sm_eventHashTableE
_ZN29wxComboPopupExtraEventHandler20sm_eventTableEntriesE
_ZN29wxComboPopupExtraEventHandlerD0Ev
_ZN29wxComboPopupExtraEventHandlerD1Ev
_ZN31wxwxRadioBoxButtonsInfoListNode10DeleteDataEv
_ZN31wxwxRadioBoxButtonsInfoListNodeD0Ev
_ZN31wxwxRadioBoxButtonsInfoListNodeD1Ev
_ZN32GSocketGUIFunctionsTableConcrete11Init_SocketEP7GSocket
_ZN32GSocketGUIFunctionsTableConcrete13Enable_EventsEP7GSocket
_ZN32GSocketGUIFunctionsTableConcrete14Destroy_SocketEP7GSocket
_ZN32GSocketGUIFunctionsTableConcrete14Disable_EventsEP7GSocket
_ZN32GSocketGUIFunctionsTableConcrete15CanUseEventLoopEv
_ZN32GSocketGUIFunctionsTableConcrete16Install_CallbackEP7GSocket12GSocketEvent
_ZN32GSocketGUIFunctionsTableConcrete18Uninstall_CallbackEP7GSocket12GSocketEvent
_ZN32GSocketGUIFunctionsTableConcrete6OnExitEv
_ZN32GSocketGUIFunctionsTableConcrete6OnInitEv
_ZN32GSocketGUIFunctionsTableConcreteD0Ev
_ZN32GSocketGUIFunctionsTableConcreteD1Ev
_ZN41wxXPMColourMap_wxImplementation_HashTable10DeleteNodeEP21_wxHashTable_NodeBase
_ZN41wxXPMColourMap_wxImplementation_HashTable16GetBucketForNodeEPS_PNS_4NodeE
_ZN47wxImageHistogramBase_wxImplementation_HashTable10DeleteNodeEP21_wxHashTable_NodeBase
_ZN47wxImageHistogramBase_wxImplementation_HashTable16GetBucketForNodeEPS_PNS_4NodeE
_ZN4wxDC10SetMapModeEi
_ZN4wxDC12ms_classInfoE
_ZN4wxDC12SetUserScaleEdd
_ZN4wxDC15SetDeviceOriginEii
_ZN4wxDC15SetLogicalScaleEdd
_ZN4wxDC16SetLogicalOriginEii
_ZN4wxDC18SetAxisOrientationEbb
_ZN4wxDC19DoSetClippingRegionEiiii
_ZN4wxDC21ComputeScaleAndOriginEv
_ZN4wxDC6EndDocEv
_ZN4wxDC7EndPageEv
_ZN4wxDC8StartDocERK8wxString
_ZN4wxDC9StartPageEv
_ZN4wxDCC1Ev
_ZN4wxDCC2Ev
_ZN4wxDCD0Ev
_ZN4wxDCD1Ev
_ZN4wxDCD2Ev
_ZN50wxStringToColourHashMap_wxImplementation_HashTable10DeleteNodeEP21_wxHashTable_NodeBase
_ZN50wxStringToColourHashMap_wxImplementation_HashTable16GetBucketForNodeEPS_PNS_4NodeE
_ZN51wxArtProviderBitmapsHash_wxImplementation_HashTable10DeleteNodeEP21_wxHashTable_NodeBase
_ZN51wxArtProviderBitmapsHash_wxImplementation_HashTable16GetBucketForNodeEPS_PNS_4NodeE
_ZN54wxSimpleHelpProviderHashMap_wxImplementation_HashTable10DeleteNodeEP21_wxHashTable_NodeBase
_ZN54wxSimpleHelpProviderHashMap_wxImplementation_HashTable16GetBucketForNodeEPS_PNS_4NodeE
_ZN58wxStringToPrintPaperTypeHashMap_wxImplementation_HashTable10DeleteNodeEP21_wxHashTable_NodeBase
_ZN58wxStringToPrintPaperTypeHashMap_wxImplementation_HashTable16GetBucketForNodeEPS_PNS_4NodeE
_ZN5wxApp10InitializeERiPPc
_ZN5wxApp10WakeUpIdleEv
_ZN5wxApp12GetGdkVisualEv
_ZN5wxApp12ms_classInfoE
_ZN5wxApp13sm_eventTableE
_ZN5wxApp14wxCreateObjectEv
_ZN5wxApp17sm_eventHashTableE
_ZN5wxApp19SuspendIdleCallbackEv
_ZN5wxApp20sm_eventTableEntriesE
_ZN5wxApp5YieldEb
_ZN5wxApp7CleanUpEv
_ZN5wxApp9OnInitGuiEv
_ZN5wxAppC1Ev
_ZN5wxAppC2Ev
_ZN5wxAppD0Ev
_ZN5wxAppD1Ev
_ZN5wxAppD2Ev
_ZN5wxPen12ms_classInfoE
_ZN5wxPen14wxCreateObjectEv
_ZN5wxPen6SetCapEi
_ZN5wxPen7SetJoinEi
_ZN5wxPen8SetStyleEi
_ZN5wxPen8SetWidthEi
_ZN5wxPen9SetColourEhhh
_ZN5wxPen9SetColourERK8wxColour
_ZN5wxPen9SetDashesEiPKa
_ZN5wxPenC1ERK8wxColourii
_ZN5wxPenC2ERK8wxColourii
_ZN5wxPenD0Ev
_ZN5wxPenD1Ev
_ZN5wxPenD2Ev
_ZN6wxFont11SetEncodingE14wxFontEncoding
_ZN6wxFont11SetFaceNameERK8wxString
_ZN6wxFont12ms_classInfoE
_ZN6wxFont12SetPointSizeEi
_ZN6wxFont13SetUnderlinedEb
_ZN6wxFont14wxCreateObjectEv
_ZN6wxFont17SetNoAntiAliasingEb
_ZN6wxFont19DoSetNativeFontInfoERK16wxNativeFontInfo
_ZN6wxFont6CreateEiiiibRK8wxString14wxFontEncoding
_ZN6wxFont6CreateERK8wxString
_ZN6wxFont8SetStyleEi
_ZN6wxFont9SetFamilyEi
_ZN6wxFont9SetWeightEi
_ZN6wxFontC1ERK16wxNativeFontInfo
_ZN6wxFontC2ERK16wxNativeFontInfo
_ZN6wxFontD0Ev
_ZN6wxFontD1Ev
_ZN6wxFontD2Ev
_ZN6wxIcon12ms_classInfoE
_ZN6wxIcon14CopyFromBitmapERK8wxBitmap
_ZN6wxIcon14wxCreateObjectEv
_ZN6wxIconC1EPPcii
_ZN6wxIconC1EPPKcii
_ZN6wxIconC1Ev
_ZN6wxIconC2EPPcii
_ZN6wxIconC2EPPKcii
_ZN6wxIconC2Ev
_ZN6wxIconD0Ev
_ZN6wxIconD1Ev
_ZN6wxMask12ms_classInfoE
_ZN6wxMask14wxCreateObjectEv
_ZN6wxMask6CreateERK8wxBitmap
_ZN6wxMask6CreateERK8wxBitmapi
_ZN6wxMask6CreateERK8wxBitmapRK8wxColour
_ZN6wxMaskC1ERK8wxBitmap
_ZN6wxMaskC1ERK8wxBitmapi
_ZN6wxMaskC1ERK8wxBitmapRK8wxColour
_ZN6wxMaskC1Ev
_ZN6wxMaskC2ERK8wxBitmap
_ZN6wxMaskC2ERK8wxBitmapi
_ZN6wxMaskC2ERK8wxBitmapRK8wxColour
_ZN6wxMaskC2Ev
_ZN6wxMaskD0Ev
_ZN6wxMaskD1Ev
_ZN6wxMaskD2Ev
_ZN6wxMenu12ms_classInfoE
_ZN6wxMenu14wxCreateObjectEv
_ZN6wxMenu18SetLayoutDirectionE17wxLayoutDirection
_ZN6wxMenu4InitEv
_ZN6wxMenu6AttachEP13wxMenuBarBase
_ZN6wxMenu8DoAppendEP10wxMenuItem
_ZN6wxMenu8DoInsertEjP10wxMenuItem
_ZN6wxMenu8DoRemoveEP10wxMenuItem
_ZN6wxMenu9GtkAppendEP10wxMenuItemi
_ZN6wxMenuD0Ev
_ZN6wxMenuD1Ev
_ZN6wxMenuD2Ev
_ZN6wxRect5UnionERKS_
_ZN6wxRect7InflateEii
_ZN6wxRect9IntersectERKS_
_ZN6wxRectC1ERK7wxPointS2_
_ZN6wxRectC2ERK7wxPointS2_
_ZN6wxView11SetDocumentEP10wxDocument
_ZN6wxView12ms_classInfoE
_ZN6wxView12ProcessEventER7wxEvent
_ZN6wxView14OnActivateViewEbPS_S0_
_ZN6wxView16OnChangeFilenameEv
_ZN6wxView16OnCreatePrintoutEv
_ZN6wxView17OnClosingDocumentEv
_ZN6wxView5CloseEb
_ZN6wxView7OnCloseEb
_ZN6wxView7OnPrintEP4wxDCP8wxObject
_ZN6wxView8ActivateEb
_ZN6wxView8OnCreateEP10wxDocumentl
_ZN6wxView8OnUpdateEPS_P8wxObject
_ZN6wxViewC1Ev
_ZN6wxViewC2Ev
_ZN6wxViewD0Ev
_ZN6wxViewD1Ev
_ZN6wxViewD2Ev
_ZN7wxBrush10SetStippleERK8wxBitmap
_ZN7wxBrush12ms_classInfoE
_ZN7wxBrush14wxCreateObjectEv
_ZN7wxBrush8SetStyleEi
_ZN7wxBrush9SetColourEhhh
_ZN7wxBrush9SetColourERK8wxColour
_ZN7wxBrushC1ERK8wxBitmap
_ZN7wxBrushC1ERK8wxColouri
_ZN7wxBrushC2ERK8wxBitmap
_ZN7wxBrushC2ERK8wxColouri
_ZN7wxBrushD0Ev
_ZN7wxBrushD1Ev
_ZN7wxBrushD2Ev
_ZN7wxCaret10OnSetFocusEv
_ZN7wxCaret11InitGenericEv
_ZN7wxCaret11OnKillFocusEv
_ZN7wxCaret5BlinkEv
_ZN7wxCaret6DoDrawEP4wxDC
_ZN7wxCaret6DoHideEv
_ZN7wxCaret6DoMoveEv
_ZN7wxCaret6DoShowEv
_ZN7wxCaret6DoSizeEv
_ZN7wxCaret7OnTimerEv
_ZN7wxCaret7RefreshEv
_ZN7wxCaretD0Ev
_ZN7wxCaretD1Ev
_ZN7wxCaretD2Ev
_ZN7wxFrame10SetToolBarEP9wxToolBar
_ZN7wxFrame12ms_classInfoE
_ZN7wxFrame12SetStatusBarEP11wxStatusBar
_ZN7wxFrame13AttachMenuBarEP9wxMenuBar
_ZN7wxFrame13CreateToolBarEliRK8wxString
_ZN7wxFrame13DetachMenuBarEv
_ZN7wxFrame14OnInternalIdleEv
_ZN7wxFrame14wxCreateObjectEv
_ZN7wxFrame15CreateStatusBarEiliRK8wxString
_ZN7wxFrame15DoSetClientSizeEii
_ZN7wxFrame17PositionStatusBarEv
_ZN7wxFrame17UpdateMenuBarSizeEv
_ZN7wxFrame4InitEv
_ZN7wxFrame6CreateEP8wxWindowiRK8wxStringRK7wxPointRK6wxSizelS4_
_ZN7wxFrame9GtkOnSizeEv
_ZN7wxFrameD0Ev
_ZN7wxFrameD1Ev
_ZN7wxFrameD2Ev
_ZN7wxGauge10DoSetGaugeEv
_ZN7wxGauge12ms_classInfoE
_ZN7wxGauge14wxCreateObjectEv
_ZN7wxGauge25GetClassDefaultAttributesE15wxWindowVariant
_ZN7wxGauge5PulseEv
_ZN7wxGauge6CreateEP8wxWindowiiRK7wxPointRK6wxSizelRK11wxValidatorRK8wxString
_ZN7wxGauge8SetRangeEi
_ZN7wxGauge8SetValueEi
_ZN7wxGaugeD0Ev
_ZN7wxGaugeD1Ev
_ZN7wxImage10AddHandlerEP14wxImageHandler
_ZN7wxImage10SetPaletteERK9wxPalette
_ZN7wxImage11FindHandlerEl
_ZN7wxImage11FindHandlerERK8wxString
_ZN7wxImage11FindHandlerERK8wxStringl
_ZN7wxImage11sm_handlersE
_ZN7wxImage12BlurVerticalEi
_ZN7wxImage12ms_classInfoE
_ZN7wxImage13GetImageCountER13wxInputStreaml
_ZN7wxImage13GetImageCountERK8wxStringl
_ZN7wxImage13InsertHandlerEP14wxImageHandler
_ZN7wxImage13RemoveHandlerERK8wxString
_ZN7wxImage13SetMaskColourEhhh
_ZN7wxImage14BlurHorizontalEi
_ZN7wxImage14wxCreateObjectEv
_ZN7wxImage15CleanUpHandlersEv
_ZN7wxImage15FindHandlerMimeERK8wxString
_ZN7wxImage16SetMaskFromImageERKS_hhh
_ZN7wxImage18ConvertAlphaToMaskEh
_ZN7wxImage19GetImageExtWildcardEv
_ZN7wxImage20ConvertColourToAlphaEhhh
_ZN7wxImage20InitStandardHandlersEv
_ZN7wxImage4BlurEi
_ZN7wxImage5PasteERKS_ii
_ZN7wxImage6CreateEiib
_ZN7wxImage6CreateEiiPhb
_ZN7wxImage6CreateEiiPhS0_b
_ZN7wxImage6CreateEPKPKc
_ZN7wxImage6SetRGBEiihhh
_ZN7wxImage6SetRGBERK6wxRecthhh
_ZN7wxImage7CanReadER13wxInputStream
_ZN7wxImage7CanReadERK8wxString
_ZN7wxImage7DestroyEv
_ZN7wxImage7ReplaceEhhhhhh
_ZN7wxImage7SetDataEPhb
_ZN7wxImage7SetDataEPhiib
_ZN7wxImage7SetMaskEb
_ZN7wxImage8HSVtoRGBERKNS_8HSVValueE
_ZN7wxImage8LoadFileER13wxInputStreamli
_ZN7wxImage8LoadFileER13wxInputStreamRK8wxStringi
_ZN7wxImage8LoadFileERK8wxStringli
_ZN7wxImage8LoadFileERK8wxStringS2_i
_ZN7wxImage8RGBtoHSVERKNS_8RGBValueE
_ZN7wxImage8SetAlphaEiih
_ZN7wxImage8SetAlphaEPhb
_ZN7wxImage9InitAlphaEv
_ZN7wxImage9RotateHueEd
_ZN7wxImage9SetOptionERK8wxStringi
_ZN7wxImage9SetOptionERK8wxStringS2_
_ZN7wxImageC1Eiib
_ZN7wxImageC1EiiPhb
_ZN7wxImageC1EiiPhS0_b
_ZN7wxImageC1EPKPKc
_ZN7wxImageC1ER13wxInputStreamli
_ZN7wxImageC1ER13wxInputStreamRK8wxStringi
_ZN7wxImageC1ERK8wxStringli
_ZN7wxImageC1ERK8wxStringS2_i
_ZN7wxImageC2Eiib
_ZN7wxImageC2EiiPhb
_ZN7wxImageC2EiiPhS0_b
_ZN7wxImageC2EPKPKc
_ZN7wxImageC2ER13wxInputStreamli
_ZN7wxImageC2ER13wxInputStreamRK8wxStringi
_ZN7wxImageC2ERK8wxStringli
_ZN7wxImageC2ERK8wxStringS2_i
_ZN7wxImageD0Ev
_ZN7wxImageD1Ev
_ZN7wxPanel10InitDialogEv
_ZN7wxPanel11RemoveChildEP12wxWindowBase
_ZN7wxPanel12ms_classInfoE
_ZN7wxPanel12OnChildFocusER17wxChildFocusEvent
_ZN7wxPanel13sm_eventTableE
_ZN7wxPanel14wxCreateObjectEv
_ZN7wxPanel15OnNavigationKeyER20wxNavigationKeyEvent
_ZN7wxPanel17sm_eventHashTableE
_ZN7wxPanel20sm_eventTableEntriesE
_ZN7wxPanel24SetFocusIgnoringChildrenEv
_ZN7wxPanel4InitEv
_ZN7wxPanel6CreateEP8wxWindowiRK7wxPointRK6wxSizelRK8wxString
_ZN7wxPanel6OnSizeER11wxSizeEvent
_ZN7wxPanel7OnFocusER12wxFocusEvent
_ZN7wxPanel8SetFocusEv
_ZN7wxPanelD0Ev
_ZN7wxPanelD1Ev
_ZN7wxPanelD2Ev
_ZN7wxSizer10GetMinSizeEv
_ZN7wxSizer12DoSetMinSizeEii
_ZN7wxSizer12ms_classInfoE
_ZN7wxSizer12SetDimensionEiiii
_ZN7wxSizer12SetSizeHintsEP8wxWindow
_ZN7wxSizer13DeleteWindowsEv
_ZN7wxSizer14VirtualFitSizeEP8wxWindow
_ZN7wxSizer16DoSetItemMinSizeEjii
_ZN7wxSizer16DoSetItemMinSizeEP8wxWindowii
_ZN7wxSizer16DoSetItemMinSizeEPS_ii
_ZN7wxSizer16GetMinClientSizeEP8wxWindow
_ZN7wxSizer16GetMinWindowSizeEP8wxWindow
_ZN7wxSizer19SetContainingWindowEP8wxWindow
_ZN7wxSizer19SetVirtualSizeHintsEP8wxWindow
_ZN7wxSizer24ComputeFittingClientSizeEP8wxWindow
_ZN7wxSizer24ComputeFittingWindowSizeEP8wxWindow
_ZN7wxSizer3FitEP8wxWindow
_ZN7wxSizer4ShowEjb
_ZN7wxSizer4ShowEP8wxWindowbb
_ZN7wxSizer4ShowEPS_bb
_ZN7wxSizer5ClearEb
_ZN7wxSizer6DetachEi
_ZN7wxSizer6DetachEP8wxWindow
_ZN7wxSizer6DetachEPS_
_ZN7wxSizer6InsertEjP11wxSizerItem
_ZN7wxSizer6LayoutEv
_ZN7wxSizer6RemoveEi
_ZN7wxSizer6RemoveEP8wxWindow
_ZN7wxSizer6RemoveEPS_
_ZN7wxSizer7GetItemEj
_ZN7wxSizer7GetItemEP8wxWindowb
_ZN7wxSizer7GetItemEPS_b
_ZN7wxSizer7ReplaceEjP11wxSizerItem
_ZN7wxSizer7ReplaceEP8wxWindowS1_b
_ZN7wxSizer7ReplaceEPS_S0_b
_ZN7wxSizer9FitInsideEP8wxWindow
_ZN7wxSizer9ShowItemsEb
_ZN7wxSizerD0Ev
_ZN7wxSizerD1Ev
_ZN7wxSizerD2Ev
_ZN7wxTimer12ms_classInfoE
_ZN7wxTimer4InitEv
_ZN7wxTimer4StopEv
_ZN7wxTimer5StartEib
_ZN7wxTimerD0Ev
_ZN7wxTimerD1Ev
_ZN7wxTimerD2Ev
_ZN8GIFImageC1Ev
_ZN8GIFImageC2Ev
_ZN8wxBitmap10GetRawDataER15wxPixelDataBasei
_ZN8wxBitmap10SetPaletteERK9wxPalette
_ZN8wxBitmap12CopyFromIconERK6wxIcon
_ZN8wxBitmap12ms_classInfoE
_ZN8wxBitmap12UngetRawDataER15wxPixelDataBase
_ZN8wxBitmap14wxCreateObjectEv
_ZN8wxBitmap15CreateFromImageERK7wxImagei
_ZN8wxBitmap20InitStandardHandlersEv
_ZN8wxBitmap23CreateFromImageAsPixbufERK7wxImage
_ZN8wxBitmap23CreateFromImageAsPixmapERK7wxImagei
_ZN8wxBitmap25PurgeOtherRepresentationsENS_14RepresentationE
_ZN8wxBitmap6CreateEiii
_ZN8wxBitmap7SetMaskEP6wxMask
_ZN8wxBitmap8LoadFileERK8wxString12wxBitmapType
_ZN8wxBitmap8SetDepthEi
_ZN8wxBitmap8SetWidthEi
_ZN8wxBitmap8UseAlphaEv
_ZN8wxBitmap9SetHeightEi
_ZN8wxBitmap9SetPixbufEP10_GdkPixbufi
_ZN8wxBitmap9SetPixmapEP12_GdkDrawable
_ZN8wxBitmapC1Eiii
_ZN8wxBitmapC1EPKciii
_ZN8wxBitmapC1EPKPKc
_ZN8wxBitmapC1ERK8wxString12wxBitmapType
_ZN8wxBitmapC2Eiii
_ZN8wxBitmapC2EPKciii
_ZN8wxBitmapC2EPKPKc
_ZN8wxBitmapC2ERK8wxString12wxBitmapType
_ZN8wxBitmapD0Ev
_ZN8wxBitmapD1Ev
_ZN8wxBitmapD2Ev
_ZN8wxButton10SetDefaultEv
_ZN8wxButton12ms_classInfoE
_ZN8wxButton14wxCreateObjectEv
_ZN8wxButton18DoApplyWidgetStyleEP11_GtkRcStyle
_ZN8wxButton25GetClassDefaultAttributesE15wxWindowVariant
_ZN8wxButton6CreateEP8wxWindowiRK8wxStringRK7wxPointRK6wxSizelRK11wxValidatorS4_
_ZN8wxButton6EnableEb
_ZN8wxButton8SetLabelERK8wxString
_ZN8wxButtonC1Ev
_ZN8wxButtonC2Ev
_ZN8wxButtonD0Ev
_ZN8wxButtonD1Ev
_ZN8wxButtonD2Ev
_ZN8wxChoice12GtkAddHelperEP10_GtkWidgetjRK8wxString
_ZN8wxChoice12ms_classInfoE
_ZN8wxChoice12SetSelectionEi
_ZN8wxChoice14wxCreateObjectEv
_ZN8wxChoice18DoApplyWidgetStyleEP11_GtkRcStyle
_ZN8wxChoice19DoSetItemClientDataEjPv
_ZN8wxChoice21DoSetItemClientObjectEjP12wxClientData
_ZN8wxChoice25GetClassDefaultAttributesE15wxWindowVariant
_ZN8wxChoice5ClearEv
_ZN8wxChoice6CreateEP8wxWindowiRK7wxPointRK6wxSizeiPK8wxStringlRK11wxValidatorRS9_
_ZN8wxChoice6CreateEP8wxWindowiRK7wxPointRK6wxSizeRK13wxArrayStringlRK11wxValidatorRK8wxString
_ZN8wxChoice6DeleteEj
_ZN8wxChoice8DoAppendERK8wxString
_ZN8wxChoice8DoInsertERK8wxStringj
_ZN8wxChoice9SetStringEjRK8wxString
_ZN8wxChoiceC1Ev
_ZN8wxChoiceC2Ev
_ZN8wxChoiceD0Ev
_ZN8wxChoiceD1Ev
_ZN8wxChoiceD2Ev
_ZN8wxColour10FromStringEPKc
_ZN8wxColour12ms_classInfoE
_ZN8wxColour14wxCreateObjectEv
_ZN8wxColour8InitRGBAEhhhh
_ZN8wxColour9CalcPixelEP12_GdkColormap
_ZN8wxColourC1ERK9_GdkColor
_ZN8wxColourC2ERK9_GdkColor
_ZN8wxColourD0Ev
_ZN8wxColourD1Ev
_ZN8wxColourD2Ev
_ZN8wxCursor12ms_classInfoE
_ZN8wxCursor14wxCreateObjectEv
_ZN8wxCursorC1Ei
_ZN8wxCursorC1EPKciiiiS1_PK8wxColourS4_
_ZN8wxCursorC1ERK7wxImage
_ZN8wxCursorC1Ev
_ZN8wxCursorC2Ei
_ZN8wxCursorC2EPKciiiiS1_PK8wxColourS4_
_ZN8wxCursorC2ERK7wxImage
_ZN8wxCursorC2Ev
_ZN8wxCursorD0Ev
_ZN8wxCursorD1Ev
_ZN8wxCursorD2Ev
_ZN8wxDCBase10DrawObjectEP12wxDrawObject
_ZN8wxDCBase10DrawSplineEiiiiii
_ZN8wxDCBase10DrawSplineEiP7wxPoint
_ZN8wxDCBase10EndDrawingEv
_ZN8wxDCBase11DrawPolygonEPK6wxListiii
_ZN8wxDCBase12BeginDrawingEv
_ZN8wxDCBase12DoDrawSplineEP6wxList
_ZN8wxDCBase12ms_classInfoE
_ZN8wxDCBase15CalcBoundingBoxEii
_ZN8wxDCBase15DoDrawCheckMarkEiiii
_ZN8wxDCBase15GetLogicalScaleEPdS0_
_ZN8wxDCBase15SetLogicalScaleEdd
_ZN8wxDCBase17DoDrawPolyPolygonEiPiP7wxPointiii
_ZN8wxDCBase17SetTextBackgroundERK8wxColour
_ZN8wxDCBase17SetTextForegroundERK8wxColour
_ZN8wxDCBase18SetLayoutDirectionE17wxLayoutDirection
_ZN8wxDCBase20DoGradientFillLinearERK6wxRectRK8wxColourS5_11wxDirection
_ZN8wxDCBase21ComputeScaleAndOriginEv
_ZN8wxDCBase21DestroyClippingRegionEv
_ZN8wxDCBase24DoGradientFillConcentricERK6wxRectRK8wxColourS5_RK7wxPoint
_ZN8wxDCBase26GetFontPointSizeAdjustmentEf
_ZN8wxDCBase6EndDocEv
_ZN8wxDCBase7EndPageEv
_ZN8wxDCBase8StartDocERK8wxString
_ZN8wxDCBase9DrawLabelERK8wxStringRK8wxBitmapRK6wxRectiiPS6_
_ZN8wxDCBase9DrawLinesEPK6wxListii
_ZN8wxDCBase9StartPageEv
_ZN8wxDCBaseC2Ev
_ZN8wxDCBaseD0Ev
_ZN8wxDCBaseD1Ev
_ZN8wxDialog12ms_classInfoE
_ZN8wxDialog14wxCreateObjectEv
_ZN8wxDialog4InitEv
_ZN8wxDialog4ShowEb
_ZN8wxDialog6CreateEP8wxWindowiRK8wxStringRK7wxPointRK6wxSizelS4_
_ZN8wxDialog8EndModalEi
_ZN8wxDialog8SetModalEb
_ZN8wxDialog9ShowModalEv
_ZN8wxDialogC1EP8wxWindowiRK8wxStringRK7wxPointRK6wxSizelS4_
_ZN8wxDialogC2EP8wxWindowiRK8wxStringRK7wxPointRK6wxSizelS4_
_ZN8wxDialogD0Ev
_ZN8wxDialogD1Ev
_ZN8wxLogGui5ClearEv
_ZN8wxLogGui5DoLogEmPKcl
_ZN8wxLogGui5FlushEv
_ZN8wxLogGuiC1Ev
_ZN8wxLogGuiC2Ev
_ZN8wxLogGuiD0Ev
_ZN8wxLogGuiD1Ev
_ZN8wxRegion10DoSubtractERKS_
_ZN8wxRegion11DoIntersectERKS_
_ZN8wxRegion12ms_classInfoE
_ZN8wxRegion14wxCreateObjectEv
_ZN8wxRegion15DoUnionWithRectERK6wxRect
_ZN8wxRegion17DoUnionWithRegionERKS_
_ZN8wxRegion5ClearEv
_ZN8wxRegion5DoXorERKS_
_ZN8wxRegion8DoOffsetEii
_ZN8wxRegion8InitRectEiiii
_ZN8wxRegionC1EjPK7wxPointi
_ZN8wxRegionC1EP10_GdkRegion
_ZN8wxRegionC2EjPK7wxPointi
_ZN8wxRegionC2EP10_GdkRegion
_ZN8wxRegionD0Ev
_ZN8wxRegionD1Ev
_ZN8wxRegionD2Ev
_ZN8wxSlider11SetLineSizeEi
_ZN8wxSlider11SetPageSizeEi
_ZN8wxSlider12ms_classInfoE
_ZN8wxSlider14SetThumbLengthEi
_ZN8wxSlider14wxCreateObjectEv
_ZN8wxSlider25GetClassDefaultAttributesE15wxWindowVariant
_ZN8wxSlider6CreateEP8wxWindowiiiiRK7wxPointRK6wxSizelRK11wxValidatorRK8wxString
_ZN8wxSlider8SetRangeEii
_ZN8wxSlider8SetValueEi
_ZN8wxSliderC1Ev
_ZN8wxSliderC2Ev
_ZN8wxSliderD0Ev
_ZN8wxSliderD1Ev
_ZN8wxThread6OnExitEv
_ZN8wxWindow10DoAddChildEPS_
_ZN8wxWindow11DoPopupMenuEP6wxMenuii
_ZN8wxWindow11PreCreationEPS_RK7wxPointRK6wxSize
_ZN8wxWindow11RemoveChildEP12wxWindowBase
_ZN8wxWindow11ScrollLinesEi
_ZN8wxWindow11ScrollPagesEi
_ZN8wxWindow11WarpPointerEii
_ZN8wxWindow12ApplyToolTipEP12_GtkTooltipsPKc
_ZN8wxWindow12DoMoveWindowEiiii
_ZN8wxWindow12DoSetToolTipEP9wxToolTip
_ZN8wxWindow12GTKGetLayoutEP10_GtkWidget
_ZN8wxWindow12GTKSetLayoutEP10_GtkWidget17wxLayoutDirection
_ZN8wxWindow12ms_classInfoE
_ZN8wxWindow12PostCreationEv
_ZN8wxWindow12ScrollWindowEiiPK6wxRect
_ZN8wxWindow12SetScrollbarEiiiib
_ZN8wxWindow12SetScrollPosEiib
_ZN8wxWindow13ConnectWidgetEP10_GtkWidget
_ZN8wxWindow13SetDropTargetEP12wxDropTarget
_ZN8wxWindow14DoCaptureMouseEv
_ZN8wxWindow14DoReleaseMouseEv
_ZN8wxWindow14OnInternalIdleEv
_ZN8wxWindow14OnParentEnableEb
_ZN8wxWindow14wxCreateObjectEv
_ZN8wxWindow15ClearBackgroundEv
_ZN8wxWindow15DoScrollByUnitsENS_9ScrollDirENS_10ScrollUnitEi
_ZN8wxWindow15DoSetClientSizeEii
_ZN8wxWindow15FixUpMouseEventEP10_GtkWidgetRiS2_
_ZN8wxWindow15GTKUpdateCursorEv
_ZN8wxWindow15RealizeTabOrderEv
_ZN8wxWindow16ApplyWidgetStyleEb
_ZN8wxWindow16BlockScrollEventEv
_ZN8wxWindow16DoMoveInTabOrderEPS_N12wxWindowBase8MoveKindE
_ZN8wxWindow16GetConnectWidgetEv
_ZN8wxWindow17CreateWidgetStyleEb
_ZN8wxWindow17GtkShowFromOnIdleEv
_ZN8wxWindow17SetDoubleBufferedEb
_ZN8wxWindow18DoApplyWidgetStyleEP11_GtkRcStyle
_ZN8wxWindow18GetScrollEventTypeEP9_GtkRange
_ZN8wxWindow18GtkSendPaintEventsEv
_ZN8wxWindow18SetBackgroundStyleE17wxBackgroundStyle
_ZN8wxWindow18SetLayoutDirectionE17wxLayoutDirection
_ZN8wxWindow18SetWindowStyleFlagEl
_ZN8wxWindow18UnblockScrollEventEv
_ZN8wxWindow19SetBackgroundColourERK8wxColour
_ZN8wxWindow19SetForegroundColourERK8wxColour
_ZN8wxWindow22GTKWidgetDoSetMnemonicEP10_GtkWidget
_ZN8wxWindow25GtkGetPangoDefaultContextEv
_ZN8wxWindow26GtkScrolledWindowSetBorderEP10_GtkWidgeti
_ZN8wxWindow26GTKSetDelayedFocusIfNeededEv
_ZN8wxWindow4InitEv
_ZN8wxWindow4ShowEb
_ZN8wxWindow5LowerEv
_ZN8wxWindow5RaiseEv
_ZN8wxWindow6CreateEPS_iRK7wxPointRK6wxSizelRK8wxString
_ZN8wxWindow6EnableEb
_ZN8wxWindow6UpdateEv
_ZN8wxWindow7DestroyEv
_ZN8wxWindow7RefreshEbPK6wxRect
_ZN8wxWindow7SetFontERK6wxFont
_ZN8wxWindow8AddChildEP12wxWindowBase
_ZN8wxWindow8ReparentEP12wxWindowBase
_ZN8wxWindow8SetFocusEv
_ZN8wxWindow8SetLabelERK8wxString
_ZN8wxWindow9DoSetSizeEiiiii
_ZN8wxWindow9GtkUpdateEv
_ZN8wxWindow9SetCursorERK8wxCursor
_ZN8wxWindowC1EPS_iRK7wxPointRK6wxSizelRK8wxString
_ZN8wxWindowC1Ev
_ZN8wxWindowC2EPS_iRK7wxPointRK6wxSizelRK8wxString
_ZN8wxWindowC2Ev
_ZN8wxWindowD0Ev
_ZN8wxWindowD1Ev
_ZN8wxWindowD2Ev
_ZN9wxAppBase10InitializeERiPPc
_ZN9wxAppBase11ProcessIdleEv
_ZN9wxAppBase12CreateTraitsEv
_ZN9wxAppBase12ExitMainLoopEv
_ZN9wxAppBase12SetPrintModeEi
_ZN9wxAppBase13OnInitCmdLineER15wxCmdLineParser
_ZN9wxAppBase14SendIdleEventsEP8wxWindowR11wxIdleEvent
_ZN9wxAppBase14SetDisplayModeERK11wxVideoMode
_ZN9wxAppBase15OnCmdLineParsedER15wxCmdLineParser
_ZN9wxAppBase20DeletePendingObjectsEv
_ZN9wxAppBase21OnExceptionInMainLoopEv
_ZN9wxAppBase4ExitEv
_ZN9wxAppBase5OnRunEv
_ZN9wxAppBase6OnExitEv
_ZN9wxAppBase6OnIdleER11wxIdleEvent
_ZN9wxAppBase7CleanUpEv
_ZN9wxAppBase7PendingEv
_ZN9wxAppBase8DispatchEv
_ZN9wxAppBase8MainLoopEv
_ZN9wxAppBase9OnInitGuiEv
_ZN9wxAppBase9SetActiveEbP8wxWindow
_ZN9wxAppBaseC1Ev
_ZN9wxAppBaseC2Ev
_ZN9wxAppBaseD0Ev
_ZN9wxAppBaseD1Ev
_ZN9wxAppBaseD2Ev
_ZN9wxCommand12ms_classInfoE
_ZN9wxCommandC1EbRK8wxString
_ZN9wxCommandC2EbRK8wxString
_ZN9wxCommandD0Ev
_ZN9wxCommandD1Ev
_ZN9wxControl12ms_classInfoE
_ZN9wxControl12PostCreationERK6wxSize
_ZN9wxControl14GTKCreateFrameERK8wxString
_ZN9wxControl14OnInternalIdleEv
_ZN9wxControl14wxCreateObjectEv
_ZN9wxControl18GTKRemoveMnemonicsERK8wxString
_ZN9wxControl19GTKConvertMnemonicsERK8wxString
_ZN9wxControl19GTKSetLabelForFrameEP9_GtkFrameRK8wxString
_ZN9wxControl19GTKSetLabelForLabelEP9_GtkLabelRK8wxString
_ZN9wxControl24GTKFrameApplyWidgetStyleEP9_GtkFrameP11_GtkRcStyle
_ZN9wxControl25GTKFrameSetMnemonicWidgetEP9_GtkFrameP10_GtkWidget
_ZN9wxControl33GetDefaultAttributesFromGTKWidgetEP10_GtkWidgetbi
_ZN9wxControl33GetDefaultAttributesFromGTKWidgetEPFP10_GtkWidgetP14_GtkAdjustmentEbi
_ZN9wxControl33GetDefaultAttributesFromGTKWidgetEPFP10_GtkWidgetPKcEbi
_ZN9wxControl33GetDefaultAttributesFromGTKWidgetEPFP10_GtkWidgetvEbi
_ZN9wxControl6CreateEP8wxWindowiRK7wxPointRK6wxSizelRK11wxValidatorRK8wxString
_ZN9wxControl8SetLabelERK8wxString
_ZN9wxControlC1Ev
_ZN9wxControlC2Ev
_ZN9wxControlD0Ev
_ZN9wxControlD1Ev
_ZN9wxDisplay10ChangeModeERK11wxVideoMode
_ZN9wxDisplay12GetFromPointERK7wxPoint
_ZN9wxDisplay13CreateFactoryEv
_ZN9wxDisplay13GetFromWindowEP8wxWindow
_ZN9wxDisplay7FactoryEv
_ZN9wxDisplay8GetCountEv
_ZN9wxDisplayC1Ej
_ZN9wxDisplayC2Ej
_ZN9wxDisplayD1Ev
_ZN9wxDisplayD2Ev
_ZN9wxEffects10TileBitmapERK6wxRectR4wxDCRK8wxBitmap
_ZN9wxEffects12ms_classInfoE
_ZN9wxEffects14DrawSunkenEdgeER4wxDCRK6wxRecti
_ZN9wxEffectsC1ERK8wxColourS2_S2_S2_S2_
_ZN9wxEffectsC1Ev
_ZN9wxEffectsC2ERK8wxColourS2_S2_S2_S2_
_ZN9wxEffectsC2Ev
_ZN9wxEffectsD0Ev
_ZN9wxEffectsD1Ev
_ZN9wxListBox10DoSetItemsERK13wxArrayStringPPv
_ZN9wxListBox12ApplyToolTipEP12_GtkTooltipsPKc
_ZN9wxListBox12ms_classInfoE
_ZN9wxListBox13DoInsertItemsERK13wxArrayStringj
_ZN9wxListBox13EnsureVisibleEi
_ZN9wxListBox14DoScrollToCellEiff
_ZN9wxListBox14DoSetFirstItemEi
_ZN9wxListBox14DoSetSelectionEib
_ZN9wxListBox14GtkDeselectAllEv
_ZN9wxListBox14GtkInsertItemsERK13wxArrayStringPPvj
_ZN9wxListBox14wxCreateObjectEv
_ZN9wxListBox15GtkSetSelectionEibb
_ZN9wxListBox16GetConnectWidgetEv
_ZN9wxListBox18DoApplyWidgetStyleEP11_GtkRcStyle
_ZN9wxListBox19DoSetItemClientDataEjPv
_ZN9wxListBox21DoSetItemClientObjectEjP12wxClientData
_ZN9wxListBox25GetClassDefaultAttributesE15wxWindowVariant
_ZN9wxListBox4InitEv
_ZN9wxListBox5ClearEv
_ZN9wxListBox6CreateEP8wxWindowiRK7wxPointRK6wxSizeiPK8wxStringlRK11wxValidatorRS9_
_ZN9wxListBox6CreateEP8wxWindowiRK7wxPointRK6wxSizeRK13wxArrayStringlRK11wxValidatorRK8wxString
_ZN9wxListBox6DeleteEj
_ZN9wxListBox8DoAppendERK8wxString
_ZN9wxListBox9SetStringEjRK8wxString
_ZN9wxListBoxD0Ev
_ZN9wxListBoxD1Ev
_ZN9wxListBoxD2Ev
_ZN9wxMenuBar11SetLabelTopEjRK8wxString
_ZN9wxMenuBar12ms_classInfoE
_ZN9wxMenuBar14wxCreateObjectEv
_ZN9wxMenuBar17SetInvokingWindowEP8wxWindow
_ZN9wxMenuBar18SetLayoutDirectionE17wxLayoutDirection
_ZN9wxMenuBar19UnsetInvokingWindowEP8wxWindow
_ZN9wxMenuBar4InitEjPP6wxMenuPK8wxStringl
_ZN9wxMenuBar6AppendEP6wxMenuRK8wxString
_ZN9wxMenuBar6AttachEP7wxFrame
_ZN9wxMenuBar6InsertEjP6wxMenuRK8wxString
_ZN9wxMenuBar6RemoveEj
_ZN9wxMenuBar7ReplaceEjP6wxMenuRK8wxString
_ZN9wxMenuBar9EnableTopEjb
_ZN9wxMenuBar9GtkAppendEP6wxMenuRK8wxStringi
_ZN9wxMenuBarC1EjPP6wxMenuPK8wxStringl
_ZN9wxMenuBarC1El
_ZN9wxMenuBarC1Ev
_ZN9wxMenuBarC2EjPP6wxMenuPK8wxStringl
_ZN9wxMenuBarC2El
_ZN9wxMenuBarC2Ev
_ZN9wxMenuBarD0Ev
_ZN9wxMenuBarD1Ev
_ZN9wxMenuBarD2Ev
_ZN9wxOverlay10EndDrawingEP10wxWindowDC
_ZN9wxOverlay12BeginDrawingEP10wxWindowDC
_ZN9wxOverlay4InitEP10wxWindowDCiiii
_ZN9wxOverlay4IsOkEv
_ZN9wxOverlay5ClearEP10wxWindowDC
_ZN9wxOverlay5ResetEv
_ZN9wxOverlayC1Ev
_ZN9wxOverlayC2Ev
_ZN9wxOverlayD1Ev
_ZN9wxOverlayD2Ev
_ZN9wxPaintDC12ms_classInfoE
_ZN9wxPaintDC14wxCreateObjectEv
_ZN9wxPaintDCC1EP8wxWindow
_ZN9wxPaintDCC2EP8wxWindow
_ZN9wxPaintDCD0Ev
_ZN9wxPaintDCD1Ev
_ZN9wxPalette12ms_classInfoE
_ZN9wxPalette14wxCreateObjectEv
_ZN9wxPalette6CreateEiPKhS1_S1_
_ZN9wxPaletteC1EiPKhS1_S1_
_ZN9wxPaletteC1Ev
_ZN9wxPaletteC2EiPKhS1_S1_
_ZN9wxPaletteC2Ev
_ZN9wxPaletteD0Ev
_ZN9wxPaletteD1Ev
_ZN9wxPaletteD2Ev
_ZN9wxPenList15FindOrCreatePenERK8wxColourii
_ZN9wxPenList6AddPenEP5wxPen
_ZN9wxPenList9RemovePenEP5wxPen
_ZN9wxPrinter11PrintDialogEP8wxWindow
_ZN9wxPrinter11ReportErrorEP8wxWindowP10wxPrintoutRK8wxString
_ZN9wxPrinter12ms_classInfoE
_ZN9wxPrinter17CreateAbortWindowEP8wxWindowP10wxPrintout
_ZN9wxPrinter5PrintEP8wxWindowP10wxPrintoutb
_ZN9wxPrinter5SetupEP8wxWindow
_ZN9wxPrinterC1EP17wxPrintDialogData
_ZN9wxPrinterC2EP17wxPrintDialogData
_ZN9wxPrinterD0Ev
_ZN9wxPrinterD1Ev
_ZN9wxPrinterD2Ev
_ZN9wxPrivate11OnScopeExitI17wxScopeGuardImpl1IPFvPvEPhEEEvRT_
_ZN9wxPrivate3UseI20wxScopeGuardImplBaseEEvRKT_
_ZN9wxToolBar10CreateToolEiRK8wxStringRK8wxBitmapS5_10wxItemKindP8wxObjectS2_S2_
_ZN9wxToolBar10CreateToolEP9wxControl
_ZN9wxToolBar10SetMarginsEii
_ZN9wxToolBar11DoSetToggleEP17wxToolBarToolBaseb
_ZN9wxToolBar11GtkSetStyleEv
_ZN9wxToolBar12DoDeleteToolEjP17wxToolBarToolBase
_ZN9wxToolBar12DoEnableToolEP17wxToolBarToolBaseb
_ZN9wxToolBar12DoInsertToolEjP17wxToolBarToolBase
_ZN9wxToolBar12DoToggleToolEP17wxToolBarToolBaseb
_ZN9wxToolBar12ms_classInfoE
_ZN9wxToolBar14OnInternalIdleEv
_ZN9wxToolBar14wxCreateObjectEv
_ZN9wxToolBar16SetToolShortHelpEiRK8wxString
_ZN9wxToolBar17SetToolSeparationEi
_ZN9wxToolBar18SetWindowStyleFlagEl
_ZN9wxToolBar19SetToolNormalBitmapEiRK8wxBitmap
_ZN9wxToolBar21SetToolDisabledBitmapEiRK8wxBitmap
_ZN9wxToolBar25GetClassDefaultAttributesE15wxWindowVariant
_ZN9wxToolBar4InitEv
_ZN9wxToolBar6CreateEP8wxWindowiRK7wxPointRK6wxSizelRK8wxString
_ZN9wxToolBarD0Ev
_ZN9wxToolBarD1Ev
_ZN9wxToolBarD2Ev
_ZN9wxToolTip12ms_classInfoE
_ZN9wxToolTip5ApplyEP10_GtkWidgetRK12wxCharBuffer
_ZN9wxToolTip5ApplyEP8wxWindow
_ZN9wxToolTip6EnableEb
_ZN9wxToolTip6SetTipERK8wxString
_ZN9wxToolTip8SetDelayEl
_ZN9wxToolTipC1ERK8wxString
_ZN9wxToolTipC2ERK8wxString
_ZN9wxToolTipD0Ev
_ZN9wxToolTipD1Ev
_ZNK10wxBoxSizer12GetClassInfoEv
_ZNK10wxCheckBox12GetClassInfoEv
_ZNK10wxCheckBox12GTKGetWindowER17wxArrayGdkWindows
_ZNK10wxCheckBox13DoGetBestSizeEv
_ZNK10wxCheckBox16DoGet3StateValueEv
_ZNK10wxCheckBox8GetValueEv
_ZNK10wxClientDC12GetClassInfoEv
_ZNK10wxClientDC9DoGetSizeEPiS0_
_ZNK10wxComboBox10FindStringERK8wxStringb
_ZNK10wxComboBox10IsEditableEv
_ZNK10wxComboBox12GetClassInfoEv
_ZNK10wxComboBox12GetSelectionEPlS0_
_ZNK10wxComboBox12GetSelectionEv
_ZNK10wxComboBox12GTKGetWindowER17wxArrayGdkWindows
_ZNK10wxComboBox12HasSelectionEv
_ZNK10wxComboBox13DoGetBestSizeEv
_ZNK10wxComboBox13GetEventTableEv
_ZNK10wxComboBox15GetLastPositionEv
_ZNK10wxComboBox15UseGTKStyleBaseEv
_ZNK10wxComboBox17GetEventHashTableEv
_ZNK10wxComboBox17GetInsertionPointEv
_ZNK10wxComboBox18GetStringSelectionEv
_ZNK10wxComboBox19DoGetItemClientDataEj
_ZNK10wxComboBox19GetCurrentSelectionEv
_ZNK10wxComboBox21DoGetItemClientObjectEj
_ZNK10wxComboBox6CanCutEv
_ZNK10wxComboBox7CanCopyEv
_ZNK10wxComboBox7CanRedoEv
_ZNK10wxComboBox7CanUndoEv
_ZNK10wxComboBox8CanPasteEv
_ZNK10wxComboBox8GetCountEv
_ZNK10wxComboBox8GetValueEv
_ZNK10wxComboBox9GetStringEj
_ZNK10wxDCModule12GetClassInfoEv
_ZNK10wxDocument10IsModifiedEv
_ZNK10wxDocument12GetClassInfoEv
_ZNK10wxDocument12GetFirstViewEv
_ZNK10wxDocument16GetPrintableNameER8wxString
_ZNK10wxDocument17GetDocumentWindowEv
_ZNK10wxDocument18GetDocumentManagerEv
_ZNK10wxDocument19GetCommandProcessorEv
_ZNK10wxDocument19GetDocumentTemplateEv
_ZNK10wxFileCtrl12GetClassInfoEv
_ZNK10wxFileCtrl13GetEventTableEv
_ZNK10wxFileCtrl17GetEventHashTableEv
_ZNK10wxFileData11GetFileTypeEv
_ZNK10wxFileData19GetModificationTimeEv
_ZNK10wxFileData7GetHintEv
_ZNK10wxFileData8GetEntryENS_17fileListFieldTypeE
_ZNK10wxFontBase12GetPixelSizeEv
_ZNK10wxFontBase12IsFixedWidthEv
_ZNK10wxFontBase14GetStyleStringEv
_ZNK10wxFontBase15GetFamilyStringEv
_ZNK10wxFontBase15GetWeightStringEv
_ZNK10wxFontBase17GetNoAntiAliasingEv
_ZNK10wxFontBase19IsUsingSizeInPixelsEv
_ZNK10wxFontBase21GetNativeFontInfoDescEv
_ZNK10wxFontBase25GetNativeFontInfoUserDescEv
_ZNK10wxFontBaseeqERK6wxFont
_ZNK10wxFontBaseneERK6wxFont
_ZNK10wxFontData12GetClassInfoEv
_ZNK10wxKeyEvent12GetClassInfoEv
_ZNK10wxKeyEvent5CloneEv
_ZNK10wxKeyEvent7KeyCodeEv
_ZNK10wxListbook11GetPageTextEj
_ZNK10wxListbook12GetClassInfoEv
_ZNK10wxListbook12GetPageImageEj
_ZNK10wxListbook12GetSelectionEv
_ZNK10wxListbook13GetEventTableEv
_ZNK10wxListbook16CalcSizeFromPageERK6wxSize
_ZNK10wxListbook17GetControllerSizeEv
_ZNK10wxListbook17GetEventHashTableEv
_ZNK10wxListbook23CreatePageChangingEventEv
_ZNK10wxListbook7HitTestERK7wxPointPl
_ZNK10wxListCtrl12GetClassInfoEv
_ZNK10wxListItem12GetClassInfoEv
_ZNK10wxListView12GetClassInfoEv
_ZNK10wxLogFrame13GetEventTableEv
_ZNK10wxLogFrame17GetEventHashTableEv
_ZNK10wxMemoryDC12GetClassInfoEv
_ZNK10wxMemoryDC13DoGetAsBitmapEPK6wxRect
_ZNK10wxMemoryDC17GetSelectedBitmapEv
_ZNK10wxMemoryDC9DoGetSizeEPiS0_
_ZNK10wxMenuBase10GetMenuBarEv
_ZNK10wxMenuBase13FindChildItemEiPj
_ZNK10wxMenuBase13GetHelpStringEi
_ZNK10wxMenuBase18FindItemByPositionEj
_ZNK10wxMenuBase8FindItemEiPP6wxMenu
_ZNK10wxMenuBase8FindItemERK8wxString
_ZNK10wxMenuBase8GetLabelEi
_ZNK10wxMenuBase9IsCheckedEi
_ZNK10wxMenuBase9IsEnabledEi
_ZNK10wxMenuItem12GetClassInfoEv
_ZNK10wxMenuItem12GetItemLabelEv
_ZNK10wxMenuItem8GetAccelEv
_ZNK10wxMenuItem9GetBitmapEv
_ZNK10wxMenuItem9IsCheckedEv
_ZNK10wxMenuList4FindERK9wxListKey
_ZNK10wxMirrorDC10DoGetPixelEiiP8wxColour
_ZNK10wxMirrorDC11DoGetSizeMMEPiS0_
_ZNK10wxMirrorDC12GetCharWidthEv
_ZNK10wxMirrorDC13CanDrawBitmapEv
_ZNK10wxMirrorDC13GetCharHeightEv
_ZNK10wxMirrorDC15DoGetTextExtentERK8wxStringPiS3_S3_S3_P6wxFont
_ZNK10wxMirrorDC16CanGetTextExtentEv
_ZNK10wxMirrorDC2OkEv
_ZNK10wxMirrorDC4IsOkEv
_ZNK10wxMirrorDC6GetPPIEv
_ZNK10wxMirrorDC8GetDepthEv
_ZNK10wxMirrorDC9DoGetSizeEPiS0_
_ZNK10wxNotebook11GetPageTextEj
_ZNK10wxNotebook12GetClassInfoEv
_ZNK10wxNotebook12GetPageImageEj
_ZNK10wxNotebook12GetSelectionEv
_ZNK10wxNotebook12GTKGetWindowER17wxArrayGdkWindows
_ZNK10wxNotebook13GetEventTableEv
_ZNK10wxNotebook15GetNotebookPageEi
_ZNK10wxNotebook17GetEventHashTableEv
_ZNK10wxNotebook7HitTestERK7wxPointPl
_ZNK10wxPrintout12GetClassInfoEv
_ZNK10wxPrintout18GetLogicalPageRectEv
_ZNK10wxPrintout19GetLogicalPaperRectEv
_ZNK10wxPrintout25GetLogicalPageMarginsRectERK21wxPageSetupDialogData
_ZNK10wxPrintout8GetTitleEv
_ZNK10wxPrintout9IsPreviewEv
_ZNK10wxQuantize12GetClassInfoEv
_ZNK10wxRadioBox11IsItemShownEj
_ZNK10wxRadioBox12GetClassInfoEv
_ZNK10wxRadioBox12GetSelectionEv
_ZNK10wxRadioBox12GTKGetWindowER17wxArrayGdkWindows
_ZNK10wxRadioBox13IsItemEnabledEj
_ZNK10wxRadioBox16GetItemFromPointERK7wxPoint
_ZNK10wxRadioBox18GetHelpTextAtPointERK7wxPointN11wxHelpEvent6OriginE
_ZNK10wxRadioBox22GTKWidgetNeedsMnemonicEv
_ZNK10wxRadioBox8GetCountEv
_ZNK10wxRadioBox9GetStringEj
_ZNK10wxScreenDC12GetClassInfoEv
_ZNK10wxScreenDC9DoGetSizeEPiS0_
_ZNK10wxSpinCtrl12GetClassInfoEv
_ZNK10wxSpinCtrl12GTKGetWindowER17wxArrayGdkWindows
_ZNK10wxSpinCtrl13DoGetBestSizeEv
_ZNK10wxSpinCtrl13GetEventTableEv
_ZNK10wxSpinCtrl15UseGTKStyleBaseEv
_ZNK10wxSpinCtrl17GetEventHashTableEv
_ZNK10wxSpinCtrl6GetMaxEv
_ZNK10wxSpinCtrl6GetMinEv
_ZNK10wxSpinCtrl8GetValueEv
_ZNK10wxTextCtrl10IsEditableEv
_ZNK10wxTextCtrl10IsModifiedEv
_ZNK10wxTextCtrl11GetLineTextEl
_ZNK10wxTextCtrl12GetClassInfoEv
_ZNK10wxTextCtrl12GetSelectionEPlS0_
_ZNK10wxTextCtrl12GTKGetWindowER17wxArrayGdkWindows
_ZNK10wxTextCtrl12PositionToXYElPlS0_
_ZNK10wxTextCtrl12XYToPositionEll
_ZNK10wxTextCtrl13DoGetBestSizeEv
_ZNK10wxTextCtrl13GetEventTableEv
_ZNK10wxTextCtrl13GetLineLengthEl
_ZNK10wxTextCtrl15GetLastPositionEv
_ZNK10wxTextCtrl15GetTextEncodingEv
_ZNK10wxTextCtrl15GTKProcessEventER7wxEvent
_ZNK10wxTextCtrl15UseGTKStyleBaseEv
_ZNK10wxTextCtrl16GetNumberOfLinesEv
_ZNK10wxTextCtrl17GetEventHashTableEv
_ZNK10wxTextCtrl17GetInsertionPointEv
_ZNK10wxTextCtrl7CanRedoEv
_ZNK10wxTextCtrl7CanUndoEv
_ZNK10wxTextCtrl7HitTestERK7wxPointPl
_ZNK10wxTextCtrl7HitTestERK7wxPointPlS3_
_ZNK10wxTextCtrl7IsEmptyEv
_ZNK10wxTextCtrl8GetValueEv
_ZNK10wxTextCtrl8IsFrozenEv
_ZNK10wxToolbook11GetPageTextEj
_ZNK10wxToolbook12GetClassInfoEv
_ZNK10wxToolbook12GetPageImageEj
_ZNK10wxToolbook12GetSelectionEv
_ZNK10wxToolbook13GetEventTableEv
_ZNK10wxToolbook16CalcSizeFromPageERK6wxSize
_ZNK10wxToolbook17GetControllerSizeEv
_ZNK10wxToolbook17GetEventHashTableEv
_ZNK10wxToolbook23CreatePageChangingEventEv
_ZNK10wxToolbook7HitTestERK7wxPointPl
_ZNK10wxTreebook11GetPageTextEj
_ZNK10wxTreebook12AcceptsFocusEv
_ZNK10wxTreebook12GetClassInfoEv
_ZNK10wxTreebook12GetPageImageEj
_ZNK10wxTreebook12GetSelectionEv
_ZNK10wxTreebook13AllowNullPageEv
_ZNK10wxTreebook13GetEventTableEv
_ZNK10wxTreebook13GetPageParentEj
_ZNK10wxTreebook14IsNodeExpandedEj
_ZNK10wxTreebook16CalcSizeFromPageERK6wxSize
_ZNK10wxTreebook16DoGetCurrentPageEv
_ZNK10wxTreebook17DoInternalGetPageEj
_ZNK10wxTreebook17GetEventHashTableEv
_ZNK10wxTreebook22DoInternalFindPageByIdE12wxTreeItemId
_ZNK10wxTreebook7HitTestERK7wxPointPl
_ZNK10wxTreeCtrl12GetClassInfoEv
_ZNK10wxVListBox10IsSelectedEj
_ZNK10wxVListBox12GetClassInfoEv
_ZNK10wxVListBox13GetEventTableEv
_ZNK10wxVListBox15GetNextSelectedERm
_ZNK10wxVListBox15OnDrawSeparatorER4wxDCR6wxRectj
_ZNK10wxVListBox15OnGetLineHeightEj
_ZNK10wxVListBox16GetFirstSelectedERm
_ZNK10wxVListBox16GetSelectedCountEv
_ZNK10wxVListBox16OnDrawBackgroundER4wxDCRK6wxRectj
_ZNK10wxVListBox17GetEventHashTableEv
_ZNK10wxVListBox20GetDefaultAttributesEv
_ZNK10wxWindowDC10DoGetPixelEiiP8wxColour
_ZNK10wxWindowDC12GetCharWidthEv
_ZNK10wxWindowDC12GetClassInfoEv
_ZNK10wxWindowDC12GetGDKWindowEv
_ZNK10wxWindowDC13CanDrawBitmapEv
_ZNK10wxWindowDC13GetCharHeightEv
_ZNK10wxWindowDC15DoGetTextExtentERK8wxStringPiS3_S3_S3_P6wxFont
_ZNK10wxWindowDC16CanGetTextExtentEv
_ZNK10wxWindowDC23DoGetPartialTextExtentsERK8wxStringR10wxArrayInt
_ZNK10wxWindowDC6GetPPIEv
_ZNK10wxWindowDC8GetDepthEv
_ZNK10wxWindowDC9DoGetSizeEPiS0_
_ZNK11wxAccelList4FindERK9wxListKey
_ZNK11wxBrushBase7IsHatchEv
_ZNK11wxClassInfo8IsKindOfEPKS_
_ZNK11wxClipboard12GetClassInfoEv
_ZNK11wxClipboard8IsOpenedEv
_ZNK11wxComboCtrl12GetClassInfoEv
_ZNK11wxDirButton12GetClassInfoEv
_ZNK11wxDirButton12GTKGetWindowER17wxArrayGdkWindows
_ZNK11wxDirButton14GetDialogStyleEv
_ZNK11wxDirDialog12GetClassInfoEv
_ZNK11wxDirDialog13GetEventTableEv
_ZNK11wxDirDialog17GetEventHashTableEv
_ZNK11wxDirDialog7GetPathEv
_ZNK11wxEventLoop7PendingEv
_ZNK11wxFrameBase10GetMenuBarEv
_ZNK11wxFrameBase10GetToolBarEv
_ZNK11wxFrameBase11IsOneOfBarsEPK8wxWindow
_ZNK11wxFrameBase12GetStatusBarEv
_ZNK11wxFrameBase13GetEventTableEv
_ZNK11wxFrameBase17GetEventHashTableEv
_ZNK11wxFrameBase19GetClientAreaOriginEv
_ZNK11wxGaugeBase12AcceptsFocusEv
_ZNK11wxGaugeBase12GetBezelFaceEv
_ZNK11wxGaugeBase14GetShadowWidthEv
_ZNK11wxGaugeBase8GetRangeEv
_ZNK11wxGaugeBase8GetValueEv
_ZNK11wxGDIObject12GetClassInfoEv
_ZNK11wxGridSizer12CalcRowsColsERiS0_
_ZNK11wxGridSizer12GetClassInfoEv
_ZNK11wxHelpEvent12GetClassInfoEv
_ZNK11wxHelpEvent5CloneEv
_ZNK11wxIconArray5IndexERK6wxIconb
_ZNK11wxIdleEvent12GetClassInfoEv
_ZNK11wxIdleEvent5CloneEv
_ZNK11wxImageList12GetClassInfoEv
_ZNK11wxListEvent12GetClassInfoEv
_ZNK11wxListEvent5CloneEv
_ZNK11wxLogDialog13GetEventTableEv
_ZNK11wxLogDialog17GetEventHashTableEv
_ZNK11wxLogWindow8GetFrameEv
_ZNK11wxMenuEvent12GetClassInfoEv
_ZNK11wxMenuEvent5CloneEv
_ZNK11wxMiniFrame12GetClassInfoEv
_ZNK11wxMoveEvent12GetClassInfoEv
_ZNK11wxMoveEvent5CloneEv
_ZNK11wxPrintData12GetClassInfoEv
_ZNK11wxPrintData4IsOkEv
_ZNK11wxRect2DInt10IntersectsERKS_
_ZNK11wxRect2DInt7WriteToER18wxDataOutputStream
_ZNK11wxScrollBar11GetPageSizeEv
_ZNK11wxScrollBar12GetClassInfoEv
_ZNK11wxScrollBar12GetThumbSizeEv
_ZNK11wxScrollBar12GTKGetWindowER17wxArrayGdkWindows
_ZNK11wxScrollBar16GetThumbPositionEv
_ZNK11wxScrollBar8GetRangeEv
_ZNK11wxShowEvent12GetClassInfoEv
_ZNK11wxShowEvent5CloneEv
_ZNK11wxSizeEvent12GetClassInfoEv
_ZNK11wxSizeEvent5CloneEv
_ZNK11wxSizerItem12GetClassInfoEv
_ZNK11wxSizerItem16ShouldAccountForEv
_ZNK11wxSizerItem20GetMinSizeWithBorderEv
_ZNK11wxSizerItem7GetSizeEv
_ZNK11wxSizerItem7IsShownEv
_ZNK11wxSizerItem9GetOptionEv
_ZNK11wxSizerItem9GetSpacerEv
_ZNK11wxSpinEvent12GetClassInfoEv
_ZNK11wxStaticBox12GetClassInfoEv
_ZNK11wxStaticBox18GetBordersForSizerEPiS0_
_ZNK11wxStaticBox21IsTransparentForMouseEv
_ZNK11wxStaticBox22GTKWidgetNeedsMnemonicEv
_ZNK11wxStatusBar10GetBorderXEv
_ZNK11wxStatusBar10GetBorderYEv
_ZNK11wxStatusBar12GetClassInfoEv
_ZNK11wxStatusBar12GetFieldRectEiR6wxRect
_ZNK11wxStatusBar13DoGetBestSizeEv
_ZNK11wxStatusBar13GetEventTableEv
_ZNK11wxStatusBar13GetStatusTextEi
_ZNK11wxStatusBar17GetEventHashTableEv
_ZNK11wxTipWindow13GetEventTableEv
_ZNK11wxTipWindow17GetEventHashTableEv
_ZNK11wxTreeEvent12GetClassInfoEv
_ZNK11wxTreeEvent5CloneEv
_ZNK11wxValidator12GetClassInfoEv
_ZNK11wxValidator5CloneEv
_ZNK12wxANIDecoder12GetFrameSizeEj
_ZNK12wxANIDecoder14ConvertToImageEjP7wxImage
_ZNK12wxANIDecoder16GetFramePositionEj
_ZNK12wxANIDecoder17GetDisposalMethodEj
_ZNK12wxANIDecoder20GetTransparentColourEj
_ZNK12wxANIDecoder5CloneEv
_ZNK12wxANIDecoder7CanReadER13wxInputStream
_ZNK12wxANIDecoder7GetTypeEv
_ZNK12wxANIDecoder8GetDelayEj
_ZNK12wxANIHandler12GetClassInfoEv
_ZNK12wxBitmapBase12GetClassInfoEv
_ZNK12wxBitmapBase14QuantizeColourERK8wxColour
_ZNK12wxBitmapBase2OkEv
_ZNK12wxBMPHandler12GetClassInfoEv
_ZNK12wxBufferedDC12GetClassInfoEv
_ZNK12wxButtonBase20ShouldInheritColoursEv
_ZNK12wxChoiceBase10GetColumnsEv
_ZNK12wxChoiceBase19GetCurrentSelectionEv
_ZNK12wxChoicebook11GetPageTextEj
_ZNK12wxChoicebook12GetClassInfoEv
_ZNK12wxChoicebook12GetPageImageEj
_ZNK12wxChoicebook12GetSelectionEv
_ZNK12wxChoicebook13GetEventTableEv
_ZNK12wxChoicebook16CalcSizeFromPageERK6wxSize
_ZNK12wxChoicebook17GetControllerSizeEv
_ZNK12wxChoicebook17GetEventHashTableEv
_ZNK12wxChoicebook23CreatePageChangingEventEv
_ZNK12wxCloseEvent12GetClassInfoEv
_ZNK12wxCloseEvent5CloneEv
_ZNK12wxColourBase11GetAsStringEl
_ZNK12wxColourBase2OkEv
_ZNK12wxColourBase5AlphaEv
_ZNK12wxColourData12GetClassInfoEv
_ZNK12wxCURHandler12GetClassInfoEv
_ZNK12wxDataFormat5GetIdEv
_ZNK12wxDataFormat7GetTypeEv
_ZNK12wxDataObject17IsSupportedFormatERK12wxDataFormatN16wxDataObjectBase9DirectionE
_ZNK12wxDialogBase12AcceptsFocusEv
_ZNK12wxDialogBase13GetEventTableEv
_ZNK12wxDialogBase17GetEventHashTableEv
_ZNK12wxDocManager12GetClassInfoEv
_ZNK12wxDocManager13GetEventTableEv
_ZNK12wxDocManager14GetCurrentViewEv
_ZNK12wxDocManager14GetFileHistoryEv
_ZNK12wxDocManager14GetHistoryFileEj
_ZNK12wxDocManager17GetEventHashTableEv
_ZNK12wxDocManager18GetCurrentDocumentEv
_ZNK12wxDocManager20GetHistoryFilesCountEv
_ZNK12wxEraseEvent12GetClassInfoEv
_ZNK12wxEraseEvent5CloneEv
_ZNK12wxFileButton12GetClassInfoEv
_ZNK12wxFileButton12GTKGetWindowER17wxArrayGdkWindows
_ZNK12wxFileButton14GetDialogStyleEv
_ZNK12wxFileDialog11GetFilenameEv
_ZNK12wxFileDialog12GetClassInfoEv
_ZNK12wxFileDialog12GetDirectoryEv
_ZNK12wxFileDialog12GetFilenamesER13wxArrayString
_ZNK12wxFileDialog13GetEventTableEv
_ZNK12wxFileDialog14GetFilterIndexEv
_ZNK12wxFileDialog17GetEventHashTableEv
_ZNK12wxFileDialog7GetPathEv
_ZNK12wxFileDialog8GetPathsER13wxArrayString
_ZNK12wxFocusEvent12GetClassInfoEv
_ZNK12wxFocusEvent5CloneEv
_ZNK12wxFontButton12GetClassInfoEv
_ZNK12wxFontDialog12GetClassInfoEv
_ZNK12wxGIFDecoder10GetPaletteEj
_ZNK12wxGIFDecoder11GetNcoloursEj
_ZNK12wxGIFDecoder12GetFrameSizeEj
_ZNK12wxGIFDecoder14ConvertToImageEjP7wxImage
_ZNK12wxGIFDecoder16GetFramePositionEj
_ZNK12wxGIFDecoder17GetDisposalMethodEj
_ZNK12wxGIFDecoder20GetTransparentColourEj
_ZNK12wxGIFDecoder25GetTransparentColourIndexEj
_ZNK12wxGIFDecoder5CloneEv
_ZNK12wxGIFDecoder7CanReadER13wxInputStream
_ZNK12wxGIFDecoder7GetDataEj
_ZNK12wxGIFDecoder7GetTypeEv
_ZNK12wxGIFDecoder8GetDelayEj
_ZNK12wxGIFHandler12GetClassInfoEv
_ZNK12wxICOHandler12GetClassInfoEv
_ZNK12wxIconBundle7GetIconERK6wxSize
_ZNK12wxImageArray5IndexERK7wxImageb
_ZNK12wxListString4FindERK9wxListKey
_ZNK12wxMouseEvent10ButtonDownEi
_ZNK12wxMouseEvent12ButtonDClickEi
_ZNK12wxMouseEvent12ButtonIsDownEi
_ZNK12wxMouseEvent12GetClassInfoEv
_ZNK12wxMouseEvent18GetLogicalPositionERK4wxDC
_ZNK12wxMouseEvent5CloneEv
_ZNK12wxMouseEvent6ButtonEi
_ZNK12wxMouseEvent8ButtonUpEi
_ZNK12wxMouseEvent9GetButtonEv
_ZNK12wxObjectList4FindERK9wxListKey
_ZNK12wxPaintEvent12GetClassInfoEv
_ZNK12wxPaintEvent5CloneEv
_ZNK12wxPCXHandler12GetClassInfoEv
_ZNK12wxPickerBase12AcceptsFocusEv
_ZNK12wxPickerBase12GetClassInfoEv
_ZNK12wxPickerBase13GetEventTableEv
_ZNK12wxPickerBase14GetPickerStyleEl
_ZNK12wxPickerBase16GetTextCtrlStyleEl
_ZNK12wxPickerBase17GetEventHashTableEv
_ZNK12wxPNGHandler12GetClassInfoEv
_ZNK12wxPNMHandler12GetClassInfoEv
_ZNK12wxPoint2DInt14GetVectorAngleEv
_ZNK12wxPoint2DInt7WriteToER18wxDataOutputStream
_ZNK12wxRegionBase15ConvertToBitmapEv
_ZNK12wxRegionBase7IsEqualERK8wxRegion
_ZNK12wxSearchCtrl10IsEditableEv
_ZNK12wxSearchCtrl10IsModifiedEv
_ZNK12wxSearchCtrl11GetLineTextEl
_ZNK12wxSearchCtrl11IsMultiLineEv
_ZNK12wxSearchCtrl12GetClassInfoEv
_ZNK12wxSearchCtrl12GetSelectionEPlS0_
_ZNK12wxSearchCtrl12IsSingleLineEv
_ZNK12wxSearchCtrl12PositionToXYElPlS0_
_ZNK12wxSearchCtrl12XYToPositionEll
_ZNK12wxSearchCtrl13DoGetBestSizeEv
_ZNK12wxSearchCtrl13GetEventTableEv
_ZNK12wxSearchCtrl13GetLineLengthEl
_ZNK12wxSearchCtrl15GetDefaultStyleEv
_ZNK12wxSearchCtrl15GetLastPositionEv
_ZNK12wxSearchCtrl16GetNumberOfLinesEv
_ZNK12wxSearchCtrl17GetEventHashTableEv
_ZNK12wxSearchCtrl17GetInsertionPointEv
_ZNK12wxSearchCtrl18GetDescriptiveTextEv
_ZNK12wxSearchCtrl18GetStringSelectionEv
_ZNK12wxSearchCtrl20ShouldInheritColoursEv
_ZNK12wxSearchCtrl21IsCancelButtonVisibleEv
_ZNK12wxSearchCtrl21IsSearchButtonVisibleEv
_ZNK12wxSearchCtrl6CanCutEv
_ZNK12wxSearchCtrl7CanCopyEv
_ZNK12wxSearchCtrl7CanRedoEv
_ZNK12wxSearchCtrl7CanUndoEv
_ZNK12wxSearchCtrl7HitTestERK7wxPointPl
_ZNK12wxSearchCtrl7HitTestERK7wxPointPlS3_
_ZNK12wxSearchCtrl8CanPasteEv
_ZNK12wxSearchCtrl8GetRangeEll
_ZNK12wxSearchCtrl8GetValueEv
_ZNK12wxSliderBase11GetSelStartEv
_ZNK12wxSliderBase11GetTickFreqEv
_ZNK12wxSliderBase16ValueInvertOrNotEi
_ZNK12wxSliderBase9GetSelEndEv
_ZNK12wxSpinButton12GetClassInfoEv
_ZNK12wxSpinButton12GTKGetWindowER17wxArrayGdkWindows
_ZNK12wxSpinButton13DoGetBestSizeEv
_ZNK12wxSpinButton13GetEventTableEv
_ZNK12wxSpinButton17GetEventHashTableEv
_ZNK12wxSpinButton6GetMaxEv
_ZNK12wxSpinButton6GetMinEv
_ZNK12wxSpinButton8GetValueEv
_ZNK12wxStaticLine12GetClassInfoEv
_ZNK12wxStaticText12GetClassInfoEv
_ZNK12wxStaticText13DoGetBestSizeEv
_ZNK12wxStaticText22GTKWidgetNeedsMnemonicEv
_ZNK12wxStaticText8GetLabelEv
_ZNK12wxTGAHandler12GetClassInfoEv
_ZNK12wxTimerEvent12GetClassInfoEv
_ZNK12wxTimerEvent5CloneEv
_ZNK12wxWindowBase10FindWindowEl
_ZNK12wxWindowBase10FindWindowERK8wxString
_ZNK12wxWindowBase10GetMaxSizeEv
_ZNK12wxWindowBase10GetMinSizeEv
_ZNK12wxWindowBase10HasCaptureEv
_ZNK12wxWindowBase10IsRetainedEv
_ZNK12wxWindowBase10IsTopLevelEv
_ZNK12wxWindowBase11DoIsExposedEii
_ZNK12wxWindowBase11DoIsExposedEiiii
_ZNK12wxWindowBase12AcceptsFocusEv
_ZNK12wxWindowBase12DoGetSiblingENS_8MoveKindE
_ZNK12wxWindowBase12GetClassInfoEv
_ZNK12wxWindowBase13DoGetBestSizeEv
_ZNK12wxWindowBase13GetDropTargetEv
_ZNK12wxWindowBase13GetEventTableEv
_ZNK12wxWindowBase15GetThemeEnabledEv
_ZNK12wxWindowBase15IsShownOnScreenEv
_ZNK12wxWindowBase16DoGetVirtualSizeEv
_ZNK12wxWindowBase16GetDefaultBorderEv
_ZNK12wxWindowBase16HasMultiplePagesEv
_ZNK12wxWindowBase16IsDoubleBufferedEv
_ZNK12wxWindowBase17GetEventHashTableEv
_ZNK12wxWindowBase17GetSizeConstraintEPiS0_
_ZNK12wxWindowBase18ClientToWindowSizeERK6wxSize
_ZNK12wxWindowBase18GetBackgroundStyleEv
_ZNK12wxWindowBase18GetBestVirtualSizeEv
_ZNK12wxWindowBase18GetHelpTextAtPointERK7wxPointN11wxHelpEvent6OriginE
_ZNK12wxWindowBase18GetLayoutDirectionEv
_ZNK12wxWindowBase18GetWindowStyleFlagEv
_ZNK12wxWindowBase18WindowToClientSizeERK6wxSize
_ZNK12wxWindowBase19DoGetScreenPositionEPiS0_
_ZNK12wxWindowBase19GetBackgroundColourEv
_ZNK12wxWindowBase19GetClientAreaOriginEv
_ZNK12wxWindowBase19GetEffectiveMinSizeEv
_ZNK12wxWindowBase19GetForegroundColourEv
_ZNK12wxWindowBase19GetUpdateClientRectEv
_ZNK12wxWindowBase19GetWindowBorderSizeEv
_ZNK12wxWindowBase20GetDefaultAttributesEv
_ZNK12wxWindowBase20ShouldInheritColoursEv
_ZNK12wxWindowBase21GetPositionConstraintEPiS0_
_ZNK12wxWindowBase23GetClientSizeConstraintEPiS0_
_ZNK12wxWindowBase24AcceptsFocusFromKeyboardEv
_ZNK12wxWindowBase24AdjustForLayoutDirectionEiii
_ZNK12wxWindowBase27AdjustForParentClientOriginERiS0_i
_ZNK12wxWindowBase27GetWindowSizeForVirtualSizeERK6wxSize
_ZNK12wxWindowBase28GetAncestorWithCustomPaletteEv
_ZNK12wxWindowBase7GetFontEv
_ZNK12wxWindowBase7GetNameEv
_ZNK12wxWindowBase7IsShownEv
_ZNK12wxWindowBase8IsFrozenEv
_ZNK12wxWindowBase9DoHitTestEii
_ZNK12wxWindowBase9GetBorderEl
_ZNK12wxWindowBase9IsEnabledEv
_ZNK12wxWindowList4FindERK9wxListKey
_ZNK12wxXPMHandler12GetClassInfoEv
_ZNK13wxArtProvider12GetClassInfoEv
_ZNK13wxContextHelp12GetClassInfoEv
_ZNK13wxControlBase16InitCommandEventER14wxCommandEvent
_ZNK13wxControlBase20ShouldInheritColoursEv
_ZNK13wxDialUpEvent5CloneEv
_ZNK13wxDirItemData10HasSubDirsEv
_ZNK13wxDirItemData8HasFilesERK8wxString
_ZNK13wxDisplayImpl13GetClientAreaEv
_ZNK13wxDisplayImpl9IsPrimaryEv
_ZNK13wxDocPrintout12GetClassInfoEv
_ZNK13wxDocTemplate11GetViewNameEv
_ZNK13wxDocTemplate12GetClassInfoEv
_ZNK13wxDocTemplate15GetDocumentNameEv
_ZNK13wxFileHistory11GetMaxFilesEv
_ZNK13wxFileHistory12GetClassInfoEv
_ZNK13wxFileHistory14GetHistoryFileEj
_ZNK13wxFileHistory8GetCountEv
_ZNK13wxGBSizerItem12GetClassInfoEv
_ZNK13wxGBSizerItem6GetPosERiS0_
_ZNK13wxGBSizerItem7GetSpanERiS0_
_ZNK13wxImageModule12GetClassInfoEv
_ZNK13wxJPEGHandler12GetClassInfoEv
_ZNK13wxListBoxBase13DoListHitTestERK7wxPoint
_ZNK13wxMenuBarBase12FindMenuItemERK8wxStringS2_
_ZNK13wxMenuBarBase12IsEnabledTopEj
_ZNK13wxMenuBarBase13GetHelpStringEi
_ZNK13wxMenuBarBase16GetMenuLabelTextEj
_ZNK13wxMenuBarBase24AcceptsFocusFromKeyboardEv
_ZNK13wxMenuBarBase7GetMenuEj
_ZNK13wxMenuBarBase8FindItemEiPP6wxMenu
_ZNK13wxMenuBarBase8FindMenuERK8wxString
_ZNK13wxMenuBarBase8GetLabelEi
_ZNK13wxMenuBarBase8GetLabelEv
_ZNK13wxMenuBarBase9IsCheckedEi
_ZNK13wxMenuBarBase9IsEnabledEi
_ZNK13wxMenuBarBase9IsEnabledEv
_ZNK13wxNotifyEvent12GetClassInfoEv
_ZNK13wxNotifyEvent5CloneEv
_ZNK13wxPaletteBase15GetColoursCountEv
_ZNK13wxPaletteBase2OkEv
_ZNK13wxPopupWindow12GetClassInfoEv
_ZNK13wxPopupWindow13GetEventTableEv
_ZNK13wxPopupWindow17GetEventHashTableEv
_ZNK13wxPrintDialog12GetClassInfoEv
_ZNK13wxPrinterBase12GetClassInfoEv
_ZNK13wxPrinterBase18GetPrintDialogDataEv
_ZNK13wxRadioButton12GetClassInfoEv
_ZNK13wxRadioButton12GTKGetWindowER17wxArrayGdkWindows
_ZNK13wxRadioButton13DoGetBestSizeEv
_ZNK13wxRadioButton13IsRadioButtonEv
_ZNK13wxRadioButton8GetValueEv
_ZNK13wxScrollEvent12GetClassInfoEv
_ZNK13wxScrollEvent5CloneEv
_ZNK13wxTIFFHandler12GetClassInfoEv
_ZNK13wxToolBarBase10GetToolPosEi
_ZNK13wxToolBarBase11GetToolSizeEv
_ZNK13wxToolBarBase12AcceptsFocusEv
_ZNK13wxToolBarBase12GetToolStateEi
_ZNK13wxToolBarBase13GetEventTableEv
_ZNK13wxToolBarBase14GetToolEnabledEi
_ZNK13wxToolBarBase14GetToolMarginsEv
_ZNK13wxToolBarBase14GetToolPackingEv
_ZNK13wxToolBarBase15GetToolLongHelpEi
_ZNK13wxToolBarBase16GetToolShortHelpEi
_ZNK13wxToolBarBase17GetEventHashTableEv
_ZNK13wxToolBarBase17GetToolBitmapSizeEv
_ZNK13wxToolBarBase17GetToolClientDataEi
_ZNK13wxToolBarBase17GetToolSeparationEv
_ZNK13wxToolBarBase8FindByIdEi
_ZNK13wxTransform2D16InverseTransformEP11wxRect2DInt
_ZNK13wxTransform2D16InverseTransformERK11wxRect2DInt
_ZNK13wxTransform2D16InverseTransformERK12wxPoint2DInt
_ZNK13wxTransform2D9TransformEP11wxRect2DInt
_ZNK13wxTransform2D9TransformERK11wxRect2DInt
_ZNK13wxTransform2D9TransformERK12wxPoint2DInt
_ZNK13wxVariantData5WriteER8wxString
_ZNK13wxVariantData5WriteERSo
_ZNK14wxArtGtkModule12GetClassInfoEv
_ZNK14wxBitmapButton12GetClassInfoEv
_ZNK14wxBitmapButton13DoGetBestSizeEv
_ZNK14wxBookCtrlBase11GetNextPageEb
_ZNK14wxBookCtrlBase11GetPageRectEv
_ZNK14wxBookCtrlBase12GetClassInfoEv
_ZNK14wxBookCtrlBase12GetPageCountEv
_ZNK14wxBookCtrlBase13AllowNullPageEv
_ZNK14wxBookCtrlBase13DoGetBestSizeEv
_ZNK14wxBookCtrlBase13GetEventTableEv
_ZNK14wxBookCtrlBase16HasMultiplePagesEv
_ZNK14wxBookCtrlBase17GetControllerSizeEv
_ZNK14wxBookCtrlBase17GetEventHashTableEv
_ZNK14wxBookCtrlBase23CreatePageChangingEventEv
_ZNK14wxBookCtrlBase7HitTestERK7wxPointPl
_ZNK14wxCheckBoxBase16DoGet3StateValueEv
_ZNK14wxCheckListBox12GetClassInfoEv
_ZNK14wxCheckListBox13GetItemHeightEv
_ZNK14wxCheckListBox9IsCheckedEj
_ZNK14wxColourButton12GetClassInfoEv
_ZNK14wxColourDialog12GetClassInfoEv
_ZNK14wxComboBoxBase19GetCurrentSelectionEv
_ZNK14wxCommandEvent12GetClassInfoEv
_ZNK14wxCommandEvent5CloneEv
_ZNK14wxCommandEvent9GetStringEv
_ZNK14wxGridBagSizer11GetCellSizeEii
_ZNK14wxGridBagSizer12GetClassInfoEv
_ZNK14wxGUIAppTraits17GetToolkitVersionEPiS0_
_ZNK14wxGUIAppTraits21GetDesktopEnvironmentEv
_ZNK14wxIconizeEvent12GetClassInfoEv
_ZNK14wxIconizeEvent5CloneEv
_ZNK14wxImageHandler12GetClassInfoEv
_ZNK14wxListItemData4GetXEv
_ZNK14wxListItemData4GetYEv
_ZNK14wxListItemData5IsHitEii
_ZNK14wxListItemData7GetItemER10wxListItem
_ZNK14wxListItemData8GetWidthEv
_ZNK14wxListItemData9GetHeightEv
_ZNK14wxListLineData7GetAttrEv
_ZNK14wxListLineData7GetTextEi
_ZNK14wxListLineData8GetImageEi
_ZNK14wxMenuItemBase8GetAccelEv
_ZNK14wxMenuItemBase9IsCheckedEv
_ZNK14wxMenuItemBase9IsEnabledEv
_ZNK14wxMenuItemList4FindERK9wxListKey
_ZNK14wxNcPaintEvent12GetClassInfoEv
_ZNK14wxNcPaintEvent5CloneEv
_ZNK14wxNotebookBase11GetRowCountEv
_ZNK14wxNotebookBase16CalcSizeFromPageERK6wxSize
_ZNK14wxNotebookBase24GetThemeBackgroundColourEv
_ZNK14wxPostScriptDC10DoGetPixelEiiP8wxColour
_ZNK14wxPostScriptDC11DoGetSizeMMEPiS0_
_ZNK14wxPostScriptDC12GetCharWidthEv
_ZNK14wxPostScriptDC12GetClassInfoEv
_ZNK14wxPostScriptDC13CanDrawBitmapEv
_ZNK14wxPostScriptDC13GetCharHeightEv
_ZNK14wxPostScriptDC15DoGetTextExtentERK8wxStringPiS3_S3_S3_P6wxFont
_ZNK14wxPostScriptDC16CanGetTextExtentEv
_ZNK14wxPostScriptDC2OkEv
_ZNK14wxPostScriptDC4IsOkEv
_ZNK14wxPostScriptDC6GetPPIEv
_ZNK14wxPostScriptDC8GetDepthEv
_ZNK14wxPostScriptDC9DoGetSizeEPiS0_
_ZNK14wxPreviewFrame12GetClassInfoEv
_ZNK14wxPreviewFrame13GetEventTableEv
_ZNK14wxPreviewFrame17GetEventHashTableEv
_ZNK14wxPrintPreview10GetMaxPageEv
_ZNK14wxPrintPreview10GetMinPageEv
_ZNK14wxPrintPreview11GetPrintoutEv
_ZNK14wxPrintPreview12GetClassInfoEv
_ZNK14wxPrintPreview14GetCurrentPageEv
_ZNK14wxPrintPreview22GetPrintoutForPrintingEv
_ZNK14wxPrintPreview2OkEv
_ZNK14wxPrintPreview4IsOkEv
_ZNK14wxPrintPreview7GetZoomEv
_ZNK14wxPrintPreview8GetFrameEv
_ZNK14wxPrintPreview9GetCanvasEv
_ZNK14wxRadioBoxBase11GetNextItemEi11wxDirectionl
_ZNK14wxRadioBoxBase15GetItemHelpTextEj
_ZNK14wxRadioBoxBase16GetItemFromPointERK7wxPoint
_ZNK14wxRadioBoxBase20DoGetHelpTextAtPointEPK8wxWindowRK7wxPointN11wxHelpEvent6OriginE
_ZNK14wxRect2DDouble10IntersectsERKS_
_ZNK14wxScrollHelper12GetViewStartEPiS0_
_ZNK14wxScrollHelper14GetScrollLinesEi
_ZNK14wxScrollHelper15GetTargetWindowEv
_ZNK14wxScrollHelper17GetScrollPageSizeEi
_ZNK14wxScrollHelper20SendAutoScrollEventsER16wxScrollWinEvent
_ZNK14wxScrollHelper22DoCalcScrolledPositionEiiPiS0_
_ZNK14wxScrollHelper22GetScrollPixelsPerUnitEPiS0_
_ZNK14wxScrollHelper24DoCalcUnscrolledPositionEiiPiS0_
_ZNK14wxScrollHelper24ScrollGetBestVirtualSizeEv
_ZNK14wxScrollHelper33ScrollGetWindowSizeForVirtualSizeERK6wxSize
_ZNK14wxSearchButton13DoGetBestSizeEv
_ZNK14wxSearchButton13GetEventTableEv
_ZNK14wxSearchButton17GetEventHashTableEv
_ZNK14wxStaticBitmap12GetClassInfoEv
_ZNK14wxStaticBitmap7GetIconEv
_ZNK14wxStaticBitmap9GetBitmapEv
_ZNK14wxTextCtrlBase12GetClassInfoEv
_ZNK14wxTextCtrlBase15GetDefaultStyleEv
_ZNK14wxTextCtrlBase18GetStringSelectionEv
_ZNK14wxTextCtrlBase20ShouldInheritColoursEv
_ZNK14wxTextCtrlBase6CanCutEv
_ZNK14wxTextCtrlBase7CanCopyEv
_ZNK14wxTextCtrlBase7HitTestERK7wxPointPl
_ZNK14wxTextCtrlBase7HitTestERK7wxPointPlS3_
_ZNK14wxTextCtrlBase7IsEmptyEv
_ZNK14wxTextCtrlBase8CanPasteEv
_ZNK14wxTextCtrlBase8GetRangeEll
_ZNK14wxTextUrlEvent12GetClassInfoEv
_ZNK14wxToggleButton12GetClassInfoEv
_ZNK14wxToggleButton12GTKGetWindowER17wxArrayGdkWindows
_ZNK14wxToggleButton13DoGetBestSizeEv
_ZNK14wxToggleButton8GetValueEv
_ZNK14wxTreeCtrlBase13DoGetBestSizeEv
_ZNK14wxTreeCtrlBase20ShouldInheritColoursEv
_ZNK14wxTreeCtrlBase7IsEmptyEv
_ZNK14wxTreeTextCtrl13GetEventTableEv
_ZNK14wxTreeTextCtrl17GetEventHashTableEv
_ZNK15wxActivateEvent12GetClassInfoEv
_ZNK15wxActivateEvent5CloneEv
_ZNK15wxAppTraitsBase21GetDesktopEnvironmentEv
_ZNK15wxBitmapHandler12GetClassInfoEv
_ZNK15wxComboCtrlBase12GetClassInfoEv
_ZNK15wxComboCtrlBase13DoGetBestSizeEv
_ZNK15wxComboCtrlBase13GetEventTableEv
_ZNK15wxComboCtrlBase15GetLastPositionEv
