<abi-corpus version='2.0' architecture='elf-amd-x86_64' soname='libwx_gtk3u_propgrid-3.2.so.0'>
  <elf-needed>
    <dependency name='libwx_gtk3u_core-3.2.so.0'/>
    <dependency name='libwx_baseu-3.2.so.0'/>
    <dependency name='libm.so.6'/>
    <dependency name='libstdc++.so.6'/>
    <dependency name='libgcc_s.so.1'/>
    <dependency name='libc.so.6'/>
  </elf-needed>
  <elf-function-symbols>
    <elf-symbol name='_Z13wxPGGetFailedPK12wxPGPropertyRK8wxString' version='WXU_3.2' is-default-version='yes' type='func-type' binding='global-binding' visibility='default-visibility' is-defined='yes'/>
    <elf-symbol name='_Z20wxSizeRefFromVariantR9wxVariant' version='WXU_3.2' is-default-version='yes' type='func-type' binding='global-binding' visibility='default-visibility' is-defined='yes'/>
    <elf-symbol name='_Z20wxSizeRefFromVariantRK9wxVariant' version='WXU_3.2' is-default-version='yes' type='func-type' binding='global-binding' visibility='default-visibility' is-defined='yes'/>
    <elf-symbol name='_Z21wxPointRefFromVariantR9wxVariant' version='WXU_3.2' is-default-version='yes' type='func-type' binding='global-binding' visibility='default-visibility' is-defined='yes'/>
    <elf-symbol name='_Z21wxPointRefFromVariantRK9wxVariant' version='WXU_3.2' is-default-version='yes' type='func-type' binding='global-binding' visibility='default-visibility' is-defined='yes'/>
    <elf-symbol name='_Z22wxPGInitResourceModulev' version='WXU_3.2' is-default-version='yes' type='func-type' binding='global-binding' visibility='default-visibility' is-defined='yes'/>
    <elf-symbol name='_Z23wxPGTypeOperationFailedPK12wxPGPropertyRK8wxStringS4_' version='WXU_3.2' is-default-version='yes' type='func-type' binding='global-binding' visibility='default-visibility' is-defined='yes'/>
    <elf-symbol name='_Z24wxArrayIntRefFromVariantR9wxVariant' version='WXU_3.2' is-default-version='yes' type='func-type' binding='global-binding' visibility='default-visibility' is-defined='yes'/>
    <elf-symbol name='_Z24wxArrayIntRefFromVariantRK9wxVariant' version='WXU_3.2' is-default-version='yes' type='func-type' binding='global-binding' visibility='default-visibility' is-defined='yes'/>
    <elf-symbol name='_Z27wxPGGetDefaultImageWildcardv' version='WXU_3.2' is-default-version='yes' type='func-type' binding='global-binding' visibility='default-visibility' is-defined='yes'/>
    <elf-symbol name='_ZN10wxPGEditorD0Ev' version='WXU_3.2' is-default-version='yes' type='func-type' binding='global-binding' visibility='default-visibility' is-defined='yes'/>
    <elf-symbol name='_ZN10wxPGEditorD1Ev' version='WXU_3.2' is-default-version='yes' type='func-type' binding='global-binding' visibility='default-visibility' alias='_ZN10wxPGEditorD2Ev@@WXU_3.2' is-defined='yes'/>
    <elf-symbol name='_ZN10wxPGEditorD2Ev' version='WXU_3.2' is-default-version='yes' type='func-type' binding='global-binding' visibility='default-visibility' is-defined='yes'/>
    <elf-symbol name='_ZN11wxPGChoices10AssignDataEP15wxPGChoicesData' version='WXU_3.2' is-default-version='yes' type='func-type' binding='global-binding' visibility='default-visibility' is-defined='yes'/>
    <elf-symbol name='_ZN11wxPGChoices11AddAsSortedERK8wxStringi' version='WXU_3.2' is-default-version='yes' type='func-type' binding='global-binding' visibility='default-visibility' is-defined='yes'/>
    <elf-symbol name='_ZN11wxPGChoices14AllocExclusiveEv' version='WXU_3.2' is-default-version='yes' type='func-type' binding='global-binding' visibility='default-visibility' is-defined='yes'/>
    <elf-symbol name='_ZN11wxPGChoices3AddEPKPKwPKl' version='WXU_3.2' is-default-version='yes' type='func-type' binding='global-binding' visibility='default-visibility' is-defined='yes'/>
    <elf-symbol name='_ZN11wxPGChoices3AddERK13wxArrayStringRK10wxArrayInt' version='WXU_3.2' is-default-version='yes' type='func-type' binding='global-binding' visibility='default-visibility' is-defined='yes'/>
    <elf-symbol name='_ZN11wxPGChoices3AddERK8wxStringRK14wxBitmapBundlei' version='WXU_3.2' is-default-version='yes' type='func-type' binding='global-binding' visibility='default-visibility' is-defined='yes'/>
    <elf-symbol name='_ZN11wxPGChoices3AddERK8wxStringi' version='WXU_3.2' is-default-version='yes' type='func-type' binding='global-binding' visibility='default-visibility' is-defined='yes'/>
    <elf-symbol name='_ZN11wxPGChoices3AddEmPK8wxStringPKl' version='WXU_3.2' is-default-version='yes' type='func-type' binding='global-binding' visibility='default-visibility' is-defined='yes'/>
    <elf-symbol name='_ZN11wxPGChoices4FreeEv' version='WXU_3.2' is-default-version='yes' type='func-type' binding='global-binding' visibility='default-visibility' is-defined='yes'/>
    <elf-symbol name='_ZN11wxPGChoices4InitEv' version='WXU_3.2' is-default-version='yes' type='func-type' binding='global-binding' visibility='default-visibility' is-defined='yes'/>
    <elf-symbol name='_ZN11wxPGChoices5ClearEv' version='WXU_3.2' is-default-version='yes' type='func-type' binding='global-binding' visibility='default-visibility' is-defined='yes'/>
    <elf-symbol name='_ZN11wxPGChoices6InsertERK15wxPGChoiceEntryi' version='WXU_3.2' is-default-version='yes' type='func-type' binding='global-binding' visibility='default-visibility' is-defined='yes'/>
    <elf-symbol name='_ZN11wxPGChoices6InsertERK8wxStringii' version='WXU_3.2' is-default-version='yes' type='func-type' binding='global-binding' visibility='default-visibility' is-defined='yes'/>
    <elf-symbol name='_ZN11wxPGChoices8RemoveAtEmm' version='WXU_3.2' is-default-version='yes' type='func-type' binding='global-binding' visibility='default-visibility' is-defined='yes'/>
    <elf-symbol name='_ZN12wxPGCellDataC1Ev' version='WXU_3.2' is-default-version='yes' type='func-type' binding='global-binding' visibility='default-visibility' is-defined='yes'/>
    <elf-symbol name='_ZN12wxPGCellDataC2Ev' version='WXU_3.2' is-default-version='yes' type='func-type' binding='global-binding' visibility='default-visibility' alias='_ZN12wxPGCellDataC1Ev@@WXU_3.2' is-defined='yes'/>
    <elf-symbol name='_ZN12wxPGProperty10ClearCellsEjb' version='WXU_3.2' is-default-version='yes' type='func-type' binding='global-binding' visibility='default-visibility' is-defined='yes'/>
    <elf-symbol name='_ZN12wxPGProperty10DoAddChildEPS_ib' version='WXU_3.2' is-default-version='yes' type='func-type' binding='global-binding' visibility='default-visibility' is-defined='yes'/>
    <elf-symbol name='_ZN12wxPGProperty10OnDetachedEP23wxPropertyGridPageStateP14wxPropertyGrid' version='WXU_3.2' is-default-version='yes' type='func-type' binding='global-binding' visibility='default-visibility' is-defined='yes'/>
    <elf-symbol name='_ZN12wxPGProperty10OnSetValueEv' version='WXU_3.2' is-default-version='yes' type='func-type' binding='global-binding' visibility='default-visibility' is-defined='yes'/>
    <elf-symbol name='_ZN12wxPGProperty10SetChoicesERK11wxPGChoices' version='WXU_3.2' is-default-version='yes' type='func-type' binding='global-binding' visibility='default-visibility' is-defined='yes'/>
    <elf-symbol name='_ZN12wxPGProperty11EnsureCellsEj' version='WXU_3.2' is-default-version='yes' type='func-type' binding='global-binding' visibility='default-visibility' is-defined='yes'/>
    <elf-symbol name='_ZN12wxPGProperty11InsertChildEiPS_' version='WXU_3.2' is-default-version='yes' type='func-type' binding='global-binding' visibility='default-visibility' is-defined='yes'/>
    <elf-symbol name='_ZN12wxPGProperty11RemoveChildEPS_' version='WXU_3.2' is-default-version='yes' type='func-type' binding='global-binding' visibility='default-visibility' is-defined='yes'/>
    <elf-symbol name='_ZN12wxPGProperty11RemoveChildEj' version='WXU_3.2' is-default-version='yes' type='func-type' binding='global-binding' visibility='default-visibility' is-defined='yes'/>
    <elf-symbol name='_ZN12wxPGProperty12DeleteChoiceEi' version='WXU_3.2' is-default-version='yes' type='func-type' binding='global-binding' visibility='default-visibility' is-defined='yes'/>
    <elf-symbol name='_ZN12wxPGProperty12InsertChoiceERK8wxStringii' version='WXU_3.2' is-default-version='yes' type='func-type' binding='global-binding' visibility='default-visibility' is-defined='yes'/>
    <elf-symbol name='_ZN12wxPGProperty12SetAttributeERK8wxString9wxVariant' version='WXU_3.2' is-default-version='yes' type='func-type' binding='global-binding' visibility='default-visibility' is-defined='yes'/>
    <elf-symbol name='_ZN12wxPGProperty12SetMaxLengthEi' version='WXU_3.2' is-default-version='yes' type='func-type' binding='global-binding' visibility='default-visibility' is-defined='yes'/>
    <elf-symbol name='_ZN12wxPGProperty12SortChildrenEPFiPPS_S1_E' version='WXU_3.2' is-default-version='yes' type='func-type' binding='global-binding' visibility='default-visibility' is-defined='yes'/>
    <elf-symbol name='_ZN12wxPGProperty13DoPreAddChildEiPS_' version='WXU_3.2' is-default-version='yes' type='func-type' binding='global-binding' visibility='default-visibility' is-defined='yes'/>
    <elf-symbol name='_ZN12wxPGProperty13OnCustomPaintER4wxDCRK6wxRectR13wxPGPaintData' version='WXU_3.2' is-default-version='yes' type='func-type' binding='global-binding' visibility='default-visibility' is-defined='yes'/>
    <elf-symbol name='_ZN12wxPGProperty13RefreshEditorEv' version='WXU_3.2' is-default-version='yes' type='func-type' binding='global-binding' visibility='default-visibility' is-defined='yes'/>
    <elf-symbol name='_ZN12wxPGProperty13SetAttributesERK20wxPGAttributeStorage' version='WXU_3.2' is-default-version='yes' type='func-type' binding='global-binding' visibility='default-visibility' is-defined='yes'/>
    <elf-symbol name='_ZN12wxPGProperty13SetTextColourERK8wxColouri' version='WXU_3.2' is-default-version='yes' type='func-type' binding='global-binding' visibility='default-visibility' is-defined='yes'/>
    <elf-symbol name='_ZN12wxPGProperty13SetValueImageERK14wxBitmapBundle' version='WXU_3.2' is-default-version='yes' type='func-type' binding='global-binding' visibility='default-visibility' is-defined='yes'/>
    <elf-symbol name='_ZN12wxPGProperty14DeleteChildrenEv' version='WXU_3.2' is-default-version='yes' type='func-type' binding='global-binding' visibility='default-visibility' is-defined='yes'/>
    <elf-symbol name='_ZN12wxPGProperty14DoSetAttributeERK8wxStringR9wxVariant' version='WXU_3.2' is-default-version='yes' type='func-type' binding='global-binding' visibility='default-visibility' is-defined='yes'/>
    <elf-symbol name='_ZN12wxPGProperty14GetDisplayInfoEjiiP8wxStringP8wxPGCell' version='WXU_3.2' is-default-version='yes' type='func-type' binding='global-binding' visibility='default-visibility' is-defined='yes'/>
    <elf-symbol name='_ZN12wxPGProperty14GetDisplayInfoEjiiP8wxStringPPK8wxPGCell' version='WXU_3.2' is-default-version='yes' type='func-type' binding='global-binding' visibility='default-visibility' is-defined='yes'/>
    <elf-symbol name='_ZN12wxPGProperty14InitAfterAddedEP23wxPropertyGridPageStateP14wxPropertyGrid' version='WXU_3.2' is-default-version='yes' type='func-type' binding='global-binding' visibility='default-visibility' is-defined='yes'/>
    <elf-symbol name='_ZN12wxPGProperty14RecreateEditorEv' version='WXU_3.2' is-default-version='yes' type='func-type' binding='global-binding' visibility='default-visibility' is-defined='yes'/>
    <elf-symbol name='_ZN12wxPGProperty15AdaptiveSetCellEjjRK8wxPGCellS2_P12wxPGCellDatajb' version='WXU_3.2' is-default-version='yes' type='func-type' binding='global-binding' visibility='default-visibility' is-defined='yes'/>
    <elf-symbol name='_ZN12wxPGProperty15AddPrivateChildEPS_' version='WXU_3.2' is-default-version='yes' type='func-type' binding='global-binding' visibility='default-visibility' is-defined='yes'/>
    <elf-symbol name='_ZN12wxPGProperty15GetOrCreateCellEj' version='WXU_3.2' is-default-version='yes' type='func-type' binding='global-binding' visibility='default-visibility' is-defined='yes'/>
    <elf-symbol name='_ZN12wxPGProperty15RefreshChildrenEv' version='WXU_3.2' is-default-version='yes' type='func-type' binding='global-binding' visibility='default-visibility' is-defined='yes'/>
    <elf-symbol name='_ZN12wxPGProperty15SetDefaultValueER9wxVariant' version='WXU_3.2' is-default-version='yes' type='func-type' binding='global-binding' visibility='default-visibility' is-defined='yes'/>
    <elf-symbol name='_ZN12wxPGProperty15SetValueFromIntEli' version='WXU_3.2' is-default-version='yes' type='func-type' binding='global-binding' visibility='default-visibility' is-defined='yes'/>
    <elf-symbol name='_ZN12wxPGProperty15SubPropsChangedEi' version='WXU_3.2' is-default-version='yes' type='func-type' binding='global-binding' visibility='default-visibility' is-defined='yes'/>
    <elf-symbol name='_ZN12wxPGProperty17SetDefaultColoursEi' version='WXU_3.2' is-default-version='yes' type='func-type' binding='global-binding' visibility='default-visibility' is-defined='yes'/>
    <elf-symbol name='_ZN12wxPGProperty18SetChoiceSelectionEi' version='WXU_3.2' is-default-version='yes' type='func-type' binding='global-binding' visibility='default-visibility' is-defined='yes'/>
    <elf-symbol name='_ZN12wxPGProperty18SetFlagRecursivelyE17wxPGPropertyFlagsb' version='WXU_3.2' is-default-version='yes' type='func-type' binding='global-binding' visibility='default-visibility' is-defined='yes'/>
    <elf-symbol name='_ZN12wxPGProperty18SetFlagsFromStringERK8wxString' version='WXU_3.2' is-default-version='yes' type='func-type' binding='global-binding' visibility='default-visibility' is-defined='yes'/>
    <elf-symbol name='_ZN12wxPGProperty18SetValueFromStringERK8wxStringi' version='WXU_3.2' is-default-version='yes' type='func-type' binding='global-binding' visibility='default-visibility' is-defined='yes'/>
    <elf-symbol name='_ZN12wxPGProperty18UpdateParentValuesEv' version='WXU_3.2' is-default-version='yes' type='func-type' binding='global-binding' visibility='default-visibility' is-defined='yes'/>
    <elf-symbol name='_ZN12wxPGProperty19OnValidationFailureER9wxVariant' version='WXU_3.2' is-default-version='yes' type='func-type' binding='global-binding' visibility='default-visibility' is-defined='yes'/>
    <elf-symbol name='_ZN12wxPGProperty19SetBackgroundColourERK8wxColouri' version='WXU_3.2' is-default-version='yes' type='func-type' binding='global-binding' visibility='default-visibility' is-defined='yes'/>
    <elf-symbol name='_ZN12wxPGProperty20FixIndicesOfChildrenEj' version='WXU_3.2' is-default-version='yes' type='func-type' binding='global-binding' visibility='default-visibility' is-defined='yes'/>
    <elf-symbol name='_ZN12wxPGProperty4HideEbi' version='WXU_3.2' is-default-version='yes' type='func-type' binding='global-binding' visibility='default-visibility' is-defined='yes'/>
    <elf-symbol name='_ZN12wxPGProperty4InitERK8wxStringS2_' version='WXU_3.2' is-default-version='yes' type='func-type' binding='global-binding' visibility='default-visibility' is-defined='yes'/>
    <elf-symbol name='_ZN12wxPGProperty4InitEv' version='WXU_3.2' is-default-version='yes' type='func-type' binding='global-binding' visibility='default-visibility' is-defined='yes'/>
    <elf-symbol name='_ZN12wxPGProperty5EmptyEv' version='WXU_3.2' is-default-version='yes' type='func-type' binding='global-binding' visibility='default-visibility' is-defined='yes'/>
    <elf-symbol name='_ZN12wxPGProperty6DoHideEbi' version='WXU_3.2' is-default-version='yes' type='func-type' binding='global-binding' visibility='default-visibility' is-defined='yes'/>
    <elf-symbol name='_ZN12wxPGProperty6EnableEb' version='WXU_3.2' is-default-version='yes' type='func-type' binding='global-binding' visibility='default-visibility' is-defined='yes'/>
    <elf-symbol name='_ZN12wxPGProperty7OnEventEP14wxPropertyGridP8wxWindowR7wxEvent' version='WXU_3.2' is-default-version='yes' type='func-type' binding='global-binding' visibility='default-visibility' is-defined='yes'/>
    <elf-symbol name='_ZN12wxPGProperty7SetCellEiRK8wxPGCell' version='WXU_3.2' is-default-version='yes' type='func-type' binding='global-binding' visibility='default-visibility' is-defined='yes'/>
    <elf-symbol name='_ZN12wxPGProperty7SetNameERK8wxString' version='WXU_3.2' is-default-version='yes' type='func-type' binding='global-binding' visibility='default-visibility' is-defined='yes'/>
    <elf-symbol name='_ZN12wxPGProperty8DoEnableEb' version='WXU_3.2' is-default-version='yes' type='func-type' binding='global-binding' visibility='default-visibility' is-defined='yes'/>
    <elf-symbol name='_ZN12wxPGProperty8SetLabelERK8wxString' version='WXU_3.2' is-default-version='yes' type='func-type' binding='global-binding' visibility='default-visibility' is-defined='yes'/>
    <elf-symbol name='_ZN12wxPGProperty8SetValueE9wxVariantPS0_i' version='WXU_3.2' is-default-version='yes' type='func-type' binding='global-binding' visibility='default-visibility' is-defined='yes'/>
    <elf-symbol name='_ZN12wxPGProperty9SetEditorERK8wxString' version='WXU_3.2' is-default-version='yes' type='func-type' binding='global-binding' visibility='default-visibility' is-defined='yes'/>
    <elf-symbol name='_ZN12wxPGPropertyC1ERK8wxStringS2_' version='WXU_3.2' is-default-version='yes' type='func-type' binding='global-binding' visibility='default-visibility' is-defined='yes'/>
    <elf-symbol name='_ZN12wxPGPropertyC1Ev' version='WXU_3.2' is-default-version='yes' type='func-type' binding='global-binding' visibility='default-visibility' is-defined='yes'/>
    <elf-symbol name='_ZN12wxPGPropertyC2ERK8wxStringS2_' version='WXU_3.2' is-default-version='yes' type='func-type' binding='global-binding' visibility='default-visibility' alias='_ZN12wxPGPropertyC1ERK8wxStringS2_@@WXU_3.2' is-defined='yes'/>
    <elf-symbol name='_ZN12wxPGPropertyC2Ev' version='WXU_3.2' is-default-version='yes' type='func-type' binding='global-binding' visibility='default-visibility' alias='_ZN12wxPGPropertyC1Ev@@WXU_3.2' is-defined='yes'/>
    <elf-symbol name='_ZN12wxPGPropertyD0Ev' version='WXU_3.2' is-default-version='yes' type='func-type' binding='global-binding' visibility='default-visibility' is-defined='yes'/>
    <elf-symbol name='_ZN12wxPGPropertyD1Ev' version='WXU_3.2' is-default-version='yes' type='func-type' binding='global-binding' visibility='default-visibility' alias='_ZN12wxPGPropertyD2Ev@@WXU_3.2' is-defined='yes'/>
    <elf-symbol name='_ZN12wxPGPropertyD2Ev' version='WXU_3.2' is-default-version='yes' type='func-type' binding='global-binding' visibility='default-visibility' is-defined='yes'/>
    <elf-symbol name='_ZN13wxDirProperty14DoSetAttributeERK8wxStringR9wxVariant' version='WXU_3.2' is-default-version='yes' type='func-type' binding='global-binding' visibility='default-visibility' is-defined='yes'/>
    <elf-symbol name='_ZN13wxDirProperty14wxCreateObjectEv' version='WXU_3.2' is-default-version='yes' type='func-type' binding='global-binding' visibility='default-visibility' is-defined='yes'/>
    <elf-symbol name='_ZN13wxDirProperty19DisplayEditorDialogEP14wxPropertyGridR9wxVariant' version='WXU_3.2' is-default-version='yes' type='func-type' binding='global-binding' visibility='default-visibility' is-defined='yes'/>
    <elf-symbol name='_ZN13wxDirPropertyC1ERK8wxStringS2_S2_' version='WXU_3.2' is-default-version='yes' type='func-type' binding='global-binding' visibility='default-visibility' is-defined='yes'/>
    <elf-symbol name='_ZN13wxDirPropertyC2ERK8wxStringS2_S2_' version='WXU_3.2' is-default-version='yes' type='func-type' binding='global-binding' visibility='default-visibility' alias='_ZN13wxDirPropertyC1ERK8wxStringS2_S2_@@WXU_3.2' is-defined='yes'/>
    <elf-symbol name='_ZN13wxDirPropertyD0Ev' version='WXU_3.2' is-default-version='yes' type='func-type' binding='global-binding' visibility='default-visibility' is-defined='yes'/>
    <elf-symbol name='_ZN13wxDirPropertyD1Ev' version='WXU_3.2' is-default-version='yes' type='func-type' binding='global-binding' visibility='default-visibility' is-defined='yes'/>
    <elf-symbol name='_ZN13wxDirPropertyD2Ev' version='WXU_3.2' is-default-version='yes' type='func-type' binding='global-binding' visibility='default-visibility' alias='_ZN13wxDirPropertyD1Ev@@WXU_3.2' is-defined='yes'/>
    <elf-symbol name='_ZN13wxIntProperty12DoValidationEPK17wxNumericPropertyR16wxLongLongNativeP18wxPGValidationInfoi' version='WXU_3.2' is-default-version='yes' type='func-type' binding='global-binding' visibility='default-visibility' is-defined='yes'/>
    <elf-symbol name='_ZN13wxIntProperty12DoValidationEPK17wxNumericPropertyRlP18wxPGValidationInfoi' version='WXU_3.2' is-default-version='yes' type='func-type' binding='global-binding' visibility='default-visibility' is-defined='yes'/>
    <elf-symbol name='_ZN13wxIntProperty12DoValidationEPK17wxNumericPropertyRxP18wxPGValidationInfoi' version='WXU_3.2' is-default-version='yes' type='func-type' binding='global-binding' visibility='default-visibility' is-defined='yes'/>
    <elf-symbol name='_ZN13wxIntProperty14wxCreateObjectEv' version='WXU_3.2' is-default-version='yes' type='func-type' binding='global-binding' visibility='default-visibility' is-defined='yes'/>
    <elf-symbol name='_ZN13wxIntProperty17GetClassValidatorEv' version='WXU_3.2' is-default-version='yes' type='func-type' binding='global-binding' visibility='default-visibility' is-defined='yes'/>
    <elf-symbol name='_ZN13wxIntPropertyC1ERK8wxStringS2_RK16wxLongLongNative' version='WXU_3.2' is-default-version='yes' type='func-type' binding='global-binding' visibility='default-visibility' is-defined='yes'/>
    <elf-symbol name='_ZN13wxIntPropertyC1ERK8wxStringS2_l' version='WXU_3.2' is-default-version='yes' type='func-type' binding='global-binding' visibility='default-visibility' is-defined='yes'/>
    <elf-symbol name='_ZN13wxIntPropertyC2ERK8wxStringS2_RK16wxLongLongNative' version='WXU_3.2' is-default-version='yes' type='func-type' binding='global-binding' visibility='default-visibility' alias='_ZN13wxIntPropertyC1ERK8wxStringS2_RK16wxLongLongNative@@WXU_3.2' is-defined='yes'/>
    <elf-symbol name='_ZN13wxIntPropertyC2ERK8wxStringS2_l' version='WXU_3.2' is-default-version='yes' type='func-type' binding='global-binding' visibility='default-visibility' alias='_ZN13wxIntPropertyC1ERK8wxStringS2_l@@WXU_3.2' is-defined='yes'/>
    <elf-symbol name='_ZN13wxIntPropertyD0Ev' version='WXU_3.2' is-default-version='yes' type='func-type' binding='global-binding' visibility='default-visibility' is-defined='yes'/>
    <elf-symbol name='_ZN13wxIntPropertyD1Ev' version='WXU_3.2' is-default-version='yes' type='func-type' binding='global-binding' visibility='default-visibility' is-defined='yes'/>
    <elf-symbol name='_ZN13wxIntPropertyD2Ev' version='WXU_3.2' is-default-version='yes' type='func-type' binding='global-binding' visibility='default-visibility' alias='_ZN13wxIntPropertyD1Ev@@WXU_3.2' is-defined='yes'/>
    <elf-symbol name='_ZN14wxBoolProperty14DoSetAttributeERK8wxStringR9wxVariant' version='WXU_3.2' is-default-version='yes' type='func-type' binding='global-binding' visibility='default-visibility' is-defined='yes'/>
    <elf-symbol name='_ZN14wxBoolProperty14wxCreateObjectEv' version='WXU_3.2' is-default-version='yes' type='func-type' binding='global-binding' visibility='default-visibility' is-defined='yes'/>
    <elf-symbol name='_ZN14wxBoolPropertyC1ERK8wxStringS2_b' version='WXU_3.2' is-default-version='yes' type='func-type' binding='global-binding' visibility='default-visibility' is-defined='yes'/>
    <elf-symbol name='_ZN14wxBoolPropertyC2ERK8wxStringS2_b' version='WXU_3.2' is-default-version='yes' type='func-type' binding='global-binding' visibility='default-visibility' alias='_ZN14wxBoolPropertyC1ERK8wxStringS2_b@@WXU_3.2' is-defined='yes'/>
    <elf-symbol name='_ZN14wxBoolPropertyD0Ev' version='WXU_3.2' is-default-version='yes' type='func-type' binding='global-binding' visibility='default-visibility' is-defined='yes'/>
    <elf-symbol name='_ZN14wxBoolPropertyD1Ev' version='WXU_3.2' is-default-version='yes' type='func-type' binding='global-binding' visibility='default-visibility' is-defined='yes'/>
    <elf-symbol name='_ZN14wxBoolPropertyD2Ev' version='WXU_3.2' is-default-version='yes' type='func-type' binding='global-binding' visibility='default-visibility' alias='_ZN14wxBoolPropertyD1Ev@@WXU_3.2' is-defined='yes'/>
    <elf-symbol name='_ZN14wxDateProperty10OnSetValueEv' version='WXU_3.2' is-default-version='yes' type='func-type' binding='global-binding' visibility='default-visibility' is-defined='yes'/>
    <elf-symbol name='_ZN14wxDateProperty14DoSetAttributeERK8wxStringR9wxVariant' version='WXU_3.2' is-default-version='yes' type='func-type' binding='global-binding' visibility='default-visibility' is-defined='yes'/>
    <elf-symbol name='_ZN14wxDateProperty14wxCreateObjectEv' version='WXU_3.2' is-default-version='yes' type='func-type' binding='global-binding' visibility='default-visibility' is-defined='yes'/>
    <elf-symbol name='_ZN14wxDateProperty26DetermineDefaultDateFormatEb' version='WXU_3.2' is-default-version='yes' type='func-type' binding='global-binding' visibility='default-visibility' is-defined='yes'/>
    <elf-symbol name='_ZN14wxDatePropertyC1ERK8wxStringS2_RK10wxDateTime' version='WXU_3.2' is-default-version='yes' type='func-type' binding='global-binding' visibility='default-visibility' is-defined='yes'/>
    <elf-symbol name='_ZN14wxDatePropertyC2ERK8wxStringS2_RK10wxDateTime' version='WXU_3.2' is-default-version='yes' type='func-type' binding='global-binding' visibility='default-visibility' alias='_ZN14wxDatePropertyC1ERK8wxStringS2_RK10wxDateTime@@WXU_3.2' is-defined='yes'/>
    <elf-symbol name='_ZN14wxDatePropertyD0Ev' version='WXU_3.2' is-default-version='yes' type='func-type' binding='global-binding' visibility='default-visibility' is-defined='yes'/>
    <elf-symbol name='_ZN14wxDatePropertyD1Ev' version='WXU_3.2' is-default-version='yes' type='func-type' binding='global-binding' visibility='default-visibility' is-defined='yes'/>
    <elf-symbol name='_ZN14wxDatePropertyD2Ev' version='WXU_3.2' is-default-version='yes' type='func-type' binding='global-binding' visibility='default-visibility' alias='_ZN14wxDatePropertyD1Ev@@WXU_3.2' is-defined='yes'/>
    <elf-symbol name='_ZN14wxEnumProperty10OnSetValueEv' version='WXU_3.2' is-default-version='yes' type='func-type' binding='global-binding' visibility='default-visibility' is-defined='yes'/>
    <elf-symbol name='_ZN14wxEnumProperty14wxCreateObjectEv' version='WXU_3.2' is-default-version='yes' type='func-type' binding='global-binding' visibility='default-visibility' is-defined='yes'/>
    <elf-symbol name='_ZN14wxEnumProperty8SetIndexEi' version='WXU_3.2' is-default-version='yes' type='func-type' binding='global-binding' visibility='default-visibility' is-defined='yes'/>
    <elf-symbol name='_ZN14wxEnumPropertyC1ERK8wxStringS2_PKPKcPKlP11wxPGChoicesi' version='WXU_3.2' is-default-version='yes' type='func-type' binding='global-binding' visibility='default-visibility' is-defined='yes'/>
    <elf-symbol name='_ZN14wxEnumPropertyC1ERK8wxStringS2_PKPKwPKli' version='WXU_3.2' is-default-version='yes' type='func-type' binding='global-binding' visibility='default-visibility' is-defined='yes'/>
    <elf-symbol name='_ZN14wxEnumPropertyC1ERK8wxStringS2_R11wxPGChoicesi' version='WXU_3.2' is-default-version='yes' type='func-type' binding='global-binding' visibility='default-visibility' is-defined='yes'/>
    <elf-symbol name='_ZN14wxEnumPropertyC1ERK8wxStringS2_RK13wxArrayStringRK10wxArrayInti' version='WXU_3.2' is-default-version='yes' type='func-type' binding='global-binding' visibility='default-visibility' is-defined='yes'/>
    <elf-symbol name='_ZN14wxEnumPropertyC2ERK8wxStringS2_PKPKcPKlP11wxPGChoicesi' version='WXU_3.2' is-default-version='yes' type='func-type' binding='global-binding' visibility='default-visibility' alias='_ZN14wxEnumPropertyC1ERK8wxStringS2_PKPKcPKlP11wxPGChoicesi@@WXU_3.2' is-defined='yes'/>
    <elf-symbol name='_ZN14wxEnumPropertyC2ERK8wxStringS2_PKPKwPKli' version='WXU_3.2' is-default-version='yes' type='func-type' binding='global-binding' visibility='default-visibility' alias='_ZN14wxEnumPropertyC1ERK8wxStringS2_PKPKwPKli@@WXU_3.2' is-defined='yes'/>
    <elf-symbol name='_ZN14wxEnumPropertyC2ERK8wxStringS2_R11wxPGChoicesi' version='WXU_3.2' is-default-version='yes' type='func-type' binding='global-binding' visibility='default-visibility' alias='_ZN14wxEnumPropertyC1ERK8wxStringS2_R11wxPGChoicesi@@WXU_3.2' is-defined='yes'/>
    <elf-symbol name='_ZN14wxEnumPropertyC2ERK8wxStringS2_RK13wxArrayStringRK10wxArrayInti' version='WXU_3.2' is-default-version='yes' type='func-type' binding='global-binding' visibility='default-visibility' alias='_ZN14wxEnumPropertyC1ERK8wxStringS2_RK13wxArrayStringRK10wxArrayInti@@WXU_3.2' is-defined='yes'/>
    <elf-symbol name='_ZN14wxEnumPropertyD0Ev' version='WXU_3.2' is-default-version='yes' type='func-type' binding='global-binding' visibility='default-visibility' is-defined='yes'/>
    <elf-symbol name='_ZN14wxEnumPropertyD1Ev' version='WXU_3.2' is-default-version='yes' type='func-type' binding='global-binding' visibility='default-visibility' alias='_ZN14wxEnumPropertyD2Ev@@WXU_3.2' is-defined='yes'/>
    <elf-symbol name='_ZN14wxEnumPropertyD2Ev' version='WXU_3.2' is-default-version='yes' type='func-type' binding='global-binding' visibility='default-visibility' is-defined='yes'/>
    <elf-symbol name='_ZN14wxFileProperty10OnSetValueEv' version='WXU_3.2' is-default-version='yes' type='func-type' binding='global-binding' visibility='default-visibility' is-defined='yes'/>
    <elf-symbol name='_ZN14wxFileProperty14DoSetAttributeERK8wxStringR9wxVariant' version='WXU_3.2' is-default-version='yes' type='func-type' binding='global-binding' visibility='default-visibility' is-defined='yes'/>
    <elf-symbol name='_ZN14wxFileProperty14wxCreateObjectEv' version='WXU_3.2' is-default-version='yes' type='func-type' binding='global-binding' visibility='default-visibility' is-defined='yes'/>
    <elf-symbol name='_ZN14wxFileProperty17GetClassValidatorEv' version='WXU_3.2' is-default-version='yes' type='func-type' binding='global-binding' visibility='default-visibility' is-defined='yes'/>
    <elf-symbol name='_ZN14wxFileProperty19DisplayEditorDialogEP14wxPropertyGridR9wxVariant' version='WXU_3.2' is-default-version='yes' type='func-type' binding='global-binding' visibility='default-visibility' is-defined='yes'/>
    <elf-symbol name='_ZN14wxFilePropertyC1ERK8wxStringS2_S2_' version='WXU_3.2' is-default-version='yes' type='func-type' binding='global-binding' visibility='default-visibility' is-defined='yes'/>
    <elf-symbol name='_ZN14wxFilePropertyC2ERK8wxStringS2_S2_' version='WXU_3.2' is-default-version='yes' type='func-type' binding='global-binding' visibility='default-visibility' alias='_ZN14wxFilePropertyC1ERK8wxStringS2_S2_@@WXU_3.2' is-defined='yes'/>
    <elf-symbol name='_ZN14wxFilePropertyD0Ev' version='WXU_3.2' is-default-version='yes' type='func-type' binding='global-binding' visibility='default-visibility' is-defined='yes'/>
    <elf-symbol name='_ZN14wxFilePropertyD1Ev' version='WXU_3.2' is-default-version='yes' type='func-type' binding='global-binding' visibility='default-visibility' alias='_ZN14wxFilePropertyD2Ev@@WXU_3.2' is-defined='yes'/>
    <elf-symbol name='_ZN14wxFilePropertyD2Ev' version='WXU_3.2' is-default-version='yes' type='func-type' binding='global-binding' visibility='default-visibility' is-defined='yes'/>
    <elf-symbol name='_ZN14wxFontProperty10OnSetValueEv' version='WXU_3.2' is-default-version='yes' type='func-type' binding='global-binding' visibility='default-visibility' is-defined='yes'/>
    <elf-symbol name='_ZN14wxFontProperty14wxCreateObjectEv' version='WXU_3.2' is-default-version='yes' type='func-type' binding='global-binding' visibility='default-visibility' is-defined='yes'/>
    <elf-symbol name='_ZN14wxFontProperty15RefreshChildrenEv' version='WXU_3.2' is-default-version='yes' type='func-type' binding='global-binding' visibility='default-visibility' is-defined='yes'/>
    <elf-symbol name='_ZN14wxFontProperty19DisplayEditorDialogEP14wxPropertyGridR9wxVariant' version='WXU_3.2' is-default-version='yes' type='func-type' binding='global-binding' visibility='default-visibility' is-defined='yes'/>
    <elf-symbol name='_ZN14wxFontPropertyC1ERK8wxStringS2_RK6wxFont' version='WXU_3.2' is-default-version='yes' type='func-type' binding='global-binding' visibility='default-visibility' is-defined='yes'/>
    <elf-symbol name='_ZN14wxFontPropertyC2ERK8wxStringS2_RK6wxFont' version='WXU_3.2' is-default-version='yes' type='func-type' binding='global-binding' visibility='default-visibility' alias='_ZN14wxFontPropertyC1ERK8wxStringS2_RK6wxFont@@WXU_3.2' is-defined='yes'/>
    <elf-symbol name='_ZN14wxFontPropertyD0Ev' version='WXU_3.2' is-default-version='yes' type='func-type' binding='global-binding' visibility='default-visibility' is-defined='yes'/>
    <elf-symbol name='_ZN14wxFontPropertyD1Ev' version='WXU_3.2' is-default-version='yes' type='func-type' binding='global-binding' visibility='default-visibility' is-defined='yes'/>
    <elf-symbol name='_ZN14wxFontPropertyD2Ev' version='WXU_3.2' is-default-version='yes' type='func-type' binding='global-binding' visibility='default-visibility' alias='_ZN14wxFontPropertyD1Ev@@WXU_3.2' is-defined='yes'/>
    <elf-symbol name='_ZN14wxPropertyGrid10DoCollapseEP12wxPGPropertyb' version='WXU_3.2' is-default-version='yes' type='func-type' binding='global-binding' visibility='default-visibility' is-defined='yes'/>
    <elf-symbol name='_ZN14wxPropertyGrid10OnTLPCloseER12wxCloseEvent' version='WXU_3.2' is-default-version='yes' type='func-type' binding='global-binding' visibility='default-visibility' is-defined='yes'/>
    <elf-symbol name='_ZN14wxPropertyGrid11FreeEditorsEv' version='WXU_3.2' is-default-version='yes' type='func-type' binding='global-binding' visibility='default-visibility' is-defined='yes'/>
    <elf-symbol name='_ZN14wxPropertyGrid11OnMouseMoveER12wxMouseEvent' version='WXU_3.2' is-default-version='yes' type='func-type' binding='global-binding' visibility='default-visibility' is-defined='yes'/>
    <elf-symbol name='_ZN14wxPropertyGrid11SwitchStateEP23wxPropertyGridPageState' version='WXU_3.2' is-default-version='yes' type='func-type' binding='global-binding' visibility='default-visibility' is-defined='yes'/>
    <elf-symbol name='_ZN14wxPropertyGrid12GetStatusBarEv' version='WXU_3.2' is-default-version='yes' type='func-type' binding='global-binding' visibility='default-visibility' is-defined='yes'/>
    <elf-symbol name='_ZN14wxPropertyGrid12OnDPIChangedER17wxDPIChangedEvent' version='WXU_3.2' is-default-version='yes' type='func-type' binding='global-binding' visibility='default-visibility' is-defined='yes'/>
    <elf-symbol name='_ZN14wxPropertyGrid12OnFocusEventER12wxFocusEvent' version='WXU_3.2' is-default-version='yes' type='func-type' binding='global-binding' visibility='default-visibility' is-defined='yes'/>
    <elf-symbol name='_ZN14wxPropertyGrid12OnMouseClickER12wxMouseEvent' version='WXU_3.2' is-default-version='yes' type='func-type' binding='global-binding' visibility='default-visibility' is-defined='yes'/>
    <elf-symbol name='_ZN14wxPropertyGrid12OnMouseEntryER12wxMouseEvent' version='WXU_3.2' is-default-version='yes' type='func-type' binding='global-binding' visibility='default-visibility' is-defined='yes'/>
    <elf-symbol name='_ZN14wxPropertyGrid12ResetColoursEv' version='WXU_3.2' is-default-version='yes' type='func-type' binding='global-binding' visibility='default-visibility' is-defined='yes'/>
    <elf-symbol name='_ZN14wxPropertyGrid12ScrollWindowEiiPK6wxRect' version='WXU_3.2' is-default-version='yes' type='func-type' binding='global-binding' visibility='default-visibility' is-defined='yes'/>
    <elf-symbol name='_ZN14wxPropertyGrid13EnsureVisibleERK14wxPGPropArgCls' version='WXU_3.2' is-default-version='yes' type='func-type' binding='global-binding' visibility='default-visibility' is-defined='yes'/>
    <elf-symbol name='_ZN14wxPropertyGrid13HandleMouseUpEijR12wxMouseEvent' version='WXU_3.2' is-default-version='yes' type='func-type' binding='global-binding' visibility='default-visibility' is-defined='yes'/>
    <elf-symbol name='_ZN14wxPropertyGrid13IsSmallScreenEv' version='WXU_3.2' is-default-version='yes' type='func-type' binding='global-binding' visibility='default-visibility' is-defined='yes'/>
    <elf-symbol name='_ZN14wxPropertyGrid13OnMouseCommonER12wxMouseEventPiS2_' version='WXU_3.2' is-default-version='yes' type='func-type' binding='global-binding' visibility='default-visibility' is-defined='yes'/>
    <elf-symbol name='_ZN14wxPropertyGrid13OnScrollEventER16wxScrollWinEvent' version='WXU_3.2' is-default-version='yes' type='func-type' binding='global-binding' visibility='default-visibility' is-defined='yes'/>
    <elf-symbol name='_ZN14wxPropertyGrid13OnTLPChangingEP8wxWindow' version='WXU_3.2' is-default-version='yes' type='func-type' binding='global-binding' visibility='default-visibility' is-defined='yes'/>
    <elf-symbol name='_ZN14wxPropertyGrid13RefreshEditorEv' version='WXU_3.2' is-default-version='yes' type='func-type' binding='global-binding' visibility='default-visibility' is-defined='yes'/>
    <elf-symbol name='_ZN14wxPropertyGrid13RegainColoursEv' version='WXU_3.2' is-default-version='yes' type='func-type' binding='global-binding' visibility='default-visibility' is-defined='yes'/>
    <elf-symbol name='_ZN14wxPropertyGrid13RescaleBitmapERK8wxBitmapdd' version='WXU_3.2' is-default-version='yes' type='func-type' binding='global-binding' visibility='default-visibility' is-defined='yes'/>
    <elf-symbol name='_ZN14wxPropertyGrid13SetExtraStyleEl' version='WXU_3.2' is-default-version='yes' type='func-type' binding='global-binding' visibility='default-visibility' is-defined='yes'/>
    <elf-symbol name='_ZN14wxPropertyGrid13SetLineColourERK8wxColour' version='WXU_3.2' is-default-version='yes' type='func-type' binding='global-binding' visibility='default-visibility' is-defined='yes'/>
    <elf-symbol name='_ZN14wxPropertyGrid13SetScrollbarsEiiiiiib' version='WXU_3.2' is-default-version='yes' type='func-type' binding='global-binding' visibility='default-visibility' is-defined='yes'/>
    <elf-symbol name='_ZN14wxPropertyGrid13UnfocusEditorEv' version='WXU_3.2' is-default-version='yes' type='func-type' binding='global-binding' visibility='default-visibility' is-defined='yes'/>
    <elf-symbol name='_ZN14wxPropertyGrid14CenterSplitterEb' version='WXU_3.2' is-default-version='yes' type='func-type' binding='global-binding' visibility='default-visibility' is-defined='yes'/>
    <elf-symbol name='_ZN14wxPropertyGrid14DoEndLabelEditEbi' version='WXU_3.2' is-default-version='yes' type='func-type' binding='global-binding' visibility='default-visibility' is-defined='yes'/>
    <elf-symbol name='_ZN14wxPropertyGrid14DoHidePropertyEP12wxPGPropertybi' version='WXU_3.2' is-default-version='yes' type='func-type' binding='global-binding' visibility='default-visibility' is-defined='yes'/>
    <elf-symbol name='_ZN14wxPropertyGrid14DoSetSelectionERK17wxArrayPGPropertyi' version='WXU_3.2' is-default-version='yes' type='func-type' binding='global-binding' visibility='default-visibility' is-defined='yes'/>
    <elf-symbol name='_ZN14wxPropertyGrid14DoubleToStringER8wxStringdibPS0_' version='WXU_3.2' is-default-version='yes' type='func-type' binding='global-binding' visibility='default-visibility' is-defined='yes'/>
    <elf-symbol name='_ZN14wxPropertyGrid14HandleKeyEventER10wxKeyEventb' version='WXU_3.2' is-default-version='yes' type='func-type' binding='global-binding' visibility='default-visibility' is-defined='yes'/>
    <elf-symbol name='_ZN14wxPropertyGrid14OnChildKeyDownER10wxKeyEvent' version='WXU_3.2' is-default-version='yes' type='func-type' binding='global-binding' visibility='default-visibility' is-defined='yes'/>
    <elf-symbol name='_ZN14wxPropertyGrid14OnMouseUpChildER12wxMouseEvent' version='WXU_3.2' is-default-version='yes' type='func-type' binding='global-binding' visibility='default-visibility' is-defined='yes'/>
    <elf-symbol name='_ZN14wxPropertyGrid14SelectPropertyERK14wxPGPropArgClsb' version='WXU_3.2' is-default-version='yes' type='func-type' binding='global-binding' visibility='default-visibility' is-defined='yes'/>
    <elf-symbol name='_ZN14wxPropertyGrid14wxCreateObjectEv' version='WXU_3.2' is-default-version='yes' type='func-type' binding='global-binding' visibility='default-visibility' is-defined='yes'/>
    <elf-symbol name='_ZN14wxPropertyGrid15CustomSetCursorEib' version='WXU_3.2' is-default-version='yes' type='func-type' binding='global-binding' visibility='default-visibility' is-defined='yes'/>
    <elf-symbol name='_ZN14wxPropertyGrid15DoSelectAndEditEP12wxPGPropertyjj' version='WXU_3.2' is-default-version='yes' type='func-type' binding='global-binding' visibility='default-visibility' is-defined='yes'/>
    <elf-symbol name='_ZN14wxPropertyGrid15HandleMouseMoveEijR12wxMouseEvent' version='WXU_3.2' is-default-version='yes' type='func-type' binding='global-binding' visibility='default-visibility' is-defined='yes'/>
    <elf-symbol name='_ZN14wxPropertyGrid15OnCaptureChangeER26wxMouseCaptureChangedEvent' version='WXU_3.2' is-default-version='yes' type='func-type' binding='global-binding' visibility='default-visibility' is-defined='yes'/>
    <elf-symbol name='_ZN14wxPropertyGrid15RefreshPropertyEP12wxPGProperty' version='WXU_3.2' is-default-version='yes' type='func-type' binding='global-binding' visibility='default-visibility' is-defined='yes'/>
    <elf-symbol name='_ZN14wxPropertyGrid15SetMarginColourERK8wxColour' version='WXU_3.2' is-default-version='yes' type='func-type' binding='global-binding' visibility='default-visibility' is-defined='yes'/>
    <elf-symbol name='_ZN14wxPropertyGrid15SetVirtualWidthEi' version='WXU_3.2' is-default-version='yes' type='func-type' binding='global-binding' visibility='default-visibility' is-defined='yes'/>
    <elf-symbol name='_ZN14wxPropertyGrid16AddActionTriggerEiii' version='WXU_3.2' is-default-version='yes' type='func-type' binding='global-binding' visibility='default-visibility' is-defined='yes'/>
    <elf-symbol name='_ZN14wxPropertyGrid16DestroyEditorWndEP8wxWindow' version='WXU_3.2' is-default-version='yes' type='func-type' binding='global-binding' visibility='default-visibility' is-defined='yes'/>
    <elf-symbol name='_ZN14wxPropertyGrid16DoAddToSelectionEP12wxPGPropertyi' version='WXU_3.2' is-default-version='yes' type='func-type' binding='global-binding' visibility='default-visibility' is-defined='yes'/>
    <elf-symbol name='_ZN14wxPropertyGrid16DoBeginLabelEditEji' version='WXU_3.2' is-default-version='yes' type='func-type' binding='global-binding' visibility='default-visibility' is-defined='yes'/>
    <elf-symbol name='_ZN14wxPropertyGrid16DoEditorValidateEv' version='WXU_3.2' is-default-version='yes' type='func-type' binding='global-binding' visibility='default-visibility' is-defined='yes'/>
    <elf-symbol name='_ZN14wxPropertyGrid16DoSelectPropertyEP12wxPGPropertyj' version='WXU_3.2' is-default-version='yes' type='func-type' binding='global-binding' visibility='default-visibility' is-defined='yes'/>
    <elf-symbol name='_ZN14wxPropertyGrid16EnableCategoriesEb' version='WXU_3.2' is-default-version='yes' type='func-type' binding='global-binding' visibility='default-visibility' is-defined='yes'/>
    <elf-symbol name='_ZN14wxPropertyGrid16HandleMouseClickEijR12wxMouseEvent' version='WXU_3.2' is-default-version='yes' type='func-type' binding='global-binding' visibility='default-visibility' is-defined='yes'/>
    <elf-symbol name='_ZN14wxPropertyGrid16OnComboItemPaintEPK12wxPGComboBoxiP4wxDCR6wxRecti' version='WXU_3.2' is-default-version='yes' type='func-type' binding='global-binding' visibility='default-visibility' is-defined='yes'/>
    <elf-symbol name='_ZN14wxPropertyGrid16OnMouseMoveChildER12wxMouseEvent' version='WXU_3.2' is-default-version='yes' type='func-type' binding='global-binding' visibility='default-visibility' is-defined='yes'/>
    <elf-symbol name='_ZN14wxPropertyGrid16ResetColumnSizesEb' version='WXU_3.2' is-default-version='yes' type='func-type' binding='global-binding' visibility='default-visibility' is-defined='yes'/>
    <elf-symbol name='_ZN14wxPropertyGrid16SetFocusOnCanvasEv' version='WXU_3.2' is-default-version='yes' type='func-type' binding='global-binding' visibility='default-visibility' is-defined='yes'/>
    <elf-symbol name='_ZN14wxPropertyGrid17DoPropertyChangedEP12wxPGPropertyj' version='WXU_3.2' is-default-version='yes' type='func-type' binding='global-binding' visibility='default-visibility' is-defined='yes'/>
    <elf-symbol name='_ZN14wxPropertyGrid17FixPosForTextCtrlEP8wxWindowjRK7wxPoint' version='WXU_3.2' is-default-version='yes' type='func-type' binding='global-binding' visibility='default-visibility' is-defined='yes'/>
    <elf-symbol name='_ZN14wxPropertyGrid17HandleFocusChangeEP8wxWindow' version='WXU_3.2' is-default-version='yes' type='func-type' binding='global-binding' visibility='default-visibility' is-defined='yes'/>
    <elf-symbol name='_ZN14wxPropertyGrid17OnChildFocusEventER17wxChildFocusEvent' version='WXU_3.2' is-default-version='yes' type='func-type' binding='global-binding' visibility='default-visibility' is-defined='yes'/>
    <elf-symbol name='_ZN14wxPropertyGrid17OnMouseClickChildER12wxMouseEvent' version='WXU_3.2' is-default-version='yes' type='func-type' binding='global-binding' visibility='default-visibility' is-defined='yes'/>
    <elf-symbol name='_ZN14wxPropertyGrid17OnMouseRightClickER12wxMouseEvent' version='WXU_3.2' is-default-version='yes' type='func-type' binding='global-binding' visibility='default-visibility' is-defined='yes'/>
    <elf-symbol name='_ZN14wxPropertyGrid17PerformValidationEP12wxPGPropertyR9wxVarianti' version='WXU_3.2' is-default-version='yes' type='func-type' binding='global-binding' visibility='default-visibility' is-defined='yes'/>
    <elf-symbol name='_ZN14wxPropertyGrid17SetCellTextColourERK8wxColour' version='WXU_3.2' is-default-version='yes' type='func-type' binding='global-binding' visibility='default-visibility' is-defined='yes'/>
    <elf-symbol name='_ZN14wxPropertyGrid18AutoGetTranslationEb' version='WXU_3.2' is-default-version='yes' type='func-type' binding='global-binding' visibility='default-visibility' is-defined='yes'/>
    <elf-symbol name='_ZN14wxPropertyGrid18MakeColumnEditableEjb' version='WXU_3.2' is-default-version='yes' type='func-type' binding='global-binding' visibility='default-visibility' is-defined='yes'/>
    <elf-symbol name='_ZN14wxPropertyGrid18OnMouseChildCommonER12wxMouseEventPiS2_' version='WXU_3.2' is-default-version='yes' type='func-type' binding='global-binding' visibility='default-visibility' is-defined='yes'/>
    <elf-symbol name='_ZN14wxPropertyGrid18OnMouseDoubleClickER12wxMouseEvent' version='WXU_3.2' is-default-version='yes' type='func-type' binding='global-binding' visibility='default-visibility' is-defined='yes'/>
    <elf-symbol name='_ZN14wxPropertyGrid18OnSysColourChangedER23wxSysColourChangedEvent' version='WXU_3.2' is-default-version='yes' type='func-type' binding='global-binding' visibility='default-visibility' is-defined='yes'/>
    <elf-symbol name='_ZN14wxPropertyGrid18SetWindowStyleFlagEl' version='WXU_3.2' is-default-version='yes' type='func-type' binding='global-binding' visibility='default-visibility' is-defined='yes'/>
    <elf-symbol name='_ZN14wxPropertyGrid19ChangePropertyValueERK14wxPGPropArgCls9wxVariant' version='WXU_3.2' is-default-version='yes' type='func-type' binding='global-binding' visibility='default-visibility' is-defined='yes'/>
    <elf-symbol name='_ZN14wxPropertyGrid19ClearActionTriggersEi' version='WXU_3.2' is-default-version='yes' type='func-type' binding='global-binding' visibility='default-visibility' is-defined='yes'/>
    <elf-symbol name='_ZN14wxPropertyGrid19DoHidePropertyErrorEP12wxPGProperty' version='WXU_3.2' is-default-version='yes' type='func-type' binding='global-binding' visibility='default-visibility' is-defined='yes'/>
    <elf-symbol name='_ZN14wxPropertyGrid19DoShowPropertyErrorEP12wxPGPropertyRK8wxString' version='WXU_3.2' is-default-version='yes' type='func-type' binding='global-binding' visibility='default-visibility' is-defined='yes'/>
    <elf-symbol name='_ZN14wxPropertyGrid19DrawItemAndChildrenEP12wxPGProperty' version='WXU_3.2' is-default-version='yes' type='func-type' binding='global-binding' visibility='default-visibility' is-defined='yes'/>
    <elf-symbol name='_ZN14wxPropertyGrid19OnValidationFailureEP12wxPGPropertyR9wxVariant' version='WXU_3.2' is-default-version='yes' type='func-type' binding='global-binding' visibility='default-visibility' is-defined='yes'/>
    <elf-symbol name='_ZN14wxPropertyGrid19SetEditorAppearanceERK8wxPGCellb' version='WXU_3.2' is-default-version='yes' type='func-type' binding='global-binding' visibility='default-visibility' is-defined='yes'/>
    <elf-symbol name='_ZN14wxPropertyGrid19SetEmptySpaceColourERK8wxColour' version='WXU_3.2' is-default-version='yes' type='func-type' binding='global-binding' visibility='default-visibility' is-defined='yes'/>
    <elf-symbol name='_ZN14wxPropertyGrid20ButtonTriggerKeyTestEiR10wxKeyEvent' version='WXU_3.2' is-default-version='yes' type='func-type' binding='global-binding' visibility='default-visibility' is-defined='yes'/>
    <elf-symbol name='_ZN14wxPropertyGrid20DeletePendingObjectsEv' version='WXU_3.2' is-default-version='yes' type='func-type' binding='global-binding' visibility='default-visibility' is-defined='yes'/>
    <elf-symbol name='_ZN14wxPropertyGrid20GenerateEditorButtonERK7wxPointRK6wxSize' version='WXU_3.2' is-default-version='yes' type='func-type' binding='global-binding' visibility='default-visibility' is-defined='yes'/>
    <elf-symbol name='_ZN14wxPropertyGrid20SetCaptionTextColourERK8wxColour' version='WXU_3.2' is-default-version='yes' type='func-type' binding='global-binding' visibility='default-visibility' is-defined='yes'/>
    <elf-symbol name='_ZN14wxPropertyGrid21CreateEscapeSequencesER8wxStringRKS0_' version='WXU_3.2' is-default-version='yes' type='func-type' binding='global-binding' visibility='default-visibility' is-defined='yes'/>
    <elf-symbol name='_ZN14wxPropertyGrid21DoOnValidationFailureEP12wxPGPropertyR9wxVariant' version='WXU_3.2' is-default-version='yes' type='func-type' binding='global-binding' visibility='default-visibility' is-defined='yes'/>
    <elf-symbol name='_ZN14wxPropertyGrid21DoRegisterEditorClassEP10wxPGEditorRK8wxStringb' version='WXU_3.2' is-default-version='yes' type='func-type' binding='global-binding' visibility='default-visibility' is-defined='yes'/>
    <elf-symbol name='_ZN14wxPropertyGrid21DoRemoveFromSelectionEP12wxPGPropertyi' version='WXU_3.2' is-default-version='yes' type='func-type' binding='global-binding' visibility='default-visibility' is-defined='yes'/>
    <elf-symbol name='_ZN14wxPropertyGrid21DoSetSplitterPositionEiii' version='WXU_3.2' is-default-version='yes' type='func-type' binding='global-binding' visibility='default-visibility' is-defined='yes'/>
    <elf-symbol name='_ZN14wxPropertyGrid21ExpandEscapeSequencesER8wxStringRKS0_' version='WXU_3.2' is-default-version='yes' type='func-type' binding='global-binding' visibility='default-visibility' is-defined='yes'/>
    <elf-symbol name='_ZN14wxPropertyGrid21HandleMouseRightClickEijR12wxMouseEvent' version='WXU_3.2' is-default-version='yes' type='func-type' binding='global-binding' visibility='default-visibility' is-defined='yes'/>
    <elf-symbol name='_ZN14wxPropertyGrid21OnLabelEditorKeyPressER10wxKeyEvent' version='WXU_3.2' is-default-version='yes' type='func-type' binding='global-binding' visibility='default-visibility' is-defined='yes'/>
    <elf-symbol name='_ZN14wxPropertyGrid21SetCurControlBoldFontEv' version='WXU_3.2' is-default-version='yes' type='func-type' binding='global-binding' visibility='default-visibility' is-defined='yes'/>
    <elf-symbol name='_ZN14wxPropertyGrid22GenerateEditorTextCtrlERK7wxPointRK6wxSizeRK8wxStringP8wxWindowiij' version='WXU_3.2' is-default-version='yes' type='func-type' binding='global-binding' visibility='default-visibility' is-defined='yes'/>
    <elf-symbol name='_ZN14wxPropertyGrid22HandleMouseDoubleClickEijR12wxMouseEvent' version='WXU_3.2' is-default-version='yes' type='func-type' binding='global-binding' visibility='default-visibility' is-defined='yes'/>
    <elf-symbol name='_ZN14wxPropertyGrid22OnMouseRightClickChildER12wxMouseEvent' version='WXU_3.2' is-default-version='yes' type='func-type' binding='global-binding' visibility='default-visibility' is-defined='yes'/>
    <elf-symbol name='_ZN14wxPropertyGrid22PrepareAfterItemsAddedEv' version='WXU_3.2' is-default-version='yes' type='func-type' binding='global-binding' visibility='default-visibility' is-defined='yes'/>
    <elf-symbol name='_ZN14wxPropertyGrid22RecalculateVirtualSizeEi' version='WXU_3.2' is-default-version='yes' type='func-type' binding='global-binding' visibility='default-visibility' is-defined='yes'/>
    <elf-symbol name='_ZN14wxPropertyGrid22RegisterDefaultEditorsEv' version='WXU_3.2' is-default-version='yes' type='func-type' binding='global-binding' visibility='default-visibility' is-defined='yes'/>
    <elf-symbol name='_ZN14wxPropertyGrid22SetSelectionTextColourERK8wxColour' version='WXU_3.2' is-default-version='yes' type='func-type' binding='global-binding' visibility='default-visibility' is-defined='yes'/>
    <elf-symbol name='_ZN14wxPropertyGrid23CommitChangesFromEditorEj' version='WXU_3.2' is-default-version='yes' type='func-type' binding='global-binding' visibility='default-visibility' is-defined='yes'/>
    <elf-symbol name='_ZN14wxPropertyGrid23CorrectEditorWidgetPosYEv' version='WXU_3.2' is-default-version='yes' type='func-type' binding='global-binding' visibility='default-visibility' is-defined='yes'/>
    <elf-symbol name='_ZN14wxPropertyGrid23DrawItemAndValueRelatedEP12wxPGProperty' version='WXU_3.2' is-default-version='yes' type='func-type' binding='global-binding' visibility='default-visibility' is-defined='yes'/>
    <elf-symbol name='_ZN14wxPropertyGrid23HandleCustomEditorEventER7wxEvent' version='WXU_3.2' is-default-version='yes' type='func-type' binding='global-binding' visibility='default-visibility' is-defined='yes'/>
    <elf-symbol name='_ZN14wxPropertyGrid23OnLabelEditorEnterPressER14wxCommandEvent' version='WXU_3.2' is-default-version='yes' type='func-type' binding='global-binding' visibility='default-visibility' is-defined='yes'/>
    <elf-symbol name='_ZN14wxPropertyGrid23SetCellBackgroundColourERK8wxColour' version='WXU_3.2' is-default-version='yes' type='func-type' binding='global-binding' visibility='default-visibility' is-defined='yes'/>
    <elf-symbol name='_ZN14wxPropertyGrid23SetupChildEventHandlingEP8wxWindow' version='WXU_3.2' is-default-version='yes' type='func-type' binding='global-binding' visibility='default-visibility' is-defined='yes'/>
    <elf-symbol name='_ZN14wxPropertyGrid24CorrectEditorWidgetSizeXEv' version='WXU_3.2' is-default-version='yes' type='func-type' binding='global-binding' visibility='default-visibility' is-defined='yes'/>
    <elf-symbol name='_ZN14wxPropertyGrid25SetCellDisabledTextColourERK8wxColour' version='WXU_3.2' is-default-version='yes' type='func-type' binding='global-binding' visibility='default-visibility' is-defined='yes'/>
    <elf-symbol name='_ZN14wxPropertyGrid26DoOnValidationFailureResetEP12wxPGProperty' version='WXU_3.2' is-default-version='yes' type='func-type' binding='global-binding' visibility='default-visibility' is-defined='yes'/>
    <elf-symbol name='_ZN14wxPropertyGrid26SetCaptionBackgroundColourERK8wxColour' version='WXU_3.2' is-default-version='yes' type='func-type' binding='global-binding' visibility='default-visibility' is-defined='yes'/>
    <elf-symbol name='_ZN14wxPropertyGrid27CalculateFontAndBitmapStuffEi' version='WXU_3.2' is-default-version='yes' type='func-type' binding='global-binding' visibility='default-visibility' is-defined='yes'/>
    <elf-symbol name='_ZN14wxPropertyGrid27GetGoodEditorDialogPositionEP12wxPGPropertyRK6wxSize' version='WXU_3.2' is-default-version='yes' type='func-type' binding='global-binding' visibility='default-visibility' is-defined='yes'/>
    <elf-symbol name='_ZN14wxPropertyGrid27GetUncommittedPropertyValueEv' version='WXU_3.2' is-default-version='yes' type='func-type' binding='global-binding' visibility='default-visibility' is-defined='yes'/>
    <elf-symbol name='_ZN14wxPropertyGrid28AddToSelectionFromInputEventEP12wxPGPropertyjP12wxMouseEventi' version='WXU_3.2' is-default-version='yes' type='func-type' binding='global-binding' visibility='default-visibility' is-defined='yes'/>
    <elf-symbol name='_ZN14wxPropertyGrid28SetSelectionBackgroundColourERK8wxColour' version='WXU_3.2' is-default-version='yes' type='func-type' binding='global-binding' visibility='default-visibility' is-defined='yes'/>
    <elf-symbol name='_ZN14wxPropertyGrid31GenerateEditorTextCtrlAndButtonERK7wxPointRK6wxSizePP8wxWindowiP12wxPGProperty' version='WXU_3.2' is-default-version='yes' type='func-type' binding='global-binding' visibility='default-visibility' is-defined='yes'/>
    <elf-symbol name='_ZN14wxPropertyGrid5ClearEv' version='WXU_3.2' is-default-version='yes' type='func-type' binding='global-binding' visibility='default-visibility' is-defined='yes'/>
    <elf-symbol name='_ZN14wxPropertyGrid5Init1Ev' version='WXU_3.2' is-default-version='yes' type='func-type' binding='global-binding' visibility='default-visibility' is-defined='yes'/>
    <elf-symbol name='_ZN14wxPropertyGrid5Init2Ev' version='WXU_3.2' is-default-version='yes' type='func-type' binding='global-binding' visibility='default-visibility' is-defined='yes'/>
    <elf-symbol name='_ZN14wxPropertyGrid5OnKeyER10wxKeyEvent' version='WXU_3.2' is-default-version='yes' type='func-type' binding='global-binding' visibility='default-visibility' is-defined='yes'/>
    <elf-symbol name='_ZN14wxPropertyGrid6CreateEP8wxWindowiRK7wxPointRK6wxSizelRK8wxString' version='WXU_3.2' is-default-version='yes' type='func-type' binding='global-binding' visibility='default-visibility' is-defined='yes'/>
    <elf-symbol name='_ZN14wxPropertyGrid6DoThawEv' version='WXU_3.2' is-default-version='yes' type='func-type' binding='global-binding' visibility='default-visibility' is-defined='yes'/>
    <elf-symbol name='_ZN14wxPropertyGrid6OnIdleER11wxIdleEvent' version='WXU_3.2' is-default-version='yes' type='func-type' binding='global-binding' visibility='default-visibility' is-defined='yes'/>
    <elf-symbol name='_ZN14wxPropertyGrid7DestroyEv' version='WXU_3.2' is-default-version='yes' type='func-type' binding='global-binding' visibility='default-visibility' is-defined='yes'/>
    <elf-symbol name='_ZN14wxPropertyGrid7OnPaintER12wxPaintEvent' version='WXU_3.2' is-default-version='yes' type='func-type' binding='global-binding' visibility='default-visibility' is-defined='yes'/>
    <elf-symbol name='_ZN14wxPropertyGrid7RefreshEbPK6wxRect' version='WXU_3.2' is-default-version='yes' type='func-type' binding='global-binding' visibility='default-visibility' is-defined='yes'/>
    <elf-symbol name='_ZN14wxPropertyGrid7SetFontERK6wxFont' version='WXU_3.2' is-default-version='yes' type='func-type' binding='global-binding' visibility='default-visibility' is-defined='yes'/>
    <elf-symbol name='_ZN14wxPropertyGrid8DoEnableEb' version='WXU_3.2' is-default-version='yes' type='func-type' binding='global-binding' visibility='default-visibility' is-defined='yes'/>
    <elf-symbol name='_ZN14wxPropertyGrid8DoExpandEP12wxPGPropertyb' version='WXU_3.2' is-default-version='yes' type='func-type' binding='global-binding' visibility='default-visibility' is-defined='yes'/>
    <elf-symbol name='_ZN14wxPropertyGrid8OnResizeER11wxSizeEvent' version='WXU_3.2' is-default-version='yes' type='func-type' binding='global-binding' visibility='default-visibility' is-defined='yes'/>
    <elf-symbol name='_ZN14wxPropertyGrid8ReparentEP12wxWindowBase' version='WXU_3.2' is-default-version='yes' type='func-type' binding='global-binding' visibility='default-visibility' is-defined='yes'/>
    <elf-symbol name='_ZN14wxPropertyGrid9DrawItemsEPK12wxPGPropertyS2_' version='WXU_3.2' is-default-version='yes' type='func-type' binding='global-binding' visibility='default-visibility' is-defined='yes'/>
    <elf-symbol name='_ZN14wxPropertyGrid9DrawItemsER4wxDCjjPK6wxRect' version='WXU_3.2' is-default-version='yes' type='func-type' binding='global-binding' visibility='default-visibility' is-defined='yes'/>
    <elf-symbol name='_ZN14wxPropertyGrid9OnMouseUpER12wxMouseEvent' version='WXU_3.2' is-default-version='yes' type='func-type' binding='global-binding' visibility='default-visibility' is-defined='yes'/>
    <elf-symbol name='_ZN14wxPropertyGrid9SendEventEiP12wxPGPropertyP9wxVariantjj' version='WXU_3.2' is-default-version='yes' type='func-type' binding='global-binding' visibility='default-visibility' is-defined='yes'/>
    <elf-symbol name='_ZN14wxPropertyGrid9SendEventEii' version='WXU_3.2' is-default-version='yes' type='func-type' binding='global-binding' visibility='default-visibility' is-defined='yes'/>
    <elf-symbol name='_ZN14wxPropertyGridC1EP8wxWindowiRK7wxPointRK6wxSizelRK8wxString' version='WXU_3.2' is-default-version='yes' type='func-type' binding='global-binding' visibility='default-visibility' is-defined='yes'/>
    <elf-symbol name='_ZN14wxPropertyGridC1Ev' version='WXU_3.2' is-default-version='yes' type='func-type' binding='global-binding' visibility='default-visibility' is-defined='yes'/>
    <elf-symbol name='_ZN14wxPropertyGridC2EP8wxWindowiRK7wxPointRK6wxSizelRK8wxString' version='WXU_3.2' is-default-version='yes' type='func-type' binding='global-binding' visibility='default-visibility' alias='_ZN14wxPropertyGridC1EP8wxWindowiRK7wxPointRK6wxSizelRK8wxString@@WXU_3.2' is-defined='yes'/>
    <elf-symbol name='_ZN14wxPropertyGridC2Ev' version='WXU_3.2' is-default-version='yes' type='func-type' binding='global-binding' visibility='default-visibility' alias='_ZN14wxPropertyGridC1Ev@@WXU_3.2' is-defined='yes'/>
    <elf-symbol name='_ZN14wxPropertyGridD0Ev' version='WXU_3.2' is-default-version='yes' type='func-type' binding='global-binding' visibility='default-visibility' is-defined='yes'/>
    <elf-symbol name='_ZN14wxPropertyGridD1Ev' version='WXU_3.2' is-default-version='yes' type='func-type' binding='global-binding' visibility='default-visibility' is-defined='yes'/>
    <elf-symbol name='_ZN14wxPropertyGridD2Ev' version='WXU_3.2' is-default-version='yes' type='func-type' binding='global-binding' visibility='default-visibility' alias='_ZN14wxPropertyGridD1Ev@@WXU_3.2' is-defined='yes'/>
    <elf-symbol name='_ZN14wxUIntProperty12DoValidationEPK17wxNumericPropertyR17wxULongLongNativeP18wxPGValidationInfoi' version='WXU_3.2' is-default-version='yes' type='func-type' binding='global-binding' visibility='default-visibility' is-defined='yes'/>
    <elf-symbol name='_ZN14wxUIntProperty12DoValidationEPK17wxNumericPropertyRlP18wxPGValidationInfoi' version='WXU_3.2' is-default-version='yes' type='func-type' binding='global-binding' visibility='default-visibility' is-defined='yes'/>
    <elf-symbol name='_ZN14wxUIntProperty12DoValidationEPK17wxNumericPropertyRyP18wxPGValidationInfoi' version='WXU_3.2' is-default-version='yes' type='func-type' binding='global-binding' visibility='default-visibility' is-defined='yes'/>
    <elf-symbol name='_ZN14wxUIntProperty14DoSetAttributeERK8wxStringR9wxVariant' version='WXU_3.2' is-default-version='yes' type='func-type' binding='global-binding' visibility='default-visibility' is-defined='yes'/>
    <elf-symbol name='_ZN14wxUIntProperty14wxCreateObjectEv' version='WXU_3.2' is-default-version='yes' type='func-type' binding='global-binding' visibility='default-visibility' is-defined='yes'/>
    <elf-symbol name='_ZN14wxUIntProperty4InitEv' version='WXU_3.2' is-default-version='yes' type='func-type' binding='global-binding' visibility='default-visibility' is-defined='yes'/>
    <elf-symbol name='_ZN14wxUIntPropertyC1ERK8wxStringS2_RK17wxULongLongNative' version='WXU_3.2' is-default-version='yes' type='func-type' binding='global-binding' visibility='default-visibility' is-defined='yes'/>
    <elf-symbol name='_ZN14wxUIntPropertyC1ERK8wxStringS2_m' version='WXU_3.2' is-default-version='yes' type='func-type' binding='global-binding' visibility='default-visibility' is-defined='yes'/>
    <elf-symbol name='_ZN14wxUIntPropertyC2ERK8wxStringS2_RK17wxULongLongNative' version='WXU_3.2' is-default-version='yes' type='func-type' binding='global-binding' visibility='default-visibility' alias='_ZN14wxUIntPropertyC1ERK8wxStringS2_RK17wxULongLongNative@@WXU_3.2' is-defined='yes'/>
    <elf-symbol name='_ZN14wxUIntPropertyC2ERK8wxStringS2_m' version='WXU_3.2' is-default-version='yes' type='func-type' binding='global-binding' visibility='default-visibility' alias='_ZN14wxUIntPropertyC1ERK8wxStringS2_m@@WXU_3.2' is-defined='yes'/>
    <elf-symbol name='_ZN14wxUIntPropertyD0Ev' version='WXU_3.2' is-default-version='yes' type='func-type' binding='global-binding' visibility='default-visibility' is-defined='yes'/>
    <elf-symbol name='_ZN14wxUIntPropertyD1Ev' version='WXU_3.2' is-default-version='yes' type='func-type' binding='global-binding' visibility='default-visibility' is-defined='yes'/>
    <elf-symbol name='_ZN14wxUIntPropertyD2Ev' version='WXU_3.2' is-default-version='yes' type='func-type' binding='global-binding' visibility='default-visibility' alias='_ZN14wxUIntPropertyD1Ev@@WXU_3.2' is-defined='yes'/>
    <elf-symbol name='_ZN15wxFlagsProperty10OnSetValueEv' version='WXU_3.2' is-default-version='yes' type='func-type' binding='global-binding' visibility='default-visibility' is-defined='yes'/>
    <elf-symbol name='_ZN15wxFlagsProperty14DoSetAttributeERK8wxStringR9wxVariant' version='WXU_3.2' is-default-version='yes' type='func-type' binding='global-binding' visibility='default-visibility' is-defined='yes'/>
    <elf-symbol name='_ZN15wxFlagsProperty14wxCreateObjectEv' version='WXU_3.2' is-default-version='yes' type='func-type' binding='global-binding' visibility='default-visibility' is-defined='yes'/>
    <elf-symbol name='_ZN15wxFlagsProperty15RefreshChildrenEv' version='WXU_3.2' is-default-version='yes' type='func-type' binding='global-binding' visibility='default-visibility' is-defined='yes'/>
    <elf-symbol name='_ZN15wxFlagsProperty4InitEv' version='WXU_3.2' is-default-version='yes' type='func-type' binding='global-binding' visibility='default-visibility' is-defined='yes'/>
    <elf-symbol name='_ZN15wxFlagsPropertyC1ERK8wxStringS2_PKPKwPKll' version='WXU_3.2' is-default-version='yes' type='func-type' binding='global-binding' visibility='default-visibility' is-defined='yes'/>
    <elf-symbol name='_ZN15wxFlagsPropertyC1ERK8wxStringS2_R11wxPGChoicesl' version='WXU_3.2' is-default-version='yes' type='func-type' binding='global-binding' visibility='default-visibility' is-defined='yes'/>
    <elf-symbol name='_ZN15wxFlagsPropertyC1ERK8wxStringS2_RK13wxArrayStringRK10wxArrayInti' version='WXU_3.2' is-default-version='yes' type='func-type' binding='global-binding' visibility='default-visibility' is-defined='yes'/>
    <elf-symbol name='_ZN15wxFlagsPropertyC2ERK8wxStringS2_PKPKwPKll' version='WXU_3.2' is-default-version='yes' type='func-type' binding='global-binding' visibility='default-visibility' alias='_ZN15wxFlagsPropertyC1ERK8wxStringS2_PKPKwPKll@@WXU_3.2' is-defined='yes'/>
    <elf-symbol name='_ZN15wxFlagsPropertyC2ERK8wxStringS2_R11wxPGChoicesl' version='WXU_3.2' is-default-version='yes' type='func-type' binding='global-binding' visibility='default-visibility' alias='_ZN15wxFlagsPropertyC1ERK8wxStringS2_R11wxPGChoicesl@@WXU_3.2' is-defined='yes'/>
    <elf-symbol name='_ZN15wxFlagsPropertyC2ERK8wxStringS2_RK13wxArrayStringRK10wxArrayInti' version='WXU_3.2' is-default-version='yes' type='func-type' binding='global-binding' visibility='default-visibility' alias='_ZN15wxFlagsPropertyC1ERK8wxStringS2_RK13wxArrayStringRK10wxArrayInti@@WXU_3.2' is-defined='yes'/>
    <elf-symbol name='_ZN15wxFlagsPropertyD0Ev' version='WXU_3.2' is-default-version='yes' type='func-type' binding='global-binding' visibility='default-visibility' is-defined='yes'/>
    <elf-symbol name='_ZN15wxFlagsPropertyD1Ev' version='WXU_3.2' is-default-version='yes' type='func-type' binding='global-binding' visibility='default-visibility' is-defined='yes'/>
    <elf-symbol name='_ZN15wxFlagsPropertyD2Ev' version='WXU_3.2' is-default-version='yes' type='func-type' binding='global-binding' visibility='default-visibility' alias='_ZN15wxFlagsPropertyD1Ev@@WXU_3.2' is-defined='yes'/>
    <elf-symbol name='_ZN15wxFloatProperty12DoValidationEPK17wxNumericPropertyRdP18wxPGValidationInfoi' version='WXU_3.2' is-default-version='yes' type='func-type' binding='global-binding' visibility='default-visibility' is-defined='yes'/>
    <elf-symbol name='_ZN15wxFloatProperty14DoSetAttributeERK8wxStringR9wxVariant' version='WXU_3.2' is-default-version='yes' type='func-type' binding='global-binding' visibility='default-visibility' is-defined='yes'/>
    <elf-symbol name='_ZN15wxFloatProperty14wxCreateObjectEv' version='WXU_3.2' is-default-version='yes' type='func-type' binding='global-binding' visibility='default-visibility' is-defined='yes'/>
    <elf-symbol name='_ZN15wxFloatProperty17GetClassValidatorEv' version='WXU_3.2' is-default-version='yes' type='func-type' binding='global-binding' visibility='default-visibility' is-defined='yes'/>
    <elf-symbol name='_ZN15wxFloatPropertyC1ERK8wxStringS2_d' version='WXU_3.2' is-default-version='yes' type='func-type' binding='global-binding' visibility='default-visibility' is-defined='yes'/>
    <elf-symbol name='_ZN15wxFloatPropertyC2ERK8wxStringS2_d' version='WXU_3.2' is-default-version='yes' type='func-type' binding='global-binding' visibility='default-visibility' alias='_ZN15wxFloatPropertyC1ERK8wxStringS2_d@@WXU_3.2' is-defined='yes'/>
    <elf-symbol name='_ZN15wxFloatPropertyD0Ev' version='WXU_3.2' is-default-version='yes' type='func-type' binding='global-binding' visibility='default-visibility' is-defined='yes'/>
    <elf-symbol name='_ZN15wxFloatPropertyD1Ev' version='WXU_3.2' is-default-version='yes' type='func-type' binding='global-binding' visibility='default-visibility' is-defined='yes'/>
    <elf-symbol name='_ZN15wxFloatPropertyD2Ev' version='WXU_3.2' is-default-version='yes' type='func-type' binding='global-binding' visibility='default-visibility' alias='_ZN15wxFloatPropertyD1Ev@@WXU_3.2' is-defined='yes'/>
    <elf-symbol name='_ZN15wxPGChoiceEntryC1Ev' version='WXU_3.2' is-default-version='yes' type='func-type' binding='global-binding' visibility='default-visibility' is-defined='yes'/>
    <elf-symbol name='_ZN15wxPGChoiceEntryC2Ev' version='WXU_3.2' is-default-version='yes' type='func-type' binding='global-binding' visibility='default-visibility' alias='_ZN15wxPGChoiceEntryC1Ev@@WXU_3.2' is-defined='yes'/>
    <elf-symbol name='_ZN15wxPGChoicesData12CopyDataFromEPS_' version='WXU_3.2' is-default-version='yes' type='func-type' binding='global-binding' visibility='default-visibility' is-defined='yes'/>
    <elf-symbol name='_ZN15wxPGChoicesData5ClearEv' version='WXU_3.2' is-default-version='yes' type='func-type' binding='global-binding' visibility='default-visibility' is-defined='yes'/>
    <elf-symbol name='_ZN15wxPGChoicesData6InsertEiRK15wxPGChoiceEntry' version='WXU_3.2' is-default-version='yes' type='func-type' binding='global-binding' visibility='default-visibility' is-defined='yes'/>
    <elf-symbol name='_ZN15wxPGChoicesDataC1Ev' version='WXU_3.2' is-default-version='yes' type='func-type' binding='global-binding' visibility='default-visibility' is-defined='yes'/>
    <elf-symbol name='_ZN15wxPGChoicesDataC2Ev' version='WXU_3.2' is-default-version='yes' type='func-type' binding='global-binding' visibility='default-visibility' alias='_ZN15wxPGChoicesDataC1Ev@@WXU_3.2' is-defined='yes'/>
    <elf-symbol name='_ZN15wxPGChoicesDataD0Ev' version='WXU_3.2' is-default-version='yes' type='func-type' binding='global-binding' visibility='default-visibility' is-defined='yes'/>
    <elf-symbol name='_ZN15wxPGChoicesDataD1Ev' version='WXU_3.2' is-default-version='yes' type='func-type' binding='global-binding' visibility='default-visibility' is-defined='yes'/>
    <elf-symbol name='_ZN15wxPGChoicesDataD2Ev' version='WXU_3.2' is-default-version='yes' type='func-type' binding='global-binding' visibility='default-visibility' alias='_ZN15wxPGChoicesDataD1Ev@@WXU_3.2' is-defined='yes'/>
    <elf-symbol name='_ZN15wxPGMultiButton11DoAddButtonEP8wxWindowRK6wxSize' version='WXU_3.2' is-default-version='yes' type='func-type' binding='global-binding' visibility='default-visibility' is-defined='yes'/>
    <elf-symbol name='_ZN15wxPGMultiButton3AddERK14wxBitmapBundlei' version='WXU_3.2' is-default-version='yes' type='func-type' binding='global-binding' visibility='default-visibility' is-defined='yes'/>
    <elf-symbol name='_ZN15wxPGMultiButton3AddERK8wxStringi' version='WXU_3.2' is-default-version='yes' type='func-type' binding='global-binding' visibility='default-visibility' is-defined='yes'/>
    <elf-symbol name='_ZN15wxPGMultiButton8FinalizeEP14wxPropertyGridRK7wxPoint' version='WXU_3.2' is-default-version='yes' type='func-type' binding='global-binding' visibility='default-visibility' is-defined='yes'/>
    <elf-symbol name='_ZN15wxPGMultiButtonC1EP14wxPropertyGridRK6wxSize' version='WXU_3.2' is-default-version='yes' type='func-type' binding='global-binding' visibility='default-visibility' is-defined='yes'/>
    <elf-symbol name='_ZN15wxPGMultiButtonC2EP14wxPropertyGridRK6wxSize' version='WXU_3.2' is-default-version='yes' type='func-type' binding='global-binding' visibility='default-visibility' alias='_ZN15wxPGMultiButtonC1EP14wxPropertyGridRK6wxSize@@WXU_3.2' is-defined='yes'/>
    <elf-symbol name='_ZN16wxColourProperty14wxCreateObjectEv' version='WXU_3.2' is-default-version='yes' type='func-type' binding='global-binding' visibility='default-visibility' is-defined='yes'/>
    <elf-symbol name='_ZN16wxColourProperty4InitE8wxColour' version='WXU_3.2' is-default-version='yes' type='func-type' binding='global-binding' visibility='default-visibility' is-defined='yes'/>
    <elf-symbol name='_ZN16wxColourPropertyC1ERK8wxStringS2_RK8wxColour' version='WXU_3.2' is-default-version='yes' type='func-type' binding='global-binding' visibility='default-visibility' is-defined='yes'/>
    <elf-symbol name='_ZN16wxColourPropertyC2ERK8wxStringS2_RK8wxColour' version='WXU_3.2' is-default-version='yes' type='func-type' binding='global-binding' visibility='default-visibility' alias='_ZN16wxColourPropertyC1ERK8wxStringS2_RK8wxColour@@WXU_3.2' is-defined='yes'/>
    <elf-symbol name='_ZN16wxColourPropertyD0Ev' version='WXU_3.2' is-default-version='yes' type='func-type' binding='global-binding' visibility='default-visibility' is-defined='yes'/>
    <elf-symbol name='_ZN16wxColourPropertyD1Ev' version='WXU_3.2' is-default-version='yes' type='func-type' binding='global-binding' visibility='default-visibility' is-defined='yes'/>
    <elf-symbol name='_ZN16wxColourPropertyD2Ev' version='WXU_3.2' is-default-version='yes' type='func-type' binding='global-binding' visibility='default-visibility' alias='_ZN16wxColourPropertyD1Ev@@WXU_3.2' is-defined='yes'/>
    <elf-symbol name='_ZN16wxCursorProperty13OnCustomPaintER4wxDCRK6wxRectR13wxPGPaintData' version='WXU_3.2' is-default-version='yes' type='func-type' binding='global-binding' visibility='default-visibility' is-defined='yes'/>
    <elf-symbol name='_ZN16wxCursorProperty14wxCreateObjectEv' version='WXU_3.2' is-default-version='yes' type='func-type' binding='global-binding' visibility='default-visibility' is-defined='yes'/>
    <elf-symbol name='_ZN16wxCursorPropertyC1ERK8wxStringS2_i' version='WXU_3.2' is-default-version='yes' type='func-type' binding='global-binding' visibility='default-visibility' is-defined='yes'/>
    <elf-symbol name='_ZN16wxCursorPropertyC2ERK8wxStringS2_i' version='WXU_3.2' is-default-version='yes' type='func-type' binding='global-binding' visibility='default-visibility' alias='_ZN16wxCursorPropertyC1ERK8wxStringS2_i@@WXU_3.2' is-defined='yes'/>
    <elf-symbol name='_ZN16wxCursorPropertyD0Ev' version='WXU_3.2' is-default-version='yes' type='func-type' binding='global-binding' visibility='default-visibility' is-defined='yes'/>
    <elf-symbol name='_ZN16wxCursorPropertyD1Ev' version='WXU_3.2' is-default-version='yes' type='func-type' binding='global-binding' visibility='default-visibility' is-defined='yes'/>
    <elf-symbol name='_ZN16wxCursorPropertyD2Ev' version='WXU_3.2' is-default-version='yes' type='func-type' binding='global-binding' visibility='default-visibility' alias='_ZN16wxCursorPropertyD1Ev@@WXU_3.2' is-defined='yes'/>
    <elf-symbol name='_ZN16wxPGChoiceEditor14wxCreateObjectEv' version='WXU_3.2' is-default-version='yes' type='func-type' binding='global-binding' visibility='default-visibility' is-defined='yes'/>
    <elf-symbol name='_ZN16wxPGChoiceEditorD0Ev' version='WXU_3.2' is-default-version='yes' type='func-type' binding='global-binding' visibility='default-visibility' is-defined='yes'/>
    <elf-symbol name='_ZN16wxPGChoiceEditorD1Ev' version='WXU_3.2' is-default-version='yes' type='func-type' binding='global-binding' visibility='default-visibility' is-defined='yes'/>
    <elf-symbol name='_ZN16wxPGChoiceEditorD2Ev' version='WXU_3.2' is-default-version='yes' type='func-type' binding='global-binding' visibility='default-visibility' alias='_ZN16wxPGChoiceEditorD1Ev@@WXU_3.2' is-defined='yes'/>
    <elf-symbol name='_ZN16wxPGRootProperty14wxCreateObjectEv' version='WXU_3.2' is-default-version='yes' type='func-type' binding='global-binding' visibility='default-visibility' is-defined='yes'/>
    <elf-symbol name='_ZN16wxPGRootPropertyC1ERK8wxString' version='WXU_3.2' is-default-version='yes' type='func-type' binding='global-binding' visibility='default-visibility' is-defined='yes'/>
    <elf-symbol name='_ZN16wxPGRootPropertyC2ERK8wxString' version='WXU_3.2' is-default-version='yes' type='func-type' binding='global-binding' visibility='default-visibility' alias='_ZN16wxPGRootPropertyC1ERK8wxString@@WXU_3.2' is-defined='yes'/>
    <elf-symbol name='_ZN16wxPGRootPropertyD0Ev' version='WXU_3.2' is-default-version='yes' type='func-type' binding='global-binding' visibility='default-visibility' is-defined='yes'/>
    <elf-symbol name='_ZN16wxPGRootPropertyD1Ev' version='WXU_3.2' is-default-version='yes' type='func-type' binding='global-binding' visibility='default-visibility' is-defined='yes'/>
    <elf-symbol name='_ZN16wxPGRootPropertyD2Ev' version='WXU_3.2' is-default-version='yes' type='func-type' binding='global-binding' visibility='default-visibility' alias='_ZN16wxPGRootPropertyD1Ev@@WXU_3.2' is-defined='yes'/>
    <elf-symbol name='_ZN16wxStringProperty10OnSetValueEv' version='WXU_3.2' is-default-version='yes' type='func-type' binding='global-binding' visibility='default-visibility' is-defined='yes'/>
    <elf-symbol name='_ZN16wxStringProperty14DoSetAttributeERK8wxStringR9wxVariant' version='WXU_3.2' is-default-version='yes' type='func-type' binding='global-binding' visibility='default-visibility' is-defined='yes'/>
    <elf-symbol name='_ZN16wxStringProperty14wxCreateObjectEv' version='WXU_3.2' is-default-version='yes' type='func-type' binding='global-binding' visibility='default-visibility' is-defined='yes'/>
    <elf-symbol name='_ZN16wxStringPropertyC1ERK8wxStringS2_S2_' version='WXU_3.2' is-default-version='yes' type='func-type' binding='global-binding' visibility='default-visibility' is-defined='yes'/>
    <elf-symbol name='_ZN16wxStringPropertyC2ERK8wxStringS2_S2_' version='WXU_3.2' is-default-version='yes' type='func-type' binding='global-binding' visibility='default-visibility' alias='_ZN16wxStringPropertyC1ERK8wxStringS2_S2_@@WXU_3.2' is-defined='yes'/>
    <elf-symbol name='_ZN16wxStringPropertyD0Ev' version='WXU_3.2' is-default-version='yes' type='func-type' binding='global-binding' visibility='default-visibility' is-defined='yes'/>
    <elf-symbol name='_ZN16wxStringPropertyD1Ev' version='WXU_3.2' is-default-version='yes' type='func-type' binding='global-binding' visibility='default-visibility' is-defined='yes'/>
    <elf-symbol name='_ZN16wxStringPropertyD2Ev' version='WXU_3.2' is-default-version='yes' type='func-type' binding='global-binding' visibility='default-visibility' alias='_ZN16wxStringPropertyD1Ev@@WXU_3.2' is-defined='yes'/>
    <elf-symbol name='_ZN17wxCriticalSection5EnterEv' version='WXU_3.2' is-default-version='yes' type='func-type' binding='weak-binding' visibility='default-visibility' is-defined='yes'/>
    <elf-symbol name='_ZN17wxCriticalSection5LeaveEv' version='WXU_3.2' is-default-version='yes' type='func-type' binding='weak-binding' visibility='default-visibility' is-defined='yes'/>
    <elf-symbol name='_ZN17wxCriticalSectionC1E21wxCriticalSectionType' version='WXU_3.2' is-default-version='yes' type='func-type' binding='weak-binding' visibility='default-visibility' is-defined='yes'/>
    <elf-symbol name='_ZN17wxCriticalSectionC2E21wxCriticalSectionType' version='WXU_3.2' is-default-version='yes' type='func-type' binding='weak-binding' visibility='default-visibility' alias='_ZN17wxCriticalSectionC1E21wxCriticalSectionType@@WXU_3.2' is-defined='yes'/>
    <elf-symbol name='_ZN17wxCriticalSectionD1Ev' version='WXU_3.2' is-default-version='yes' type='func-type' binding='weak-binding' visibility='default-visibility' is-defined='yes'/>
    <elf-symbol name='_ZN17wxCriticalSectionD2Ev' version='WXU_3.2' is-default-version='yes' type='func-type' binding='weak-binding' visibility='default-visibility' alias='_ZN17wxCriticalSectionD1Ev@@WXU_3.2' is-defined='yes'/>
    <elf-symbol name='_ZN17wxNumericProperty14DoSetAttributeERK8wxStringR9wxVariant' version='WXU_3.2' is-default-version='yes' type='func-type' binding='global-binding' visibility='default-visibility' is-defined='yes'/>
    <elf-symbol name='_ZN17wxNumericPropertyC1ERK8wxStringS2_' version='WXU_3.2' is-default-version='yes' type='func-type' binding='global-binding' visibility='default-visibility' is-defined='yes'/>
    <elf-symbol name='_ZN17wxNumericPropertyC2ERK8wxStringS2_' version='WXU_3.2' is-default-version='yes' type='func-type' binding='global-binding' visibility='default-visibility' alias='_ZN17wxNumericPropertyC1ERK8wxStringS2_@@WXU_3.2' is-defined='yes'/>
    <elf-symbol name='_ZN17wxNumericPropertyD0Ev' version='WXU_3.2' is-default-version='yes' type='func-type' binding='global-binding' visibility='default-visibility' is-defined='yes'/>
    <elf-symbol name='_ZN17wxNumericPropertyD1Ev' version='WXU_3.2' is-default-version='yes' type='func-type' binding='global-binding' visibility='default-visibility' is-defined='yes'/>
    <elf-symbol name='_ZN17wxNumericPropertyD2Ev' version='WXU_3.2' is-default-version='yes' type='func-type' binding='global-binding' visibility='default-visibility' alias='_ZN17wxNumericPropertyD1Ev@@WXU_3.2' is-defined='yes'/>
    <elf-symbol name='_ZN18wxEditEnumProperty10OnSetValueEv' version='WXU_3.2' is-default-version='yes' type='func-type' binding='global-binding' visibility='default-visibility' is-defined='yes'/>
    <elf-symbol name='_ZN18wxEditEnumProperty14wxCreateObjectEv' version='WXU_3.2' is-default-version='yes' type='func-type' binding='global-binding' visibility='default-visibility' is-defined='yes'/>
    <elf-symbol name='_ZN18wxEditEnumPropertyC1ERK8wxStringS2_PKPKcPKlP11wxPGChoicesS2_' version='WXU_3.2' is-default-version='yes' type='func-type' binding='global-binding' visibility='default-visibility' is-defined='yes'/>
    <elf-symbol name='_ZN18wxEditEnumPropertyC1ERK8wxStringS2_PKPKwPKlS2_' version='WXU_3.2' is-default-version='yes' type='func-type' binding='global-binding' visibility='default-visibility' is-defined='yes'/>
    <elf-symbol name='_ZN18wxEditEnumPropertyC1ERK8wxStringS2_R11wxPGChoicesS2_' version='WXU_3.2' is-default-version='yes' type='func-type' binding='global-binding' visibility='default-visibility' is-defined='yes'/>
    <elf-symbol name='_ZN18wxEditEnumPropertyC1ERK8wxStringS2_RK13wxArrayStringRK10wxArrayIntS2_' version='WXU_3.2' is-default-version='yes' type='func-type' binding='global-binding' visibility='default-visibility' is-defined='yes'/>
    <elf-symbol name='_ZN18wxEditEnumPropertyC2ERK8wxStringS2_PKPKcPKlP11wxPGChoicesS2_' version='WXU_3.2' is-default-version='yes' type='func-type' binding='global-binding' visibility='default-visibility' alias='_ZN18wxEditEnumPropertyC1ERK8wxStringS2_PKPKcPKlP11wxPGChoicesS2_@@WXU_3.2' is-defined='yes'/>
    <elf-symbol name='_ZN18wxEditEnumPropertyC2ERK8wxStringS2_PKPKwPKlS2_' version='WXU_3.2' is-default-version='yes' type='func-type' binding='global-binding' visibility='default-visibility' alias='_ZN18wxEditEnumPropertyC1ERK8wxStringS2_PKPKwPKlS2_@@WXU_3.2' is-defined='yes'/>
    <elf-symbol name='_ZN18wxEditEnumPropertyC2ERK8wxStringS2_R11wxPGChoicesS2_' version='WXU_3.2' is-default-version='yes' type='func-type' binding='global-binding' visibility='default-visibility' alias='_ZN18wxEditEnumPropertyC1ERK8wxStringS2_R11wxPGChoicesS2_@@WXU_3.2' is-defined='yes'/>
    <elf-symbol name='_ZN18wxEditEnumPropertyC2ERK8wxStringS2_RK13wxArrayStringRK10wxArrayIntS2_' version='WXU_3.2' is-default-version='yes' type='func-type' binding='global-binding' visibility='default-visibility' alias='_ZN18wxEditEnumPropertyC1ERK8wxStringS2_RK13wxArrayStringRK10wxArrayIntS2_@@WXU_3.2' is-defined='yes'/>
    <elf-symbol name='_ZN18wxEditEnumPropertyD0Ev' version='WXU_3.2' is-default-version='yes' type='func-type' binding='global-binding' visibility='default-visibility' is-defined='yes'/>
    <elf-symbol name='_ZN18wxEditEnumPropertyD1Ev' version='WXU_3.2' is-default-version='yes' type='func-type' binding='global-binding' visibility='default-visibility' is-defined='yes'/>
    <elf-symbol name='_ZN18wxEditEnumPropertyD2Ev' version='WXU_3.2' is-default-version='yes' type='func-type' binding='global-binding' visibility='default-visibility' alias='_ZN18wxEditEnumPropertyD1Ev@@WXU_3.2' is-defined='yes'/>
    <elf-symbol name='_ZN18wxPGCheckBoxEditor14wxCreateObjectEv' version='WXU_3.2' is-default-version='yes' type='func-type' binding='global-binding' visibility='default-visibility' is-defined='yes'/>
    <elf-symbol name='_ZN18wxPGCheckBoxEditorD0Ev' version='WXU_3.2' is-default-version='yes' type='func-type' binding='global-binding' visibility='default-visibility' is-defined='yes'/>
    <elf-symbol name='_ZN18wxPGCheckBoxEditorD1Ev' version='WXU_3.2' is-default-version='yes' type='func-type' binding='global-binding' visibility='default-visibility' is-defined='yes'/>
    <elf-symbol name='_ZN18wxPGCheckBoxEditorD2Ev' version='WXU_3.2' is-default-version='yes' type='func-type' binding='global-binding' visibility='default-visibility' alias='_ZN18wxPGCheckBoxEditorD1Ev@@WXU_3.2' is-defined='yes'/>
    <elf-symbol name='_ZN18wxPGComboBoxEditor14wxCreateObjectEv' version='WXU_3.2' is-default-version='yes' type='func-type' binding='global-binding' visibility='default-visibility' is-defined='yes'/>
    <elf-symbol name='_ZN18wxPGComboBoxEditorD0Ev' version='WXU_3.2' is-default-version='yes' type='func-type' binding='global-binding' visibility='default-visibility' is-defined='yes'/>
    <elf-symbol name='_ZN18wxPGComboBoxEditorD1Ev' version='WXU_3.2' is-default-version='yes' type='func-type' binding='global-binding' visibility='default-visibility' is-defined='yes'/>
    <elf-symbol name='_ZN18wxPGComboBoxEditorD2Ev' version='WXU_3.2' is-default-version='yes' type='func-type' binding='global-binding' visibility='default-visibility' alias='_ZN18wxPGComboBoxEditorD1Ev@@WXU_3.2' is-defined='yes'/>
    <elf-symbol name='_ZN18wxPGSpinCtrlEditor14wxCreateObjectEv' version='WXU_3.2' is-default-version='yes' type='func-type' binding='global-binding' visibility='default-visibility' is-defined='yes'/>
    <elf-symbol name='_ZN18wxPGSpinCtrlEditorD0Ev' version='WXU_3.2' is-default-version='yes' type='func-type' binding='global-binding' visibility='default-visibility' is-defined='yes'/>
    <elf-symbol name='_ZN18wxPGSpinCtrlEditorD1Ev' version='WXU_3.2' is-default-version='yes' type='func-type' binding='global-binding' visibility='default-visibility' is-defined='yes'/>
    <elf-symbol name='_ZN18wxPGSpinCtrlEditorD2Ev' version='WXU_3.2' is-default-version='yes' type='func-type' binding='global-binding' visibility='default-visibility' alias='_ZN18wxPGSpinCtrlEditorD1Ev@@WXU_3.2' is-defined='yes'/>
    <elf-symbol name='_ZN18wxPGTextCtrlEditor14wxCreateObjectEv' version='WXU_3.2' is-default-version='yes' type='func-type' binding='global-binding' visibility='default-visibility' is-defined='yes'/>
    <elf-symbol name='_ZN18wxPGTextCtrlEditor15OnTextCtrlEventEP14wxPropertyGridP12wxPGPropertyP8wxWindowR7wxEvent' version='WXU_3.2' is-default-version='yes' type='func-type' binding='global-binding' visibility='default-visibility' is-defined='yes'/>
    <elf-symbol name='_ZN18wxPGTextCtrlEditor27GetTextCtrlValueFromControlER9wxVariantP12wxPGPropertyP8wxWindow' version='WXU_3.2' is-default-version='yes' type='func-type' binding='global-binding' visibility='default-visibility' is-defined='yes'/>
    <elf-symbol name='_ZN18wxPGTextCtrlEditorD0Ev' version='WXU_3.2' is-default-version='yes' type='func-type' binding='global-binding' visibility='default-visibility' is-defined='yes'/>
    <elf-symbol name='_ZN18wxPGTextCtrlEditorD1Ev' version='WXU_3.2' is-default-version='yes' type='func-type' binding='global-binding' visibility='default-visibility' alias='_ZN18wxPGTextCtrlEditorD2Ev@@WXU_3.2' is-defined='yes'/>
    <elf-symbol name='_ZN18wxPGTextCtrlEditorD2Ev' version='WXU_3.2' is-default-version='yes' type='func-type' binding='global-binding' visibility='default-visibility' is-defined='yes'/>
    <elf-symbol name='_ZN18wxPropertyCategory14wxCreateObjectEv' version='WXU_3.2' is-default-version='yes' type='func-type' binding='global-binding' visibility='default-visibility' is-defined='yes'/>
    <elf-symbol name='_ZN18wxPropertyCategory19CalculateTextExtentEPK8wxWindowRK6wxFont' version='WXU_3.2' is-default-version='yes' type='func-type' binding='global-binding' visibility='default-visibility' is-defined='yes'/>
    <elf-symbol name='_ZN18wxPropertyCategory4InitEv' version='WXU_3.2' is-default-version='yes' type='func-type' binding='global-binding' visibility='default-visibility' is-defined='yes'/>
    <elf-symbol name='_ZN18wxPropertyCategoryC1ERK8wxStringS2_' version='WXU_3.2' is-default-version='yes' type='func-type' binding='global-binding' visibility='default-visibility' is-defined='yes'/>
    <elf-symbol name='_ZN18wxPropertyCategoryC1Ev' version='WXU_3.2' is-default-version='yes' type='func-type' binding='global-binding' visibility='default-visibility' is-defined='yes'/>
    <elf-symbol name='_ZN18wxPropertyCategoryC2ERK8wxStringS2_' version='WXU_3.2' is-default-version='yes' type='func-type' binding='global-binding' visibility='default-visibility' alias='_ZN18wxPropertyCategoryC1ERK8wxStringS2_@@WXU_3.2' is-defined='yes'/>
    <elf-symbol name='_ZN18wxPropertyCategoryC2Ev' version='WXU_3.2' is-default-version='yes' type='func-type' binding='global-binding' visibility='default-visibility' alias='_ZN18wxPropertyCategoryC1Ev@@WXU_3.2' is-defined='yes'/>
    <elf-symbol name='_ZN18wxPropertyCategoryD0Ev' version='WXU_3.2' is-default-version='yes' type='func-type' binding='global-binding' visibility='default-visibility' is-defined='yes'/>
    <elf-symbol name='_ZN18wxPropertyCategoryD1Ev' version='WXU_3.2' is-default-version='yes' type='func-type' binding='global-binding' visibility='default-visibility' is-defined='yes'/>
    <elf-symbol name='_ZN18wxPropertyCategoryD2Ev' version='WXU_3.2' is-default-version='yes' type='func-type' binding='global-binding' visibility='default-visibility' alias='_ZN18wxPropertyCategoryD1Ev@@WXU_3.2' is-defined='yes'/>
    <elf-symbol name='_ZN18wxPropertyGridPage10FitColumnsEv' version='WXU_3.2' is-default-version='yes' type='func-type' binding='global-binding' visibility='default-visibility' is-defined='yes'/>
    <elf-symbol name='_ZN18wxPropertyGridPage15RefreshPropertyEP12wxPGProperty' version='WXU_3.2' is-default-version='yes' type='func-type' binding='global-binding' visibility='default-visibility' is-defined='yes'/>
    <elf-symbol name='_ZN18wxPropertyGridPage19SetSplitterPositionEii' version='WXU_3.2' is-default-version='yes' type='func-type' binding='global-binding' visibility='default-visibility' is-defined='yes'/>
    <elf-symbol name='_ZN18wxPropertyGridPage21DoSetSplitterPositionEiii' version='WXU_3.2' is-default-version='yes' type='func-type' binding='global-binding' visibility='default-visibility' is-defined='yes'/>
    <elf-symbol name='_ZN18wxPropertyGridPage5ClearEv' version='WXU_3.2' is-default-version='yes' type='func-type' binding='global-binding' visibility='default-visibility' is-defined='yes'/>
    <elf-symbol name='_ZN18wxPropertyGridPage6OnShowEv' version='WXU_3.2' is-default-version='yes' type='func-type' binding='global-binding' visibility='default-visibility' is-defined='yes'/>
    <elf-symbol name='_ZN18wxPropertyGridPageC1Ev' version='WXU_3.2' is-default-version='yes' type='func-type' binding='global-binding' visibility='default-visibility' is-defined='yes'/>
    <elf-symbol name='_ZN18wxPropertyGridPageC2Ev' version='WXU_3.2' is-default-version='yes' type='func-type' binding='global-binding' visibility='default-visibility' alias='_ZN18wxPropertyGridPageC1Ev@@WXU_3.2' is-defined='yes'/>
    <elf-symbol name='_ZN18wxPropertyGridPageD0Ev' version='WXU_3.2' is-default-version='yes' type='func-type' binding='global-binding' visibility='default-visibility' is-defined='yes'/>
    <elf-symbol name='_ZN18wxPropertyGridPageD1Ev' version='WXU_3.2' is-default-version='yes' type='func-type' binding='global-binding' visibility='default-visibility' is-defined='yes'/>
    <elf-symbol name='_ZN18wxPropertyGridPageD2Ev' version='WXU_3.2' is-default-version='yes' type='func-type' binding='global-binding' visibility='default-visibility' alias='_ZN18wxPropertyGridPageD1Ev@@WXU_3.2' is-defined='yes'/>
    <elf-symbol name='_ZN19wxImageFileProperty10OnSetValueEv' version='WXU_3.2' is-default-version='yes' type='func-type' binding='global-binding' visibility='default-visibility' is-defined='yes'/>
    <elf-symbol name='_ZN19wxImageFileProperty13OnCustomPaintER4wxDCRK6wxRectR13wxPGPaintData' version='WXU_3.2' is-default-version='yes' type='func-type' binding='global-binding' visibility='default-visibility' is-defined='yes'/>
    <elf-symbol name='_ZN19wxImageFileProperty14wxCreateObjectEv' version='WXU_3.2' is-default-version='yes' type='func-type' binding='global-binding' visibility='default-visibility' is-defined='yes'/>
    <elf-symbol name='_ZN19wxImageFileProperty17LoadImageFromFileEv' version='WXU_3.2' is-default-version='yes' type='func-type' binding='global-binding' visibility='default-visibility' is-defined='yes'/>
    <elf-symbol name='_ZN19wxImageFileProperty8SetImageERK7wxImage' version='WXU_3.2' is-default-version='yes' type='func-type' binding='global-binding' visibility='default-visibility' is-defined='yes'/>
    <elf-symbol name='_ZN19wxImageFilePropertyC1ERK8wxStringS2_S2_' version='WXU_3.2' is-default-version='yes' type='func-type' binding='global-binding' visibility='default-visibility' is-defined='yes'/>
    <elf-symbol name='_ZN19wxImageFilePropertyC2ERK8wxStringS2_S2_' version='WXU_3.2' is-default-version='yes' type='func-type' binding='global-binding' visibility='default-visibility' alias='_ZN19wxImageFilePropertyC1ERK8wxStringS2_S2_@@WXU_3.2' is-defined='yes'/>
    <elf-symbol name='_ZN19wxImageFilePropertyD0Ev' version='WXU_3.2' is-default-version='yes' type='func-type' binding='global-binding' visibility='default-visibility' is-defined='yes'/>
    <elf-symbol name='_ZN19wxImageFilePropertyD1Ev' version='WXU_3.2' is-default-version='yes' type='func-type' binding='global-binding' visibility='default-visibility' is-defined='yes'/>
    <elf-symbol name='_ZN19wxImageFilePropertyD2Ev' version='WXU_3.2' is-default-version='yes' type='func-type' binding='global-binding' visibility='default-visibility' alias='_ZN19wxImageFilePropertyD1Ev@@WXU_3.2' is-defined='yes'/>
    <elf-symbol name='_ZN19wxPGGlobalVarsClassC1Ev' version='WXU_3.2' is-default-version='yes' type='func-type' binding='global-binding' visibility='default-visibility' is-defined='yes'/>
    <elf-symbol name='_ZN19wxPGGlobalVarsClassC2Ev' version='WXU_3.2' is-default-version='yes' type='func-type' binding='global-binding' visibility='default-visibility' alias='_ZN19wxPGGlobalVarsClassC1Ev@@WXU_3.2' is-defined='yes'/>
    <elf-symbol name='_ZN19wxPGGlobalVarsClassD1Ev' version='WXU_3.2' is-default-version='yes' type='func-type' binding='global-binding' visibility='default-visibility' is-defined='yes'/>
    <elf-symbol name='_ZN19wxPGGlobalVarsClassD2Ev' version='WXU_3.2' is-default-version='yes' type='func-type' binding='global-binding' visibility='default-visibility' alias='_ZN19wxPGGlobalVarsClassD1Ev@@WXU_3.2' is-defined='yes'/>
    <elf-symbol name='_ZN19wxPGStringTokenizer12GetNextTokenEv' version='WXU_3.2' is-default-version='yes' type='func-type' binding='global-binding' visibility='default-visibility' is-defined='yes'/>
    <elf-symbol name='_ZN19wxPGStringTokenizer13HasMoreTokensEv' version='WXU_3.2' is-default-version='yes' type='func-type' binding='global-binding' visibility='default-visibility' is-defined='yes'/>
    <elf-symbol name='_ZN19wxPGStringTokenizerC1ERK8wxStringw' version='WXU_3.2' is-default-version='yes' type='func-type' binding='global-binding' visibility='default-visibility' is-defined='yes'/>
    <elf-symbol name='_ZN19wxPGStringTokenizerC2ERK8wxStringw' version='WXU_3.2' is-default-version='yes' type='func-type' binding='global-binding' visibility='default-visibility' alias='_ZN19wxPGStringTokenizerC1ERK8wxStringw@@WXU_3.2' is-defined='yes'/>
    <elf-symbol name='_ZN19wxPGStringTokenizerD1Ev' version='WXU_3.2' is-default-version='yes' type='func-type' binding='global-binding' visibility='default-visibility' is-defined='yes'/>
    <elf-symbol name='_ZN19wxPGStringTokenizerD2Ev' version='WXU_3.2' is-default-version='yes' type='func-type' binding='global-binding' visibility='default-visibility' alias='_ZN19wxPGStringTokenizerD1Ev@@WXU_3.2' is-defined='yes'/>
    <elf-symbol name='_ZN19wxPropertyGridEvent14wxCreateObjectEv' version='WXU_3.2' is-default-version='yes' type='func-type' binding='global-binding' visibility='default-visibility' is-defined='yes'/>
    <elf-symbol name='_ZN19wxPropertyGridEvent17OnPropertyGridSetEv' version='WXU_3.2' is-default-version='yes' type='func-type' binding='global-binding' visibility='default-visibility' is-defined='yes'/>
    <elf-symbol name='_ZN19wxPropertyGridEventC1ERKS_' version='WXU_3.2' is-default-version='yes' type='func-type' binding='global-binding' visibility='default-visibility' is-defined='yes'/>
    <elf-symbol name='_ZN19wxPropertyGridEventC1Eii' version='WXU_3.2' is-default-version='yes' type='func-type' binding='global-binding' visibility='default-visibility' is-defined='yes'/>
    <elf-symbol name='_ZN19wxPropertyGridEventC2ERKS_' version='WXU_3.2' is-default-version='yes' type='func-type' binding='global-binding' visibility='default-visibility' alias='_ZN19wxPropertyGridEventC1ERKS_@@WXU_3.2' is-defined='yes'/>
    <elf-symbol name='_ZN19wxPropertyGridEventC2Eii' version='WXU_3.2' is-default-version='yes' type='func-type' binding='global-binding' visibility='default-visibility' alias='_ZN19wxPropertyGridEventC1Eii@@WXU_3.2' is-defined='yes'/>
    <elf-symbol name='_ZN19wxPropertyGridEventD0Ev' version='WXU_3.2' is-default-version='yes' type='func-type' binding='global-binding' visibility='default-visibility' is-defined='yes'/>
    <elf-symbol name='_ZN19wxPropertyGridEventD1Ev' version='WXU_3.2' is-default-version='yes' type='func-type' binding='global-binding' visibility='default-visibility' is-defined='yes'/>
    <elf-symbol name='_ZN19wxPropertyGridEventD2Ev' version='WXU_3.2' is-default-version='yes' type='func-type' binding='global-binding' visibility='default-visibility' alias='_ZN19wxPropertyGridEventD1Ev@@WXU_3.2' is-defined='yes'/>
    <elf-symbol name='_ZN20wxLongStringProperty14wxCreateObjectEv' version='WXU_3.2' is-default-version='yes' type='func-type' binding='global-binding' visibility='default-visibility' is-defined='yes'/>
    <elf-symbol name='_ZN20wxLongStringProperty19DisplayEditorDialogEP14wxPropertyGridR9wxVariant' version='WXU_3.2' is-default-version='yes' type='func-type' binding='global-binding' visibility='default-visibility' is-defined='yes'/>
    <elf-symbol name='_ZN20wxLongStringPropertyC1ERK8wxStringS2_S2_' version='WXU_3.2' is-default-version='yes' type='func-type' binding='global-binding' visibility='default-visibility' is-defined='yes'/>
    <elf-symbol name='_ZN20wxLongStringPropertyC2ERK8wxStringS2_S2_' version='WXU_3.2' is-default-version='yes' type='func-type' binding='global-binding' visibility='default-visibility' alias='_ZN20wxLongStringPropertyC1ERK8wxStringS2_S2_@@WXU_3.2' is-defined='yes'/>
    <elf-symbol name='_ZN20wxLongStringPropertyD0Ev' version='WXU_3.2' is-default-version='yes' type='func-type' binding='global-binding' visibility='default-visibility' is-defined='yes'/>
    <elf-symbol name='_ZN20wxLongStringPropertyD1Ev' version='WXU_3.2' is-default-version='yes' type='func-type' binding='global-binding' visibility='default-visibility' is-defined='yes'/>
    <elf-symbol name='_ZN20wxLongStringPropertyD2Ev' version='WXU_3.2' is-default-version='yes' type='func-type' binding='global-binding' visibility='default-visibility' alias='_ZN20wxLongStringPropertyD1Ev@@WXU_3.2' is-defined='yes'/>
    <elf-symbol name='_ZN20wxPGAttributeStorage3SetERK8wxStringRK9wxVariant' version='WXU_3.2' is-default-version='yes' type='func-type' binding='global-binding' visibility='default-visibility' is-defined='yes'/>
    <elf-symbol name='_ZN20wxPGAttributeStorageC1ERKS_' version='WXU_3.2' is-default-version='yes' type='func-type' binding='global-binding' visibility='default-visibility' is-defined='yes'/>
    <elf-symbol name='_ZN20wxPGAttributeStorageC1Ev' version='WXU_3.2' is-default-version='yes' type='func-type' binding='global-binding' visibility='default-visibility' is-defined='yes'/>
    <elf-symbol name='_ZN20wxPGAttributeStorageC2ERKS_' version='WXU_3.2' is-default-version='yes' type='func-type' binding='global-binding' visibility='default-visibility' alias='_ZN20wxPGAttributeStorageC1ERKS_@@WXU_3.2' is-defined='yes'/>
    <elf-symbol name='_ZN20wxPGAttributeStorageC2Ev' version='WXU_3.2' is-default-version='yes' type='func-type' binding='global-binding' visibility='default-visibility' alias='_ZN20wxPGAttributeStorageC1Ev@@WXU_3.2' is-defined='yes'/>
    <elf-symbol name='_ZN20wxPGAttributeStorageD1Ev' version='WXU_3.2' is-default-version='yes' type='func-type' binding='global-binding' visibility='default-visibility' is-defined='yes'/>
    <elf-symbol name='_ZN20wxPGAttributeStorageD2Ev' version='WXU_3.2' is-default-version='yes' type='func-type' binding='global-binding' visibility='default-visibility' alias='_ZN20wxPGAttributeStorageD1Ev@@WXU_3.2' is-defined='yes'/>
    <elf-symbol name='_ZN20wxPGAttributeStorageaSERKS_' version='WXU_3.2' is-default-version='yes' type='func-type' binding='global-binding' visibility='default-visibility' is-defined='yes'/>
    <elf-symbol name='_ZN21wxArrayStringProperty10OnSetValueEv' version='WXU_3.2' is-default-version='yes' type='func-type' binding='global-binding' visibility='default-visibility' is-defined='yes'/>
    <elf-symbol name='_ZN21wxArrayStringProperty13OnButtonClickEP14wxPropertyGridP8wxWindowPKw' version='WXU_3.2' is-default-version='yes' type='func-type' binding='global-binding' visibility='default-visibility' is-defined='yes'/>
    <elf-symbol name='_ZN21wxArrayStringProperty14DoSetAttributeERK8wxStringR9wxVariant' version='WXU_3.2' is-default-version='yes' type='func-type' binding='global-binding' visibility='default-visibility' is-defined='yes'/>
    <elf-symbol name='_ZN21wxArrayStringProperty14wxCreateObjectEv' version='WXU_3.2' is-default-version='yes' type='func-type' binding='global-binding' visibility='default-visibility' is-defined='yes'/>
    <elf-symbol name='_ZN21wxArrayStringProperty18CreateEditorDialogEv' version='WXU_3.2' is-default-version='yes' type='func-type' binding='global-binding' visibility='default-visibility' is-defined='yes'/>
    <elf-symbol name='_ZN21wxArrayStringProperty18OnCustomStringEditEP8wxWindowR8wxString' version='WXU_3.2' is-default-version='yes' type='func-type' binding='global-binding' visibility='default-visibility' is-defined='yes'/>
    <elf-symbol name='_ZN21wxArrayStringProperty19ArrayStringToStringERK13wxArrayString9wxUniChari' version='WXU_3.2' is-default-version='yes' type='func-type' binding='global-binding' visibility='default-visibility' is-defined='yes'/>
    <elf-symbol name='_ZN21wxArrayStringProperty19DisplayEditorDialogEP14wxPropertyGridR9wxVariant' version='WXU_3.2' is-default-version='yes' type='func-type' binding='global-binding' visibility='default-visibility' is-defined='yes'/>
    <elf-symbol name='_ZN21wxArrayStringProperty21GenerateValueAsStringEv' version='WXU_3.2' is-default-version='yes' type='func-type' binding='global-binding' visibility='default-visibility' is-defined='yes'/>
    <elf-symbol name='_ZN21wxArrayStringPropertyC1ERK8wxStringS2_RK13wxArrayString' version='WXU_3.2' is-default-version='yes' type='func-type' binding='global-binding' visibility='default-visibility' is-defined='yes'/>
    <elf-symbol name='_ZN21wxArrayStringPropertyC2ERK8wxStringS2_RK13wxArrayString' version='WXU_3.2' is-default-version='yes' type='func-type' binding='global-binding' visibility='default-visibility' alias='_ZN21wxArrayStringPropertyC1ERK8wxStringS2_RK13wxArrayString@@WXU_3.2' is-defined='yes'/>
    <elf-symbol name='_ZN21wxArrayStringPropertyD0Ev' version='WXU_3.2' is-default-version='yes' type='func-type' binding='global-binding' visibility='default-visibility' is-defined='yes'/>
    <elf-symbol name='_ZN21wxArrayStringPropertyD1Ev' version='WXU_3.2' is-default-version='yes' type='func-type' binding='global-binding' visibility='default-visibility' is-defined='yes'/>
    <elf-symbol name='_ZN21wxArrayStringPropertyD2Ev' version='WXU_3.2' is-default-version='yes' type='func-type' binding='global-binding' visibility='default-visibility' alias='_ZN21wxArrayStringPropertyD1Ev@@WXU_3.2' is-defined='yes'/>
    <elf-symbol name='_ZN21wxColourPropertyValue14wxCreateObjectEv' version='WXU_3.2' is-default-version='yes' type='func-type' binding='global-binding' visibility='default-visibility' is-defined='yes'/>
    <elf-symbol name='_ZN21wxMultiChoiceProperty10OnSetValueEv' version='WXU_3.2' is-default-version='yes' type='func-type' binding='global-binding' visibility='default-visibility' is-defined='yes'/>
    <elf-symbol name='_ZN21wxMultiChoiceProperty14DoSetAttributeERK8wxStringR9wxVariant' version='WXU_3.2' is-default-version='yes' type='func-type' binding='global-binding' visibility='default-visibility' is-defined='yes'/>
    <elf-symbol name='_ZN21wxMultiChoiceProperty14wxCreateObjectEv' version='WXU_3.2' is-default-version='yes' type='func-type' binding='global-binding' visibility='default-visibility' is-defined='yes'/>
    <elf-symbol name='_ZN21wxMultiChoiceProperty19DisplayEditorDialogEP14wxPropertyGridR9wxVariant' version='WXU_3.2' is-default-version='yes' type='func-type' binding='global-binding' visibility='default-visibility' is-defined='yes'/>
    <elf-symbol name='_ZN21wxMultiChoicePropertyC1ERK8wxStringS2_RK11wxPGChoicesRK13wxArrayString' version='WXU_3.2' is-default-version='yes' type='func-type' binding='global-binding' visibility='default-visibility' is-defined='yes'/>
    <elf-symbol name='_ZN21wxMultiChoicePropertyC1ERK8wxStringS2_RK13wxArrayString' version='WXU_3.2' is-default-version='yes' type='func-type' binding='global-binding' visibility='default-visibility' is-defined='yes'/>
    <elf-symbol name='_ZN21wxMultiChoicePropertyC1ERK8wxStringS2_RK13wxArrayStringS5_' version='WXU_3.2' is-default-version='yes' type='func-type' binding='global-binding' visibility='default-visibility' is-defined='yes'/>
    <elf-symbol name='_ZN21wxMultiChoicePropertyC2ERK8wxStringS2_RK11wxPGChoicesRK13wxArrayString' version='WXU_3.2' is-default-version='yes' type='func-type' binding='global-binding' visibility='default-visibility' alias='_ZN21wxMultiChoicePropertyC1ERK8wxStringS2_RK11wxPGChoicesRK13wxArrayString@@WXU_3.2' is-defined='yes'/>
    <elf-symbol name='_ZN21wxMultiChoicePropertyC2ERK8wxStringS2_RK13wxArrayString' version='WXU_3.2' is-default-version='yes' type='func-type' binding='global-binding' visibility='default-visibility' alias='_ZN21wxMultiChoicePropertyC1ERK8wxStringS2_RK13wxArrayString@@WXU_3.2' is-defined='yes'/>
    <elf-symbol name='_ZN21wxMultiChoicePropertyC2ERK8wxStringS2_RK13wxArrayStringS5_' version='WXU_3.2' is-default-version='yes' type='func-type' binding='global-binding' visibility='default-visibility' alias='_ZN21wxMultiChoicePropertyC1ERK8wxStringS2_RK13wxArrayStringS5_@@WXU_3.2' is-defined='yes'/>
    <elf-symbol name='_ZN21wxMultiChoicePropertyD0Ev' version='WXU_3.2' is-default-version='yes' type='func-type' binding='global-binding' visibility='default-visibility' is-defined='yes'/>
    <elf-symbol name='_ZN21wxMultiChoicePropertyD1Ev' version='WXU_3.2' is-default-version='yes' type='func-type' binding='global-binding' visibility='default-visibility' is-defined='yes'/>
    <elf-symbol name='_ZN21wxMultiChoicePropertyD2Ev' version='WXU_3.2' is-default-version='yes' type='func-type' binding='global-binding' visibility='default-visibility' alias='_ZN21wxMultiChoicePropertyD1Ev@@WXU_3.2' is-defined='yes'/>
    <elf-symbol name='_ZN21wxPGArrayEditorDialog10OnAddClickER14wxCommandEvent' version='WXU_3.2' is-default-version='yes' type='func-type' binding='global-binding' visibility='default-visibility' is-defined='yes'/>
    <elf-symbol name='_ZN21wxPGArrayEditorDialog11OnDownClickER14wxCommandEvent' version='WXU_3.2' is-default-version='yes' type='func-type' binding='global-binding' visibility='default-visibility' is-defined='yes'/>
    <elf-symbol name='_ZN21wxPGArrayEditorDialog13OnDeleteClickER14wxCommandEvent' version='WXU_3.2' is-default-version='yes' type='func-type' binding='global-binding' visibility='default-visibility' is-defined='yes'/>
    <elf-symbol name='_ZN21wxPGArrayEditorDialog14OnEndLabelEditER11wxListEvent' version='WXU_3.2' is-default-version='yes' type='func-type' binding='global-binding' visibility='default-visibility' is-defined='yes'/>
    <elf-symbol name='_ZN21wxPGArrayEditorDialog16OnBeginLabelEditER11wxListEvent' version='WXU_3.2' is-default-version='yes' type='func-type' binding='global-binding' visibility='default-visibility' is-defined='yes'/>
    <elf-symbol name='_ZN21wxPGArrayEditorDialog4InitEv' version='WXU_3.2' is-default-version='yes' type='func-type' binding='global-binding' visibility='default-visibility' is-defined='yes'/>
    <elf-symbol name='_ZN21wxPGArrayEditorDialog6CreateEP8wxWindowRK8wxStringS4_lRK7wxPointRK6wxSize' version='WXU_3.2' is-default-version='yes' type='func-type' binding='global-binding' visibility='default-visibility' is-defined='yes'/>
    <elf-symbol name='_ZN21wxPGArrayEditorDialog6OnIdleER11wxIdleEvent' version='WXU_3.2' is-default-version='yes' type='func-type' binding='global-binding' visibility='default-visibility' is-defined='yes'/>
    <elf-symbol name='_ZN21wxPGArrayEditorDialog9OnUpClickER14wxCommandEvent' version='WXU_3.2' is-default-version='yes' type='func-type' binding='global-binding' visibility='default-visibility' is-defined='yes'/>
    <elf-symbol name='_ZN21wxPGArrayEditorDialogC1Ev' version='WXU_3.2' is-default-version='yes' type='func-type' binding='global-binding' visibility='default-visibility' is-defined='yes'/>
    <elf-symbol name='_ZN21wxPGArrayEditorDialogC2Ev' version='WXU_3.2' is-default-version='yes' type='func-type' binding='global-binding' visibility='default-visibility' alias='_ZN21wxPGArrayEditorDialogC1Ev@@WXU_3.2' is-defined='yes'/>
    <elf-symbol name='_ZN21wxPGInDialogValidator10DoValidateEP14wxPropertyGridP11wxValidatorRK8wxString' version='WXU_3.2' is-default-version='yes' type='func-type' binding='global-binding' visibility='default-visibility' is-defined='yes'/>
    <elf-symbol name='_ZN21wxPropertyGridManager10InsertPageEiRK8wxStringRK14wxBitmapBundleP18wxPropertyGridPage' version='WXU_3.2' is-default-version='yes' type='func-type' binding='global-binding' visibility='default-visibility' is-defined='yes'/>
    <elf-symbol name='_ZN21wxPropertyGridManager10RemovePageEi' version='WXU_3.2' is-default-version='yes' type='func-type' binding='global-binding' visibility='default-visibility' is-defined='yes'/>
    <elf-symbol name='_ZN21wxPropertyGridManager10SelectPageEi' version='WXU_3.2' is-default-version='yes' type='func-type' binding='global-binding' visibility='default-visibility' is-defined='yes'/>
    <elf-symbol name='_ZN21wxPropertyGridManager10ShowHeaderEb' version='WXU_3.2' is-default-version='yes' type='func-type' binding='global-binding' visibility='default-visibility' is-defined='yes'/>
    <elf-symbol name='_ZN21wxPropertyGridManager11OnMouseMoveER12wxMouseEvent' version='WXU_3.2' is-default-version='yes' type='func-type' binding='global-binding' visibility='default-visibility' is-defined='yes'/>
    <elf-symbol name='_ZN21wxPropertyGridManager11OnPGScrollHER19wxPropertyGridEvent' version='WXU_3.2' is-default-version='yes' type='func-type' binding='global-binding' visibility='default-visibility' is-defined='yes'/>
    <elf-symbol name='_ZN21wxPropertyGridManager12DoSelectPageEi' version='WXU_3.2' is-default-version='yes' type='func-type' binding='global-binding' visibility='default-visibility' is-defined='yes'/>
    <elf-symbol name='_ZN21wxPropertyGridManager12OnMouseClickER12wxMouseEvent' version='WXU_3.2' is-default-version='yes' type='func-type' binding='global-binding' visibility='default-visibility' is-defined='yes'/>
    <elf-symbol name='_ZN21wxPropertyGridManager12OnMouseEntryER12wxMouseEvent' version='WXU_3.2' is-default-version='yes' type='func-type' binding='global-binding' visibility='default-visibility' is-defined='yes'/>
    <elf-symbol name='_ZN21wxPropertyGridManager12ProcessEventER7wxEvent' version='WXU_3.2' is-default-version='yes' type='func-type' binding='global-binding' visibility='default-visibility' is-defined='yes'/>
    <elf-symbol name='_ZN21wxPropertyGridManager13EnsureVisibleERK14wxPGPropArgCls' version='WXU_3.2' is-default-version='yes' type='func-type' binding='global-binding' visibility='default-visibility' is-defined='yes'/>
    <elf-symbol name='_ZN21wxPropertyGridManager13SetExtraStyleEl' version='WXU_3.2' is-default-version='yes' type='func-type' binding='global-binding' visibility='default-visibility' is-defined='yes'/>
    <elf-symbol name='_ZN21wxPropertyGridManager14OnToolbarClickER14wxCommandEvent' version='WXU_3.2' is-default-version='yes' type='func-type' binding='global-binding' visibility='default-visibility' is-defined='yes'/>
    <elf-symbol name='_ZN21wxPropertyGridManager14SetColumnCountEii' version='WXU_3.2' is-default-version='yes' type='func-type' binding='global-binding' visibility='default-visibility' is-defined='yes'/>
    <elf-symbol name='_ZN21wxPropertyGridManager14SetColumnTitleEiRK8wxString' version='WXU_3.2' is-default-version='yes' type='func-type' binding='global-binding' visibility='default-visibility' is-defined='yes'/>
    <elf-symbol name='_ZN21wxPropertyGridManager14SetDescriptionERK8wxStringS2_' version='WXU_3.2' is-default-version='yes' type='func-type' binding='global-binding' visibility='default-visibility' is-defined='yes'/>
    <elf-symbol name='_ZN21wxPropertyGridManager15RefreshPropertyEP12wxPGProperty' version='WXU_3.2' is-default-version='yes' type='func-type' binding='global-binding' visibility='default-visibility' is-defined='yes'/>
    <elf-symbol name='_ZN21wxPropertyGridManager15SetSplitterLeftEbb' version='WXU_3.2' is-default-version='yes' type='func-type' binding='global-binding' visibility='default-visibility' is-defined='yes'/>
    <elf-symbol name='_ZN21wxPropertyGridManager16RecreateControlsEv' version='WXU_3.2' is-default-version='yes' type='func-type' binding='global-binding' visibility='default-visibility' is-defined='yes'/>
    <elf-symbol name='_ZN21wxPropertyGridManager16SetDescBoxHeightEib' version='WXU_3.2' is-default-version='yes' type='func-type' binding='global-binding' visibility='default-visibility' is-defined='yes'/>
    <elf-symbol name='_ZN21wxPropertyGridManager18OnColWidthsChangedER19wxPropertyGridEvent' version='WXU_3.2' is-default-version='yes' type='func-type' binding='global-binding' visibility='default-visibility' is-defined='yes'/>
    <elf-symbol name='_ZN21wxPropertyGridManager18SetWindowStyleFlagEl' version='WXU_3.2' is-default-version='yes' type='func-type' binding='global-binding' visibility='default-visibility' is-defined='yes'/>
    <elf-symbol name='_ZN21wxPropertyGridManager19SetPageSplitterLeftEib' version='WXU_3.2' is-default-version='yes' type='func-type' binding='global-binding' visibility='default-visibility' is-defined='yes'/>
    <elf-symbol name='_ZN21wxPropertyGridManager19SetSplitterPositionEii' version='WXU_3.2' is-default-version='yes' type='func-type' binding='global-binding' visibility='default-visibility' is-defined='yes'/>
    <elf-symbol name='_ZN21wxPropertyGridManager20OnPropertyGridSelectER19wxPropertyGridEvent' version='WXU_3.2' is-default-version='yes' type='func-type' binding='global-binding' visibility='default-visibility' is-defined='yes'/>
    <elf-symbol name='_ZN21wxPropertyGridManager20RecalculatePositionsEii' version='WXU_3.2' is-default-version='yes' type='func-type' binding='global-binding' visibility='default-visibility' is-defined='yes'/>
    <elf-symbol name='_ZN21wxPropertyGridManager20SetDescribedPropertyEP12wxPGProperty' version='WXU_3.2' is-default-version='yes' type='func-type' binding='global-binding' visibility='default-visibility' is-defined='yes'/>
    <elf-symbol name='_ZN21wxPropertyGridManager20SetEditableStateItemERK8wxString9wxVariant' version='WXU_3.2' is-default-version='yes' type='func-type' binding='global-binding' visibility='default-visibility' is-defined='yes'/>
    <elf-symbol name='_ZN21wxPropertyGridManager20UpdateDescriptionBoxEiii' version='WXU_3.2' is-default-version='yes' type='func-type' binding='global-binding' visibility='default-visibility' is-defined='yes'/>
    <elf-symbol name='_ZN21wxPropertyGridManager22ReconnectEventHandlersEii' version='WXU_3.2' is-default-version='yes' type='func-type' binding='global-binding' visibility='default-visibility' is-defined='yes'/>
    <elf-symbol name='_ZN21wxPropertyGridManager23SetPageSplitterPositionEiii' version='WXU_3.2' is-default-version='yes' type='func-type' binding='global-binding' visibility='default-visibility' is-defined='yes'/>
    <elf-symbol name='_ZN21wxPropertyGridManager25RepaintDescBoxDecorationsER4wxDCiii' version='WXU_3.2' is-default-version='yes' type='func-type' binding='global-binding' visibility='default-visibility' is-defined='yes'/>
    <elf-symbol name='_ZN21wxPropertyGridManager5ClearEv' version='WXU_3.2' is-default-version='yes' type='func-type' binding='global-binding' visibility='default-visibility' is-defined='yes'/>
    <elf-symbol name='_ZN21wxPropertyGridManager5Init1Ev' version='WXU_3.2' is-default-version='yes' type='func-type' binding='global-binding' visibility='default-visibility' is-defined='yes'/>
    <elf-symbol name='_ZN21wxPropertyGridManager5Init2Ei' version='WXU_3.2' is-default-version='yes' type='func-type' binding='global-binding' visibility='default-visibility' is-defined='yes'/>
    <elf-symbol name='_ZN21wxPropertyGridManager5SetIdEi' version='WXU_3.2' is-default-version='yes' type='func-type' binding='global-binding' visibility='default-visibility' is-defined='yes'/>
    <elf-symbol name='_ZN21wxPropertyGridManager6CreateEP8wxWindowiRK7wxPointRK6wxSizelRK8wxString' version='WXU_3.2' is-default-version='yes' type='func-type' binding='global-binding' visibility='default-visibility' is-defined='yes'/>
    <elf-symbol name='_ZN21wxPropertyGridManager7OnPaintER12wxPaintEvent' version='WXU_3.2' is-default-version='yes' type='func-type' binding='global-binding' visibility='default-visibility' is-defined='yes'/>
    <elf-symbol name='_ZN21wxPropertyGridManager7SetFontERK6wxFont' version='WXU_3.2' is-default-version='yes' type='func-type' binding='global-binding' visibility='default-visibility' is-defined='yes'/>
    <elf-symbol name='_ZN21wxPropertyGridManager8OnResizeER11wxSizeEvent' version='WXU_3.2' is-default-version='yes' type='func-type' binding='global-binding' visibility='default-visibility' is-defined='yes'/>
    <elf-symbol name='_ZN21wxPropertyGridManager8ReparentEP12wxWindowBase' version='WXU_3.2' is-default-version='yes' type='func-type' binding='global-binding' visibility='default-visibility' is-defined='yes'/>
    <elf-symbol name='_ZN21wxPropertyGridManager9ClearPageEi' version='WXU_3.2' is-default-version='yes' type='func-type' binding='global-binding' visibility='default-visibility' is-defined='yes'/>
    <elf-symbol name='_ZN21wxPropertyGridManager9OnMouseUpER12wxMouseEvent' version='WXU_3.2' is-default-version='yes' type='func-type' binding='global-binding' visibility='default-visibility' is-defined='yes'/>
    <elf-symbol name='_ZN21wxPropertyGridManagerC1EP8wxWindowiRK7wxPointRK6wxSizelRK8wxString' version='WXU_3.2' is-default-version='yes' type='func-type' binding='global-binding' visibility='default-visibility' is-defined='yes'/>
    <elf-symbol name='_ZN21wxPropertyGridManagerC1Ev' version='WXU_3.2' is-default-version='yes' type='func-type' binding='global-binding' visibility='default-visibility' is-defined='yes'/>
    <elf-symbol name='_ZN21wxPropertyGridManagerC2EP8wxWindowiRK7wxPointRK6wxSizelRK8wxString' version='WXU_3.2' is-default-version='yes' type='func-type' binding='global-binding' visibility='default-visibility' alias='_ZN21wxPropertyGridManagerC1EP8wxWindowiRK7wxPointRK6wxSizelRK8wxString@@WXU_3.2' is-defined='yes'/>
    <elf-symbol name='_ZN21wxPropertyGridManagerC2Ev' version='WXU_3.2' is-default-version='yes' type='func-type' binding='global-binding' visibility='default-visibility' alias='_ZN21wxPropertyGridManagerC1Ev@@WXU_3.2' is-defined='yes'/>
    <elf-symbol name='_ZN21wxPropertyGridManagerD0Ev' version='WXU_3.2' is-default-version='yes' type='func-type' binding='global-binding' visibility='default-visibility' is-defined='yes'/>
    <elf-symbol name='_ZN21wxPropertyGridManagerD1Ev' version='WXU_3.2' is-default-version='yes' type='func-type' binding='global-binding' visibility='default-visibility' is-defined='yes'/>
    <elf-symbol name='_ZN21wxPropertyGridManagerD2Ev' version='WXU_3.2' is-default-version='yes' type='func-type' binding='global-binding' visibility='default-visibility' alias='_ZN21wxPropertyGridManagerD1Ev@@WXU_3.2' is-defined='yes'/>
    <elf-symbol name='_ZN22wxEditorDialogProperty14DoSetAttributeERK8wxStringR9wxVariant' version='WXU_3.2' is-default-version='yes' type='func-type' binding='global-binding' visibility='default-visibility' is-defined='yes'/>
    <elf-symbol name='_ZN22wxEditorDialogPropertyC1ERK8wxStringS2_' version='WXU_3.2' is-default-version='yes' type='func-type' binding='global-binding' visibility='default-visibility' is-defined='yes'/>
    <elf-symbol name='_ZN22wxEditorDialogPropertyC2ERK8wxStringS2_' version='WXU_3.2' is-default-version='yes' type='func-type' binding='global-binding' visibility='default-visibility' alias='_ZN22wxEditorDialogPropertyC1ERK8wxStringS2_@@WXU_3.2' is-defined='yes'/>
    <elf-symbol name='_ZN22wxEditorDialogPropertyD0Ev' version='WXU_3.2' is-default-version='yes' type='func-type' binding='global-binding' visibility='default-visibility' is-defined='yes'/>
    <elf-symbol name='_ZN22wxEditorDialogPropertyD1Ev' version='WXU_3.2' is-default-version='yes' type='func-type' binding='global-binding' visibility='default-visibility' alias='_ZN22wxEditorDialogPropertyD2Ev@@WXU_3.2' is-defined='yes'/>
    <elf-symbol name='_ZN22wxEditorDialogPropertyD2Ev' version='WXU_3.2' is-default-version='yes' type='func-type' binding='global-binding' visibility='default-visibility' is-defined='yes'/>
    <elf-symbol name='_ZN22wxSystemColourProperty10OnSetValueEv' version='WXU_3.2' is-default-version='yes' type='func-type' binding='global-binding' visibility='default-visibility' is-defined='yes'/>
    <elf-symbol name='_ZN22wxSystemColourProperty13OnCustomPaintER4wxDCRK6wxRectR13wxPGPaintData' version='WXU_3.2' is-default-version='yes' type='func-type' binding='global-binding' visibility='default-visibility' is-defined='yes'/>
    <elf-symbol name='_ZN22wxSystemColourProperty14DoSetAttributeERK8wxStringR9wxVariant' version='WXU_3.2' is-default-version='yes' type='func-type' binding='global-binding' visibility='default-visibility' is-defined='yes'/>
    <elf-symbol name='_ZN22wxSystemColourProperty14wxCreateObjectEv' version='WXU_3.2' is-default-version='yes' type='func-type' binding='global-binding' visibility='default-visibility' is-defined='yes'/>
    <elf-symbol name='_ZN22wxSystemColourProperty4InitEiRK8wxColour' version='WXU_3.2' is-default-version='yes' type='func-type' binding='global-binding' visibility='default-visibility' is-defined='yes'/>
    <elf-symbol name='_ZN22wxSystemColourProperty7OnEventEP14wxPropertyGridP8wxWindowR7wxEvent' version='WXU_3.2' is-default-version='yes' type='func-type' binding='global-binding' visibility='default-visibility' is-defined='yes'/>
    <elf-symbol name='_ZN22wxSystemColourPropertyC1ERK8wxStringS2_PKPKcPKlP11wxPGChoicesRK21wxColourPropertyValue' version='WXU_3.2' is-default-version='yes' type='func-type' binding='global-binding' visibility='default-visibility' is-defined='yes'/>
    <elf-symbol name='_ZN22wxSystemColourPropertyC1ERK8wxStringS2_PKPKcPKlP11wxPGChoicesRK8wxColour' version='WXU_3.2' is-default-version='yes' type='func-type' binding='global-binding' visibility='default-visibility' is-defined='yes'/>
    <elf-symbol name='_ZN22wxSystemColourPropertyC1ERK8wxStringS2_RK21wxColourPropertyValue' version='WXU_3.2' is-default-version='yes' type='func-type' binding='global-binding' visibility='default-visibility' is-defined='yes'/>
    <elf-symbol name='_ZN22wxSystemColourPropertyC2ERK8wxStringS2_PKPKcPKlP11wxPGChoicesRK21wxColourPropertyValue' version='WXU_3.2' is-default-version='yes' type='func-type' binding='global-binding' visibility='default-visibility' alias='_ZN22wxSystemColourPropertyC1ERK8wxStringS2_PKPKcPKlP11wxPGChoicesRK21wxColourPropertyValue@@WXU_3.2' is-defined='yes'/>
    <elf-symbol name='_ZN22wxSystemColourPropertyC2ERK8wxStringS2_PKPKcPKlP11wxPGChoicesRK8wxColour' version='WXU_3.2' is-default-version='yes' type='func-type' binding='global-binding' visibility='default-visibility' alias='_ZN22wxSystemColourPropertyC1ERK8wxStringS2_PKPKcPKlP11wxPGChoicesRK8wxColour@@WXU_3.2' is-defined='yes'/>
    <elf-symbol name='_ZN22wxSystemColourPropertyC2ERK8wxStringS2_RK21wxColourPropertyValue' version='WXU_3.2' is-default-version='yes' type='func-type' binding='global-binding' visibility='default-visibility' alias='_ZN22wxSystemColourPropertyC1ERK8wxStringS2_RK21wxColourPropertyValue@@WXU_3.2' is-defined='yes'/>
    <elf-symbol name='_ZN22wxSystemColourPropertyD0Ev' version='WXU_3.2' is-default-version='yes' type='func-type' binding='global-binding' visibility='default-visibility' is-defined='yes'/>
    <elf-symbol name='_ZN22wxSystemColourPropertyD1Ev' version='WXU_3.2' is-default-version='yes' type='func-type' binding='global-binding' visibility='default-visibility' is-defined='yes'/>
    <elf-symbol name='_ZN22wxSystemColourPropertyD2Ev' version='WXU_3.2' is-default-version='yes' type='func-type' binding='global-binding' visibility='default-visibility' alias='_ZN22wxSystemColourPropertyD1Ev@@WXU_3.2' is-defined='yes'/>
    <elf-symbol name='_ZN23wxPGEditorDialogAdapter10ShowDialogEP14wxPropertyGridP12wxPGProperty' version='WXU_3.2' is-default-version='yes' type='func-type' binding='global-binding' visibility='default-visibility' is-defined='yes'/>
    <elf-symbol name='_ZN23wxPropertyGridInterface10SetPropValERK14wxPGPropArgClsR9wxVariant' version='WXU_3.2' is-default-version='yes' type='func-type' binding='global-binding' visibility='default-visibility' is-defined='yes'/>
    <elf-symbol name='_ZN23wxPropertyGridInterface11RefreshGridEP23wxPropertyGridPageState' version='WXU_3.2' is-default-version='yes' type='func-type' binding='global-binding' visibility='default-visibility' is-defined='yes'/>
    <elf-symbol name='_ZN23wxPropertyGridInterface12HidePropertyERK14wxPGPropArgClsbi' version='WXU_3.2' is-default-version='yes' type='func-type' binding='global-binding' visibility='default-visibility' is-defined='yes'/>
    <elf-symbol name='_ZN23wxPropertyGridInterface14ClearSelectionEb' version='WXU_3.2' is-default-version='yes' type='func-type' binding='global-binding' visibility='default-visibility' is-defined='yes'/>
    <elf-symbol name='_ZN23wxPropertyGridInterface14DeletePropertyERK14wxPGPropArgCls' version='WXU_3.2' is-default-version='yes' type='func-type' binding='global-binding' visibility='default-visibility' is-defined='yes'/>
    <elf-symbol name='_ZN23wxPropertyGridInterface14EditorValidateEv' version='WXU_3.2' is-default-version='yes' type='func-type' binding='global-binding' visibility='default-visibility' is-defined='yes'/>
    <elf-symbol name='_ZN23wxPropertyGridInterface14EnablePropertyERK14wxPGPropArgClsb' version='WXU_3.2' is-default-version='yes' type='func-type' binding='global-binding' visibility='default-visibility' is-defined='yes'/>
    <elf-symbol name='_ZN23wxPropertyGridInterface14EndAddChildrenERK14wxPGPropArgCls' version='WXU_3.2' is-default-version='yes' type='func-type' binding='global-binding' visibility='default-visibility' is-defined='yes'/>
    <elf-symbol name='_ZN23wxPropertyGridInterface14RemovePropertyERK14wxPGPropArgCls' version='WXU_3.2' is-default-version='yes' type='func-type' binding='global-binding' visibility='default-visibility' is-defined='yes'/>
    <elf-symbol name='_ZN23wxPropertyGridInterface14SetBoolChoicesERK8wxStringS2_' version='WXU_3.2' is-default-version='yes' type='func-type' binding='global-binding' visibility='default-visibility' is-defined='yes'/>
    <elf-symbol name='_ZN23wxPropertyGridInterface15GetEditorByNameERK8wxString' version='WXU_3.2' is-default-version='yes' type='func-type' binding='global-binding' visibility='default-visibility' is-defined='yes'/>
    <elf-symbol name='_ZN23wxPropertyGridInterface15ReplacePropertyERK14wxPGPropArgClsP12wxPGProperty' version='WXU_3.2' is-default-version='yes' type='func-type' binding='global-binding' visibility='default-visibility' is-defined='yes'/>
    <elf-symbol name='_ZN23wxPropertyGridInterface15SetPropertyCellERK14wxPGPropArgClsiRK8wxStringRK14wxBitmapBundleRK8wxColourSB_' version='WXU_3.2' is-default-version='yes' type='func-type' binding='global-binding' visibility='default-visibility' is-defined='yes'/>
    <elf-symbol name='_ZN23wxPropertyGridInterface16BeginAddChildrenERK14wxPGPropArgCls' version='WXU_3.2' is-default-version='yes' type='func-type' binding='global-binding' visibility='default-visibility' is-defined='yes'/>
    <elf-symbol name='_ZN23wxPropertyGridInterface16DoClearSelectionEbi' version='WXU_3.2' is-default-version='yes' type='func-type' binding='global-binding' visibility='default-visibility' is-defined='yes'/>
    <elf-symbol name='_ZN23wxPropertyGridInterface16GetPropertyValueERK14wxPGPropArgCls' version='WXU_3.2' is-default-version='yes' type='func-type' binding='global-binding' visibility='default-visibility' is-defined='yes'/>
    <elf-symbol name='_ZN23wxPropertyGridInterface16SetPropertyLabelERK14wxPGPropArgClsRK8wxString' version='WXU_3.2' is-default-version='yes' type='func-type' binding='global-binding' visibility='default-visibility' is-defined='yes'/>
    <elf-symbol name='_ZN23wxPropertyGridInterface19ChangePropertyValueERK14wxPGPropArgCls9wxVariant' version='WXU_3.2' is-default-version='yes' type='func-type' binding='global-binding' visibility='default-visibility' is-defined='yes'/>
    <elf-symbol name='_ZN23wxPropertyGridInterface19ClearModifiedStatusEv' version='WXU_3.2' is-default-version='yes' type='func-type' binding='global-binding' visibility='default-visibility' is-defined='yes'/>
    <elf-symbol name='_ZN23wxPropertyGridInterface19InitAllTypeHandlersEv' version='WXU_3.2' is-default-version='yes' type='func-type' binding='global-binding' visibility='default-visibility' is-defined='yes'/>
    <elf-symbol name='_ZN23wxPropertyGridInterface19SetColumnProportionEji' version='WXU_3.2' is-default-version='yes' type='func-type' binding='global-binding' visibility='default-visibility' is-defined='yes'/>
    <elf-symbol name='_ZN23wxPropertyGridInterface19SetPropertyReadOnlyERK14wxPGPropArgClsbi' version='WXU_3.2' is-default-version='yes' type='func-type' binding='global-binding' visibility='default-visibility' is-defined='yes'/>
    <elf-symbol name='_ZN23wxPropertyGridInterface20LimitPropertyEditingERK14wxPGPropArgClsb' version='WXU_3.2' is-default-version='yes' type='func-type' binding='global-binding' visibility='default-visibility' is-defined='yes'/>
    <elf-symbol name='_ZN23wxPropertyGridInterface20RestoreEditableStateERK8wxStringi' version='WXU_3.2' is-default-version='yes' type='func-type' binding='global-binding' visibility='default-visibility' is-defined='yes'/>
    <elf-symbol name='_ZN23wxPropertyGridInterface20SetPropertyMaxLengthERK14wxPGPropArgClsi' version='WXU_3.2' is-default-version='yes' type='func-type' binding='global-binding' visibility='default-visibility' is-defined='yes'/>
    <elf-symbol name='_ZN23wxPropertyGridInterface21SetPropertyTextColourERK14wxPGPropArgClsRK8wxColouri' version='WXU_3.2' is-default-version='yes' type='func-type' binding='global-binding' visibility='default-visibility' is-defined='yes'/>
    <elf-symbol name='_ZN23wxPropertyGridInterface22DoSetPropertyAttributeERK14wxPGPropArgClsRK8wxStringR9wxVariantl' version='WXU_3.2' is-default-version='yes' type='func-type' binding='global-binding' visibility='default-visibility' is-defined='yes'/>
    <elf-symbol name='_ZN23wxPropertyGridInterface22SetPropertyValueStringERK14wxPGPropArgClsRK8wxString' version='WXU_3.2' is-default-version='yes' type='func-type' binding='global-binding' visibility='default-visibility' is-defined='yes'/>
    <elf-symbol name='_ZN23wxPropertyGridInterface23SetPropertyAttributeAllERK8wxString9wxVariant' version='WXU_3.2' is-default-version='yes' type='func-type' binding='global-binding' visibility='default-visibility' is-defined='yes'/>
    <elf-symbol name='_ZN23wxPropertyGridInterface25RegisterAdditionalEditorsEv' version='WXU_3.2' is-default-version='yes' type='func-type' binding='global-binding' visibility='default-visibility' is-defined='yes'/>
    <elf-symbol name='_ZN23wxPropertyGridInterface27SetPropertyBackgroundColourERK14wxPGPropArgClsRK8wxColouri' version='WXU_3.2' is-default-version='yes' type='func-type' binding='global-binding' visibility='default-visibility' is-defined='yes'/>
    <elf-symbol name='_ZN23wxPropertyGridInterface27SetPropertyColoursToDefaultERK14wxPGPropArgCls' version='WXU_3.2' is-default-version='yes' type='func-type' binding='global-binding' visibility='default-visibility' is-defined='yes'/>
    <elf-symbol name='_ZN23wxPropertyGridInterface27SetPropertyColoursToDefaultERK14wxPGPropArgClsi' version='WXU_3.2' is-default-version='yes' type='func-type' binding='global-binding' visibility='default-visibility' is-defined='yes'/>
    <elf-symbol name='_ZN23wxPropertyGridInterface28SetValidationFailureBehaviorEi' version='WXU_3.2' is-default-version='yes' type='func-type' binding='global-binding' visibility='default-visibility' is-defined='yes'/>
    <elf-symbol name='_ZN23wxPropertyGridInterface4SortEi' version='WXU_3.2' is-default-version='yes' type='func-type' binding='global-binding' visibility='default-visibility' is-defined='yes'/>
    <elf-symbol name='_ZN23wxPropertyGridInterface6AppendEP12wxPGProperty' version='WXU_3.2' is-default-version='yes' type='func-type' binding='global-binding' visibility='default-visibility' is-defined='yes'/>
    <elf-symbol name='_ZN23wxPropertyGridInterface6ExpandERK14wxPGPropArgCls' version='WXU_3.2' is-default-version='yes' type='func-type' binding='global-binding' visibility='default-visibility' is-defined='yes'/>
    <elf-symbol name='_ZN23wxPropertyGridInterface6InsertERK14wxPGPropArgClsP12wxPGProperty' version='WXU_3.2' is-default-version='yes' type='func-type' binding='global-binding' visibility='default-visibility' is-defined='yes'/>
    <elf-symbol name='_ZN23wxPropertyGridInterface6InsertERK14wxPGPropArgClsiP12wxPGProperty' version='WXU_3.2' is-default-version='yes' type='func-type' binding='global-binding' visibility='default-visibility' is-defined='yes'/>
    <elf-symbol name='_ZN23wxPropertyGridInterface8AppendInERK14wxPGPropArgClsP12wxPGProperty' version='WXU_3.2' is-default-version='yes' type='func-type' binding='global-binding' visibility='default-visibility' is-defined='yes'/>
    <elf-symbol name='_ZN23wxPropertyGridInterface8CollapseERK14wxPGPropArgCls' version='WXU_3.2' is-default-version='yes' type='func-type' binding='global-binding' visibility='default-visibility' is-defined='yes'/>
    <elf-symbol name='_ZN23wxPropertyGridInterface9ExpandAllEb' version='WXU_3.2' is-default-version='yes' type='func-type' binding='global-binding' visibility='default-visibility' is-defined='yes'/>
    <elf-symbol name='_ZN23wxPropertyGridPageState10DoCollapseEP12wxPGProperty' version='WXU_3.2' is-default-version='yes' type='func-type' binding='global-binding' visibility='default-visibility' is-defined='yes'/>
    <elf-symbol name='_ZN23wxPropertyGridPageState11GetLastItemEi' version='WXU_3.2' is-default-version='yes' type='func-type' binding='global-binding' visibility='default-visibility' is-defined='yes'/>
    <elf-symbol name='_ZN23wxPropertyGridPageState12DoFitColumnsEb' version='WXU_3.2' is-default-version='yes' type='func-type' binding='global-binding' visibility='default-visibility' is-defined='yes'/>
    <elf-symbol name='_ZN23wxPropertyGridPageState14DoHidePropertyEP12wxPGPropertybi' version='WXU_3.2' is-default-version='yes' type='func-type' binding='global-binding' visibility='default-visibility' is-defined='yes'/>
    <elf-symbol name='_ZN23wxPropertyGridPageState14DoSortChildrenEP12wxPGPropertyi' version='WXU_3.2' is-default-version='yes' type='func-type' binding='global-binding' visibility='default-visibility' is-defined='yes'/>
    <elf-symbol name='_ZN23wxPropertyGridPageState14InitNonCatModeEv' version='WXU_3.2' is-default-version='yes' type='func-type' binding='global-binding' visibility='default-visibility' is-defined='yes'/>
    <elf-symbol name='_ZN23wxPropertyGridPageState14SetColumnCountEi' version='WXU_3.2' is-default-version='yes' type='func-type' binding='global-binding' visibility='default-visibility' is-defined='yes'/>
    <elf-symbol name='_ZN23wxPropertyGridPageState15IsChildCategoryEP12wxPGPropertyP18wxPropertyCategoryb' version='WXU_3.2' is-default-version='yes' type='func-type' binding='global-binding' visibility='default-visibility' is-defined='yes'/>
    <elf-symbol name='_ZN23wxPropertyGridPageState15SetSplitterLeftEb' version='WXU_3.2' is-default-version='yes' type='func-type' binding='global-binding' visibility='default-visibility' is-defined='yes'/>
    <elf-symbol name='_ZN23wxPropertyGridPageState15SetVirtualWidthEi' version='WXU_3.2' is-default-version='yes' type='func-type' binding='global-binding' visibility='default-visibility' is-defined='yes'/>
    <elf-symbol name='_ZN23wxPropertyGridPageState16DoSelectPropertyEP12wxPGPropertyj' version='WXU_3.2' is-default-version='yes' type='func-type' binding='global-binding' visibility='default-visibility' is-defined='yes'/>
    <elf-symbol name='_ZN23wxPropertyGridPageState16EnableCategoriesEb' version='WXU_3.2' is-default-version='yes' type='func-type' binding='global-binding' visibility='default-visibility' is-defined='yes'/>
    <elf-symbol name='_ZN23wxPropertyGridPageState16PrepareToAddItemEP12wxPGPropertyS1_' version='WXU_3.2' is-default-version='yes' type='func-type' binding='global-binding' visibility='default-visibility' is-defined='yes'/>
    <elf-symbol name='_ZN23wxPropertyGridPageState16ResetColumnSizesEi' version='WXU_3.2' is-default-version='yes' type='func-type' binding='global-binding' visibility='default-visibility' is-defined='yes'/>
    <elf-symbol name='_ZN23wxPropertyGridPageState17CheckColumnWidthsEi' version='WXU_3.2' is-default-version='yes' type='func-type' binding='global-binding' visibility='default-visibility' is-defined='yes'/>
    <elf-symbol name='_ZN23wxPropertyGridPageState17DoSetPropertyNameEP12wxPGPropertyRK8wxString' version='WXU_3.2' is-default-version='yes' type='func-type' binding='global-binding' visibility='default-visibility' is-defined='yes'/>
    <elf-symbol name='_ZN23wxPropertyGridPageState18DoSetPropertyValueEP12wxPGPropertyR9wxVariant' version='WXU_3.2' is-default-version='yes' type='func-type' binding='global-binding' visibility='default-visibility' is-defined='yes'/>
    <elf-symbol name='_ZN23wxPropertyGridPageState18GetColumnFullWidthERK4wxDCP12wxPGPropertyj' version='WXU_3.2' is-default-version='yes' type='func-type' binding='global-binding' visibility='default-visibility' is-defined='yes'/>
    <elf-symbol name='_ZN23wxPropertyGridPageState19DoSetPropertyValuesERK13wxVariantListP12wxPGProperty' version='WXU_3.2' is-default-version='yes' type='func-type' binding='global-binding' visibility='default-visibility' is-defined='yes'/>
    <elf-symbol name='_ZN23wxPropertyGridPageState19OnClientWidthChangeEiib' version='WXU_3.2' is-default-version='yes' type='func-type' binding='global-binding' visibility='default-visibility' is-defined='yes'/>
    <elf-symbol name='_ZN23wxPropertyGridPageState19PropagateColSizeDecEiii' version='WXU_3.2' is-default-version='yes' type='func-type' binding='global-binding' visibility='default-visibility' is-defined='yes'/>
    <elf-symbol name='_ZN23wxPropertyGridPageState21DoRemoveFromSelectionEP12wxPGProperty' version='WXU_3.2' is-default-version='yes' type='func-type' binding='global-binding' visibility='default-visibility' is-defined='yes'/>
    <elf-symbol name='_ZN23wxPropertyGridPageState21DoSetColumnProportionEji' version='WXU_3.2' is-default-version='yes' type='func-type' binding='global-binding' visibility='default-visibility' is-defined='yes'/>
    <elf-symbol name='_ZN23wxPropertyGridPageState21DoSetSplitterPositionEiii' version='WXU_3.2' is-default-version='yes' type='func-type' binding='global-binding' visibility='default-visibility' is-defined='yes'/>
    <elf-symbol name='_ZN23wxPropertyGridPageState22PrepareAfterItemsAddedEv' version='WXU_3.2' is-default-version='yes' type='func-type' binding='global-binding' visibility='default-visibility' is-defined='yes'/>
    <elf-symbol name='_ZN23wxPropertyGridPageState23DoMarkChildrenAsDeletedEP12wxPGPropertyb' version='WXU_3.2' is-default-version='yes' type='func-type' binding='global-binding' visibility='default-visibility' is-defined='yes'/>
    <elf-symbol name='_ZN23wxPropertyGridPageState24DoInvalidatePropertyNameEP12wxPGProperty' version='WXU_3.2' is-default-version='yes' type='func-type' binding='global-binding' visibility='default-visibility' is-defined='yes'/>
    <elf-symbol name='_ZN23wxPropertyGridPageState24DoSetPropertyValueStringEP12wxPGPropertyRK8wxString' version='WXU_3.2' is-default-version='yes' type='func-type' binding='global-binding' visibility='default-visibility' is-defined='yes'/>
    <elf-symbol name='_ZN23wxPropertyGridPageState25DoInvalidateChildrenNamesEP12wxPGPropertyb' version='WXU_3.2' is-default-version='yes' type='func-type' binding='global-binding' visibility='default-visibility' is-defined='yes'/>
    <elf-symbol name='_ZN23wxPropertyGridPageState27CalculateFontAndBitmapStuffEi' version='WXU_3.2' is-default-version='yes' type='func-type' binding='global-binding' visibility='default-visibility' is-defined='yes'/>
    <elf-symbol name='_ZN23wxPropertyGridPageState29DoRemoveChildrenFromSelectionEP12wxPGPropertybi' version='WXU_3.2' is-default-version='yes' type='func-type' binding='global-binding' visibility='default-visibility' is-defined='yes'/>
    <elf-symbol name='_ZN23wxPropertyGridPageState29DoSetPropertyValueWxObjectPtrEP12wxPGPropertyP8wxObject' version='WXU_3.2' is-default-version='yes' type='func-type' binding='global-binding' visibility='default-visibility' is-defined='yes'/>
    <elf-symbol name='_ZN23wxPropertyGridPageState6DoSortEi' version='WXU_3.2' is-default-version='yes' type='func-type' binding='global-binding' visibility='default-visibility' is-defined='yes'/>
    <elf-symbol name='_ZN23wxPropertyGridPageState7DoClearEv' version='WXU_3.2' is-default-version='yes' type='func-type' binding='global-binding' visibility='default-visibility' is-defined='yes'/>
    <elf-symbol name='_ZN23wxPropertyGridPageState8DoAppendEP12wxPGProperty' version='WXU_3.2' is-default-version='yes' type='func-type' binding='global-binding' visibility='default-visibility' is-defined='yes'/>
    <elf-symbol name='_ZN23wxPropertyGridPageState8DoDeleteEP12wxPGPropertyb' version='WXU_3.2' is-default-version='yes' type='func-type' binding='global-binding' visibility='default-visibility' is-defined='yes'/>
    <elf-symbol name='_ZN23wxPropertyGridPageState8DoExpandEP12wxPGProperty' version='WXU_3.2' is-default-version='yes' type='func-type' binding='global-binding' visibility='default-visibility' is-defined='yes'/>
    <elf-symbol name='_ZN23wxPropertyGridPageState8DoInsertEP12wxPGPropertyiS1_' version='WXU_3.2' is-default-version='yes' type='func-type' binding='global-binding' visibility='default-visibility' is-defined='yes'/>
    <elf-symbol name='_ZN23wxPropertyGridPageStateC1Ev' version='WXU_3.2' is-default-version='yes' type='func-type' binding='global-binding' visibility='default-visibility' is-defined='yes'/>
    <elf-symbol name='_ZN23wxPropertyGridPageStateC2Ev' version='WXU_3.2' is-default-version='yes' type='func-type' binding='global-binding' visibility='default-visibility' alias='_ZN23wxPropertyGridPageStateC1Ev@@WXU_3.2' is-defined='yes'/>
    <elf-symbol name='_ZN23wxPropertyGridPageStateD0Ev' version='WXU_3.2' is-default-version='yes' type='func-type' binding='global-binding' visibility='default-visibility' is-defined='yes'/>
    <elf-symbol name='_ZN23wxPropertyGridPageStateD1Ev' version='WXU_3.2' is-default-version='yes' type='func-type' binding='global-binding' visibility='default-visibility' alias='_ZN23wxPropertyGridPageStateD2Ev@@WXU_3.2' is-defined='yes'/>
    <elf-symbol name='_ZN23wxPropertyGridPageStateD2Ev' version='WXU_3.2' is-default-version='yes' type='func-type' binding='global-binding' visibility='default-visibility' is-defined='yes'/>
    <elf-symbol name='_ZN23wxPropertyGridPopulator11AddChildrenEP12wxPGProperty' version='WXU_3.2' is-default-version='yes' type='func-type' binding='global-binding' visibility='default-visibility' is-defined='yes'/>
    <elf-symbol name='_ZN23wxPropertyGridPopulator12AddAttributeERK8wxStringS2_S2_' version='WXU_3.2' is-default-version='yes' type='func-type' binding='global-binding' visibility='default-visibility' is-defined='yes'/>
    <elf-symbol name='_ZN23wxPropertyGridPopulator12ParseChoicesERK8wxStringS2_' version='WXU_3.2' is-default-version='yes' type='func-type' binding='global-binding' visibility='default-visibility' is-defined='yes'/>
    <elf-symbol name='_ZN23wxPropertyGridPopulator12ProcessErrorERK8wxString' version='WXU_3.2' is-default-version='yes' type='func-type' binding='global-binding' visibility='default-visibility' is-defined='yes'/>
    <elf-symbol name='_ZN23wxPropertyGridPopulator3AddERK8wxStringS2_S2_PS1_P11wxPGChoices' version='WXU_3.2' is-default-version='yes' type='func-type' binding='global-binding' visibility='default-visibility' is-defined='yes'/>
    <elf-symbol name='_ZN23wxPropertyGridPopulator7SetGridEP14wxPropertyGrid' version='WXU_3.2' is-default-version='yes' type='func-type' binding='global-binding' visibility='default-visibility' is-defined='yes'/>
    <elf-symbol name='_ZN23wxPropertyGridPopulator8SetStateEP23wxPropertyGridPageState' version='WXU_3.2' is-default-version='yes' type='func-type' binding='global-binding' visibility='default-visibility' is-defined='yes'/>
    <elf-symbol name='_ZN23wxPropertyGridPopulator9ToLongPCTERK8wxStringPll' version='WXU_3.2' is-default-version='yes' type='func-type' binding='global-binding' visibility='default-visibility' is-defined='yes'/>
    <elf-symbol name='_ZN23wxPropertyGridPopulatorC1Ev' version='WXU_3.2' is-default-version='yes' type='func-type' binding='global-binding' visibility='default-visibility' is-defined='yes'/>
    <elf-symbol name='_ZN23wxPropertyGridPopulatorC2Ev' version='WXU_3.2' is-default-version='yes' type='func-type' binding='global-binding' visibility='default-visibility' alias='_ZN23wxPropertyGridPopulatorC1Ev@@WXU_3.2' is-defined='yes'/>
    <elf-symbol name='_ZN23wxPropertyGridPopulatorD0Ev' version='WXU_3.2' is-default-version='yes' type='func-type' binding='global-binding' visibility='default-visibility' is-defined='yes'/>
    <elf-symbol name='_ZN23wxPropertyGridPopulatorD1Ev' version='WXU_3.2' is-default-version='yes' type='func-type' binding='global-binding' visibility='default-visibility' is-defined='yes'/>
    <elf-symbol name='_ZN23wxPropertyGridPopulatorD2Ev' version='WXU_3.2' is-default-version='yes' type='func-type' binding='global-binding' visibility='default-visibility' alias='_ZN23wxPropertyGridPopulatorD1Ev@@WXU_3.2' is-defined='yes'/>
    <elf-symbol name='_ZN25wxPGChoiceAndButtonEditor14wxCreateObjectEv' version='WXU_3.2' is-default-version='yes' type='func-type' binding='global-binding' visibility='default-visibility' is-defined='yes'/>
    <elf-symbol name='_ZN25wxPGChoiceAndButtonEditorD0Ev' version='WXU_3.2' is-default-version='yes' type='func-type' binding='global-binding' visibility='default-visibility' is-defined='yes'/>
    <elf-symbol name='_ZN25wxPGChoiceAndButtonEditorD1Ev' version='WXU_3.2' is-default-version='yes' type='func-type' binding='global-binding' visibility='default-visibility' is-defined='yes'/>
    <elf-symbol name='_ZN25wxPGChoiceAndButtonEditorD2Ev' version='WXU_3.2' is-default-version='yes' type='func-type' binding='global-binding' visibility='default-visibility' alias='_ZN25wxPGChoiceAndButtonEditorD1Ev@@WXU_3.2' is-defined='yes'/>
    <elf-symbol name='_ZN26wxNumericPropertyValidator8ValidateEP8wxWindow' version='WXU_3.2' is-default-version='yes' type='func-type' binding='global-binding' visibility='default-visibility' is-defined='yes'/>
    <elf-symbol name='_ZN26wxNumericPropertyValidatorC1ENS_11NumericTypeEi' version='WXU_3.2' is-default-version='yes' type='func-type' binding='global-binding' visibility='default-visibility' is-defined='yes'/>
    <elf-symbol name='_ZN26wxNumericPropertyValidatorC2ENS_11NumericTypeEi' version='WXU_3.2' is-default-version='yes' type='func-type' binding='global-binding' visibility='default-visibility' alias='_ZN26wxNumericPropertyValidatorC1ENS_11NumericTypeEi@@WXU_3.2' is-defined='yes'/>
    <elf-symbol name='_ZN26wxPropertyGridIteratorBase4InitEP23wxPropertyGridPageStateiP12wxPGPropertyi' version='WXU_3.2' is-default-version='yes' type='func-type' binding='global-binding' visibility='default-visibility' is-defined='yes'/>
    <elf-symbol name='_ZN26wxPropertyGridIteratorBase4InitEP23wxPropertyGridPageStateiii' version='WXU_3.2' is-default-version='yes' type='func-type' binding='global-binding' visibility='default-visibility' is-defined='yes'/>
    <elf-symbol name='_ZN26wxPropertyGridIteratorBase4NextEb' version='WXU_3.2' is-default-version='yes' type='func-type' binding='global-binding' visibility='default-visibility' is-defined='yes'/>
    <elf-symbol name='_ZN26wxPropertyGridIteratorBase4PrevEv' version='WXU_3.2' is-default-version='yes' type='func-type' binding='global-binding' visibility='default-visibility' is-defined='yes'/>
    <elf-symbol name='_ZN26wxPropertyGridIteratorBase6AssignERKS_' version='WXU_3.2' is-default-version='yes' type='func-type' binding='global-binding' visibility='default-visibility' is-defined='yes'/>
    <elf-symbol name='_ZN27wxPGArrayStringEditorDialog11ArrayInsertERK8wxStringi' version='WXU_3.2' is-default-version='yes' type='func-type' binding='global-binding' visibility='default-visibility' is-defined='yes'/>
    <elf-symbol name='_ZN27wxPGArrayStringEditorDialog13ArrayGetCountEv' version='WXU_3.2' is-default-version='yes' type='func-type' binding='global-binding' visibility='default-visibility' is-defined='yes'/>
    <elf-symbol name='_ZN27wxPGArrayStringEditorDialog13ArrayRemoveAtEi' version='WXU_3.2' is-default-version='yes' type='func-type' binding='global-binding' visibility='default-visibility' is-defined='yes'/>
    <elf-symbol name='_ZN27wxPGArrayStringEditorDialog14wxCreateObjectEv' version='WXU_3.2' is-default-version='yes' type='func-type' binding='global-binding' visibility='default-visibility' is-defined='yes'/>
    <elf-symbol name='_ZN27wxPGArrayStringEditorDialog17OnCustomNewActionEP8wxString' version='WXU_3.2' is-default-version='yes' type='func-type' binding='global-binding' visibility='default-visibility' is-defined='yes'/>
    <elf-symbol name='_ZN27wxPGArrayStringEditorDialog4InitEv' version='WXU_3.2' is-default-version='yes' type='func-type' binding='global-binding' visibility='default-visibility' is-defined='yes'/>
    <elf-symbol name='_ZN27wxPGArrayStringEditorDialog8ArrayGetEm' version='WXU_3.2' is-default-version='yes' type='func-type' binding='global-binding' visibility='default-visibility' is-defined='yes'/>
    <elf-symbol name='_ZN27wxPGArrayStringEditorDialog8ArraySetEmRK8wxString' version='WXU_3.2' is-default-version='yes' type='func-type' binding='global-binding' visibility='default-visibility' is-defined='yes'/>
    <elf-symbol name='_ZN27wxPGArrayStringEditorDialog9ArraySwapEmm' version='WXU_3.2' is-default-version='yes' type='func-type' binding='global-binding' visibility='default-visibility' is-defined='yes'/>
    <elf-symbol name='_ZN27wxPGArrayStringEditorDialogC1Ev' version='WXU_3.2' is-default-version='yes' type='func-type' binding='global-binding' visibility='default-visibility' is-defined='yes'/>
    <elf-symbol name='_ZN27wxPGArrayStringEditorDialogC2Ev' version='WXU_3.2' is-default-version='yes' type='func-type' binding='global-binding' visibility='default-visibility' alias='_ZN27wxPGArrayStringEditorDialogC1Ev@@WXU_3.2' is-defined='yes'/>
    <elf-symbol name='_ZN27wxPGTextCtrlAndButtonEditor14wxCreateObjectEv' version='WXU_3.2' is-default-version='yes' type='func-type' binding='global-binding' visibility='default-visibility' is-defined='yes'/>
    <elf-symbol name='_ZN27wxPGTextCtrlAndButtonEditorD0Ev' version='WXU_3.2' is-default-version='yes' type='func-type' binding='global-binding' visibility='default-visibility' is-defined='yes'/>
    <elf-symbol name='_ZN27wxPGTextCtrlAndButtonEditorD1Ev' version='WXU_3.2' is-default-version='yes' type='func-type' binding='global-binding' visibility='default-visibility' is-defined='yes'/>
    <elf-symbol name='_ZN27wxPGTextCtrlAndButtonEditorD2Ev' version='WXU_3.2' is-default-version='yes' type='func-type' binding='global-binding' visibility='default-visibility' alias='_ZN27wxPGTextCtrlAndButtonEditorD1Ev@@WXU_3.2' is-defined='yes'/>
    <elf-symbol name='_ZN7wxSizer3AddEP11wxSizerItem' version='WXU_3.2' is-default-version='yes' type='func-type' binding='weak-binding' visibility='default-visibility' is-defined='yes'/>
    <elf-symbol name='_ZN7wxSizer3AddEP8wxWindowRK12wxSizerFlags' version='WXU_3.2' is-default-version='yes' type='func-type' binding='weak-binding' visibility='default-visibility' is-defined='yes'/>
    <elf-symbol name='_ZN7wxSizer3AddEPS_RK12wxSizerFlags' version='WXU_3.2' is-default-version='yes' type='func-type' binding='weak-binding' visibility='default-visibility' is-defined='yes'/>
    <elf-symbol name='_ZN8wxPGCell12SetEmptyDataEv' version='WXU_3.2' is-default-version='yes' type='func-type' binding='global-binding' visibility='default-visibility' is-defined='yes'/>
    <elf-symbol name='_ZN8wxPGCell7SetFontERK6wxFont' version='WXU_3.2' is-default-version='yes' type='func-type' binding='global-binding' visibility='default-visibility' is-defined='yes'/>
    <elf-symbol name='_ZN8wxPGCell7SetTextERK8wxString' version='WXU_3.2' is-default-version='yes' type='func-type' binding='global-binding' visibility='default-visibility' is-defined='yes'/>
    <elf-symbol name='_ZN8wxPGCell8SetBgColERK8wxColour' version='WXU_3.2' is-default-version='yes' type='func-type' binding='global-binding' visibility='default-visibility' is-defined='yes'/>
    <elf-symbol name='_ZN8wxPGCell8SetFgColERK8wxColour' version='WXU_3.2' is-default-version='yes' type='func-type' binding='global-binding' visibility='default-visibility' is-defined='yes'/>
    <elf-symbol name='_ZN8wxPGCell9MergeFromERKS_' version='WXU_3.2' is-default-version='yes' type='func-type' binding='global-binding' visibility='default-visibility' is-defined='yes'/>
    <elf-symbol name='_ZN8wxPGCell9SetBitmapERK14wxBitmapBundle' version='WXU_3.2' is-default-version='yes' type='func-type' binding='global-binding' visibility='default-visibility' is-defined='yes'/>
    <elf-symbol name='_ZN8wxPGCellC1ERK8wxStringRK14wxBitmapBundleRK8wxColourS8_' version='WXU_3.2' is-default-version='yes' type='func-type' binding='global-binding' visibility='default-visibility' is-defined='yes'/>
    <elf-symbol name='_ZN8wxPGCellC1Ev' version='WXU_3.2' is-default-version='yes' type='func-type' binding='global-binding' visibility='default-visibility' is-defined='yes'/>
    <elf-symbol name='_ZN8wxPGCellC2ERK8wxStringRK14wxBitmapBundleRK8wxColourS8_' version='WXU_3.2' is-default-version='yes' type='func-type' binding='global-binding' visibility='default-visibility' alias='_ZN8wxPGCellC1ERK8wxStringRK14wxBitmapBundleRK8wxColourS8_@@WXU_3.2' is-defined='yes'/>
    <elf-symbol name='_ZN8wxPGCellC2Ev' version='WXU_3.2' is-default-version='yes' type='func-type' binding='global-binding' visibility='default-visibility' alias='_ZN8wxPGCellC1Ev@@WXU_3.2' is-defined='yes'/>
    <elf-symbol name='_ZN9wxUniCharC1ERK12wxUniCharRef' version='WXU_3.2' is-default-version='yes' type='func-type' binding='weak-binding' visibility='default-visibility' is-defined='yes'/>
    <elf-symbol name='_ZN9wxUniCharC2ERK12wxUniCharRef' version='WXU_3.2' is-default-version='yes' type='func-type' binding='weak-binding' visibility='default-visibility' alias='_ZN9wxUniCharC1ERK12wxUniCharRef@@WXU_3.2' is-defined='yes'/>
    <elf-symbol name='_ZNK10wxPGEditor10DeleteItemEP8wxWindowi' version='WXU_3.2' is-default-version='yes' type='func-type' binding='global-binding' visibility='default-visibility' is-defined='yes'/>
    <elf-symbol name='_ZNK10wxPGEditor10InsertItemEP8wxWindowRK8wxStringi' version='WXU_3.2' is-default-version='yes' type='func-type' binding='global-binding' visibility='default-visibility' is-defined='yes'/>
    <elf-symbol name='_ZNK10wxPGEditor12GetClassInfoEv' version='WXU_3.2' is-default-version='yes' type='func-type' binding='global-binding' visibility='default-visibility' is-defined='yes'/>
    <elf-symbol name='_ZNK10wxPGEditor18SetControlIntValueEP12wxPGPropertyP8wxWindowi' version='WXU_3.2' is-default-version='yes' type='func-type' binding='global-binding' visibility='default-visibility' is-defined='yes'/>
    <elf-symbol name='_ZNK10wxPGEditor19GetValueFromControlER9wxVariantP12wxPGPropertyP8wxWindow' version='WXU_3.2' is-default-version='yes' type='func-type' binding='global-binding' visibility='default-visibility' is-defined='yes'/>
    <elf-symbol name='_ZNK10wxPGEditor20SetControlAppearanceEP14wxPropertyGridP12wxPGPropertyP8wxWindowRK8wxPGCellS8_b' version='WXU_3.2' is-default-version='yes' type='func-type' binding='global-binding' visibility='default-visibility' is-defined='yes'/>
    <elf-symbol name='_ZNK10wxPGEditor21CanContainCustomImageEv' version='WXU_3.2' is-default-version='yes' type='func-type' binding='global-binding' visibility='default-visibility' is-defined='yes'/>
    <elf-symbol name='_ZNK10wxPGEditor21SetControlStringValueEP12wxPGPropertyP8wxWindowRK8wxString' version='WXU_3.2' is-default-version='yes' type='func-type' binding='global-binding' visibility='default-visibility' is-defined='yes'/>
    <elf-symbol name='_ZNK10wxPGEditor21SetValueToUnspecifiedEP12wxPGPropertyP8wxWindow' version='WXU_3.2' is-default-version='yes' type='func-type' binding='global-binding' visibility='default-visibility' is-defined='yes'/>
    <elf-symbol name='_ZNK10wxPGEditor7GetNameEv' version='WXU_3.2' is-default-version='yes' type='func-type' binding='global-binding' visibility='default-visibility' is-defined='yes'/>
    <elf-symbol name='_ZNK10wxPGEditor7OnFocusEP12wxPGPropertyP8wxWindow' version='WXU_3.2' is-default-version='yes' type='func-type' binding='global-binding' visibility='default-visibility' is-defined='yes'/>
    <elf-symbol name='_ZNK10wxPGEditor8SetItemsEP8wxWindowRK13wxArrayString' version='WXU_3.2' is-default-version='yes' type='func-type' binding='global-binding' visibility='default-visibility' is-defined='yes'/>
    <elf-symbol name='_ZNK10wxPGEditor9DrawValueER4wxDCRK6wxRectP12wxPGPropertyRK8wxString' version='WXU_3.2' is-default-version='yes' type='func-type' binding='global-binding' visibility='default-visibility' is-defined='yes'/>
    <elf-symbol name='_ZNK11wxPGChoices19GetValuesForStringsERK13wxArrayString' version='WXU_3.2' is-default-version='yes' type='func-type' binding='global-binding' visibility='default-visibility' is-defined='yes'/>
    <elf-symbol name='_ZNK11wxPGChoices20GetIndicesForStringsERK13wxArrayStringPS0_' version='WXU_3.2' is-default-version='yes' type='func-type' binding='global-binding' visibility='default-visibility' is-defined='yes'/>
    <elf-symbol name='_ZNK11wxPGChoices5IndexERK8wxString' version='WXU_3.2' is-default-version='yes' type='func-type' binding='global-binding' visibility='default-visibility' is-defined='yes'/>
    <elf-symbol name='_ZNK11wxPGChoices5IndexEi' version='WXU_3.2' is-default-version='yes' type='func-type' binding='global-binding' visibility='default-visibility' is-defined='yes'/>
    <elf-symbol name='_ZNK11wxPGChoices9GetLabelsEv' version='WXU_3.2' is-default-version='yes' type='func-type' binding='global-binding' visibility='default-visibility' is-defined='yes'/>
    <elf-symbol name='_ZNK12wxPGProperty10GetItemAtYEj' version='WXU_3.2' is-default-version='yes' type='func-type' binding='global-binding' visibility='default-visibility' is-defined='yes'/>
    <elf-symbol name='_ZNK12wxPGProperty10GetItemAtYEjjPj' version='WXU_3.2' is-default-version='yes' type='func-type' binding='global-binding' visibility='default-visibility' is-defined='yes'/>
    <elf-symbol name='_ZNK12wxPGProperty10IntToValueER9wxVariantii' version='WXU_3.2' is-default-version='yes' type='func-type' binding='global-binding' visibility='default-visibility' is-defined='yes'/>
    <elf-symbol name='_ZNK12wxPGProperty11GetHintTextEv' version='WXU_3.2' is-default-version='yes' type='func-type' binding='global-binding' visibility='default-visibility' is-defined='yes'/>
    <elf-symbol name='_ZNK12wxPGProperty12ChildChangedER9wxVariantiS1_' version='WXU_3.2' is-default-version='yes' type='func-type' binding='global-binding' visibility='default-visibility' is-defined='yes'/>
    <elf-symbol name='_ZNK12wxPGProperty12GetAttributeERK8wxString' version='WXU_3.2' is-default-version='yes' type='func-type' binding='global-binding' visibility='default-visibility' is-defined='yes'/>
    <elf-symbol name='_ZNK12wxPGProperty12GetAttributeERK8wxStringS2_' version='WXU_3.2' is-default-version='yes' type='func-type' binding='global-binding' visibility='default-visibility' is-defined='yes'/>
    <elf-symbol name='_ZNK12wxPGProperty12GetClassInfoEv' version='WXU_3.2' is-default-version='yes' type='func-type' binding='global-binding' visibility='default-visibility' is-defined='yes'/>
    <elf-symbol name='_ZNK12wxPGProperty12IsSomeParentEPS_' version='WXU_3.2' is-default-version='yes' type='func-type' binding='global-binding' visibility='default-visibility' is-defined='yes'/>
    <elf-symbol name='_ZNK12wxPGProperty13GetMainParentEv' version='WXU_3.2' is-default-version='yes' type='func-type' binding='global-binding' visibility='default-visibility' is-defined='yes'/>
    <elf-symbol name='_ZNK12wxPGProperty13GetValueImageEv' version='WXU_3.2' is-default-version='yes' type='func-type' binding='global-binding' visibility='default-visibility' is-defined='yes'/>
    <elf-symbol name='_ZNK12wxPGProperty13StringToValueER9wxVariantRK8wxStringi' version='WXU_3.2' is-default-version='yes' type='func-type' binding='global-binding' visibility='default-visibility' is-defined='yes'/>
    <elf-symbol name='_ZNK12wxPGProperty13ValidateValueER9wxVariantR18wxPGValidationInfo' version='WXU_3.2' is-default-version='yes' type='func-type' binding='global-binding' visibility='default-visibility' is-defined='yes'/>
    <elf-symbol name='_ZNK12wxPGProperty13ValueToStringER9wxVarianti' version='WXU_3.2' is-default-version='yes' type='func-type' binding='global-binding' visibility='default-visibility' is-defined='yes'/>
    <elf-symbol name='_ZNK12wxPGProperty14DoGetAttributeERK8wxString' version='WXU_3.2' is-default-version='yes' type='func-type' binding='global-binding' visibility='default-visibility' is-defined='yes'/>
    <elf-symbol name='_ZNK12wxPGProperty14DoGetValidatorEv' version='WXU_3.2' is-default-version='yes' type='func-type' binding='global-binding' visibility='default-visibility' is-defined='yes'/>
    <elf-symbol name='_ZNK12wxPGProperty14GetEditorClassEv' version='WXU_3.2' is-default-version='yes' type='func-type' binding='global-binding' visibility='default-visibility' is-defined='yes'/>
    <elf-symbol name='_ZNK12wxPGProperty14GetImageOffsetEi' version='WXU_3.2' is-default-version='yes' type='func-type' binding='global-binding' visibility='default-visibility' is-defined='yes'/>
    <elf-symbol name='_ZNK12wxPGProperty14IsTextEditableEv' version='WXU_3.2' is-default-version='yes' type='func-type' binding='global-binding' visibility='default-visibility' is-defined='yes'/>
    <elf-symbol name='_ZNK12wxPGProperty14OnMeasureImageEi' version='WXU_3.2' is-default-version='yes' type='func-type' binding='global-binding' visibility='default-visibility' is-defined='yes'/>
    <elf-symbol name='_ZNK12wxPGProperty15GetCellRendererEi' version='WXU_3.2' is-default-version='yes' type='func-type' binding='global-binding' visibility='default-visibility' is-defined='yes'/>
    <elf-symbol name='_ZNK12wxPGProperty15GetDefaultValueEv' version='WXU_3.2' is-default-version='yes' type='func-type' binding='global-binding' visibility='default-visibility' is-defined='yes'/>
    <elf-symbol name='_ZNK12wxPGProperty15GetEditorDialogEv' version='WXU_3.2' is-default-version='yes' type='func-type' binding='global-binding' visibility='default-visibility' is-defined='yes'/>
    <elf-symbol name='_ZNK12wxPGProperty15IsChildSelectedEb' version='WXU_3.2' is-default-version='yes' type='func-type' binding='global-binding' visibility='default-visibility' is-defined='yes'/>
    <elf-symbol name='_ZNK12wxPGProperty15SetValueInEventERK9wxVariant' version='WXU_3.2' is-default-version='yes' type='func-type' binding='global-binding' visibility='default-visibility' is-defined='yes'/>
    <elf-symbol name='_ZNK12wxPGProperty16AdaptListToValueER9wxVariantPS0_' version='WXU_3.2' is-default-version='yes' type='func-type' binding='global-binding' visibility='default-visibility' is-defined='yes'/>
    <elf-symbol name='_ZNK12wxPGProperty16DoGetEditorClassEv' version='WXU_3.2' is-default-version='yes' type='func-type' binding='global-binding' visibility='default-visibility' is-defined='yes'/>
    <elf-symbol name='_ZNK12wxPGProperty16GetFlagsAsStringEj' version='WXU_3.2' is-default-version='yes' type='func-type' binding='global-binding' visibility='default-visibility' is-defined='yes'/>
    <elf-symbol name='_ZNK12wxPGProperty16GetValueAsStringEi' version='WXU_3.2' is-default-version='yes' type='func-type' binding='global-binding' visibility='default-visibility' is-defined='yes'/>
    <elf-symbol name='_ZNK12wxPGProperty17GetChildrenHeightEii' version='WXU_3.2' is-default-version='yes' type='func-type' binding='global-binding' visibility='default-visibility' is-defined='yes'/>
    <elf-symbol name='_ZNK12wxPGProperty17GetPropertyByNameERK8wxString' version='WXU_3.2' is-default-version='yes' type='func-type' binding='global-binding' visibility='default-visibility' is-defined='yes'/>
    <elf-symbol name='_ZNK12wxPGProperty18GetAttributeAsLongERK8wxStringl' version='WXU_3.2' is-default-version='yes' type='func-type' binding='global-binding' visibility='default-visibility' is-defined='yes'/>
    <elf-symbol name='_ZNK12wxPGProperty18GetChoiceSelectionEv' version='WXU_3.2' is-default-version='yes' type='func-type' binding='global-binding' visibility='default-visibility' is-defined='yes'/>
    <elf-symbol name='_ZNK12wxPGProperty18GetGridIfDisplayedEv' version='WXU_3.2' is-default-version='yes' type='func-type' binding='global-binding' visibility='default-visibility' is-defined='yes'/>
    <elf-symbol name='_ZNK12wxPGProperty18HasVisibleChildrenEv' version='WXU_3.2' is-default-version='yes' type='func-type' binding='global-binding' visibility='default-visibility' is-defined='yes'/>
    <elf-symbol name='_ZNK12wxPGProperty19GetAttributesAsListEv' version='WXU_3.2' is-default-version='yes' type='func-type' binding='global-binding' visibility='default-visibility' is-defined='yes'/>
    <elf-symbol name='_ZNK12wxPGProperty19GetPropertyByNameWHERK8wxStringj' version='WXU_3.2' is-default-version='yes' type='func-type' binding='global-binding' visibility='default-visibility' is-defined='yes'/>
    <elf-symbol name='_ZNK12wxPGProperty20GetAttributeAsDoubleERK8wxStringd' version='WXU_3.2' is-default-version='yes' type='func-type' binding='global-binding' visibility='default-visibility' is-defined='yes'/>
    <elf-symbol name='_ZNK12wxPGProperty21GetLastVisibleSubItemEv' version='WXU_3.2' is-default-version='yes' type='func-type' binding='global-binding' visibility='default-visibility' is-defined='yes'/>
    <elf-symbol name='_ZNK12wxPGProperty23AreAllChildrenSpecifiedEPK9wxVariant' version='WXU_3.2' is-default-version='yes' type='func-type' binding='global-binding' visibility='default-visibility' is-defined='yes'/>
    <elf-symbol name='_ZNK12wxPGProperty23DoGenerateComposedValueER8wxStringiPK13wxVariantListP14wxPGHashMapS2S' version='WXU_3.2' is-default-version='yes' type='func-type' binding='global-binding' visibility='default-visibility' is-defined='yes'/>
    <elf-symbol name='_ZNK12wxPGProperty28GetDisplayedCommonValueCountEv' version='WXU_3.2' is-default-version='yes' type='func-type' binding='global-binding' visibility='default-visibility' is-defined='yes'/>
    <elf-symbol name='_ZNK12wxPGProperty4GetYEv' version='WXU_3.2' is-default-version='yes' type='func-type' binding='global-binding' visibility='default-visibility' is-defined='yes'/>
    <elf-symbol name='_ZNK12wxPGProperty5GetY2Ei' version='WXU_3.2' is-default-version='yes' type='func-type' binding='global-binding' visibility='default-visibility' is-defined='yes'/>
    <elf-symbol name='_ZNK12wxPGProperty5IndexEPKS_' version='WXU_3.2' is-default-version='yes' type='func-type' binding='global-binding' visibility='default-visibility' is-defined='yes'/>
    <elf-symbol name='_ZNK12wxPGProperty7GetCellEj' version='WXU_3.2' is-default-version='yes' type='func-type' binding='global-binding' visibility='default-visibility' is-defined='yes'/>
    <elf-symbol name='_ZNK12wxPGProperty7GetGridEv' version='WXU_3.2' is-default-version='yes' type='func-type' binding='global-binding' visibility='default-visibility' is-defined='yes'/>
    <elf-symbol name='_ZNK12wxPGProperty7GetNameEv' version='WXU_3.2' is-default-version='yes' type='func-type' binding='global-binding' visibility='default-visibility' is-defined='yes'/>
    <elf-symbol name='_ZNK12wxPGProperty9IsVisibleEv' version='WXU_3.2' is-default-version='yes' type='func-type' binding='global-binding' visibility='default-visibility' is-defined='yes'/>
    <elf-symbol name='_ZNK13wxDirProperty12GetClassInfoEv' version='WXU_3.2' is-default-version='yes' type='func-type' binding='global-binding' visibility='default-visibility' is-defined='yes'/>
    <elf-symbol name='_ZNK13wxDirProperty13StringToValueER9wxVariantRK8wxStringi' version='WXU_3.2' is-default-version='yes' type='func-type' binding='global-binding' visibility='default-visibility' is-defined='yes'/>
    <elf-symbol name='_ZNK13wxDirProperty13ValueToStringER9wxVarianti' version='WXU_3.2' is-default-version='yes' type='func-type' binding='global-binding' visibility='default-visibility' is-defined='yes'/>
    <elf-symbol name='_ZNK13wxDirProperty14DoGetValidatorEv' version='WXU_3.2' is-default-version='yes' type='func-type' binding='global-binding' visibility='default-visibility' is-defined='yes'/>
    <elf-symbol name='_ZNK13wxDirProperty16DoGetEditorClassEv' version='WXU_3.2' is-default-version='yes' type='func-type' binding='global-binding' visibility='default-visibility' is-defined='yes'/>
    <elf-symbol name='_ZNK13wxIntProperty10IntToValueER9wxVariantii' version='WXU_3.2' is-default-version='yes' type='func-type' binding='global-binding' visibility='default-visibility' is-defined='yes'/>
    <elf-symbol name='_ZNK13wxIntProperty12GetClassInfoEv' version='WXU_3.2' is-default-version='yes' type='func-type' binding='global-binding' visibility='default-visibility' is-defined='yes'/>
    <elf-symbol name='_ZNK13wxIntProperty13StringToValueER9wxVariantRK8wxStringi' version='WXU_3.2' is-default-version='yes' type='func-type' binding='global-binding' visibility='default-visibility' is-defined='yes'/>
    <elf-symbol name='_ZNK13wxIntProperty13ValidateValueER9wxVariantR18wxPGValidationInfo' version='WXU_3.2' is-default-version='yes' type='func-type' binding='global-binding' visibility='default-visibility' is-defined='yes'/>
    <elf-symbol name='_ZNK13wxIntProperty13ValueToStringER9wxVarianti' version='WXU_3.2' is-default-version='yes' type='func-type' binding='global-binding' visibility='default-visibility' is-defined='yes'/>
    <elf-symbol name='_ZNK13wxIntProperty14DoGetValidatorEv' version='WXU_3.2' is-default-version='yes' type='func-type' binding='global-binding' visibility='default-visibility' is-defined='yes'/>
    <elf-symbol name='_ZNK13wxIntProperty16AddSpinStepValueEl' version='WXU_3.2' is-default-version='yes' type='func-type' binding='global-binding' visibility='default-visibility' is-defined='yes'/>
    <elf-symbol name='_ZNK13wxIntProperty16DoGetEditorClassEv' version='WXU_3.2' is-default-version='yes' type='func-type' binding='global-binding' visibility='default-visibility' is-defined='yes'/>
    <elf-symbol name='_ZNK14wxBoolProperty10IntToValueER9wxVariantii' version='WXU_3.2' is-default-version='yes' type='func-type' binding='global-binding' visibility='default-visibility' is-defined='yes'/>
    <elf-symbol name='_ZNK14wxBoolProperty12GetClassInfoEv' version='WXU_3.2' is-default-version='yes' type='func-type' binding='global-binding' visibility='default-visibility' is-defined='yes'/>
    <elf-symbol name='_ZNK14wxBoolProperty13StringToValueER9wxVariantRK8wxStringi' version='WXU_3.2' is-default-version='yes' type='func-type' binding='global-binding' visibility='default-visibility' is-defined='yes'/>
    <elf-symbol name='_ZNK14wxBoolProperty13ValueToStringER9wxVarianti' version='WXU_3.2' is-default-version='yes' type='func-type' binding='global-binding' visibility='default-visibility' is-defined='yes'/>
    <elf-symbol name='_ZNK14wxBoolProperty16DoGetEditorClassEv' version='WXU_3.2' is-default-version='yes' type='func-type' binding='global-binding' visibility='default-visibility' is-defined='yes'/>
    <elf-symbol name='_ZNK14wxDateProperty12GetClassInfoEv' version='WXU_3.2' is-default-version='yes' type='func-type' binding='global-binding' visibility='default-visibility' is-defined='yes'/>
    <elf-symbol name='_ZNK14wxDateProperty13StringToValueER9wxVariantRK8wxStringi' version='WXU_3.2' is-default-version='yes' type='func-type' binding='global-binding' visibility='default-visibility' is-defined='yes'/>
    <elf-symbol name='_ZNK14wxDateProperty13ValueToStringER9wxVarianti' version='WXU_3.2' is-default-version='yes' type='func-type' binding='global-binding' visibility='default-visibility' is-defined='yes'/>
    <elf-symbol name='_ZNK14wxDateProperty16DoGetEditorClassEv' version='WXU_3.2' is-default-version='yes' type='func-type' binding='global-binding' visibility='default-visibility' is-defined='yes'/>
    <elf-symbol name='_ZNK14wxEnumProperty10IntToValueER9wxVariantii' version='WXU_3.2' is-default-version='yes' type='func-type' binding='global-binding' visibility='default-visibility' is-defined='yes'/>
    <elf-symbol name='_ZNK14wxEnumProperty12GetClassInfoEv' version='WXU_3.2' is-default-version='yes' type='func-type' binding='global-binding' visibility='default-visibility' is-defined='yes'/>
    <elf-symbol name='_ZNK14wxEnumProperty13StringToValueER9wxVariantRK8wxStringi' version='WXU_3.2' is-default-version='yes' type='func-type' binding='global-binding' visibility='default-visibility' is-defined='yes'/>
    <elf-symbol name='_ZNK14wxEnumProperty13ValidateValueER9wxVariantR18wxPGValidationInfo' version='WXU_3.2' is-default-version='yes' type='func-type' binding='global-binding' visibility='default-visibility' is-defined='yes'/>
    <elf-symbol name='_ZNK14wxEnumProperty13ValueFromInt_ER9wxVariantPiii' version='WXU_3.2' is-default-version='yes' type='func-type' binding='global-binding' visibility='default-visibility' is-defined='yes'/>
    <elf-symbol name='_ZNK14wxEnumProperty13ValueToStringER9wxVarianti' version='WXU_3.2' is-default-version='yes' type='func-type' binding='global-binding' visibility='default-visibility' is-defined='yes'/>
    <elf-symbol name='_ZNK14wxEnumProperty16DoGetEditorClassEv' version='WXU_3.2' is-default-version='yes' type='func-type' binding='global-binding' visibility='default-visibility' is-defined='yes'/>
    <elf-symbol name='_ZNK14wxEnumProperty16GetIndexForValueEi' version='WXU_3.2' is-default-version='yes' type='func-type' binding='global-binding' visibility='default-visibility' is-defined='yes'/>
    <elf-symbol name='_ZNK14wxEnumProperty16ValueFromString_ER9wxVariantPiRK8wxStringi' version='WXU_3.2' is-default-version='yes' type='func-type' binding='global-binding' visibility='default-visibility' is-defined='yes'/>
    <elf-symbol name='_ZNK14wxEnumProperty8GetIndexEv' version='WXU_3.2' is-default-version='yes' type='func-type' binding='global-binding' visibility='default-visibility' is-defined='yes'/>
    <elf-symbol name='_ZNK14wxFileProperty11GetFileNameEv' version='WXU_3.2' is-default-version='yes' type='func-type' binding='global-binding' visibility='default-visibility' is-defined='yes'/>
    <elf-symbol name='_ZNK14wxFileProperty12GetClassInfoEv' version='WXU_3.2' is-default-version='yes' type='func-type' binding='global-binding' visibility='default-visibility' is-defined='yes'/>
    <elf-symbol name='_ZNK14wxFileProperty13StringToValueER9wxVariantRK8wxStringi' version='WXU_3.2' is-default-version='yes' type='func-type' binding='global-binding' visibility='default-visibility' is-defined='yes'/>
    <elf-symbol name='_ZNK14wxFileProperty13ValueToStringER9wxVarianti' version='WXU_3.2' is-default-version='yes' type='func-type' binding='global-binding' visibility='default-visibility' is-defined='yes'/>
    <elf-symbol name='_ZNK14wxFileProperty14DoGetValidatorEv' version='WXU_3.2' is-default-version='yes' type='func-type' binding='global-binding' visibility='default-visibility' is-defined='yes'/>
    <elf-symbol name='_ZNK14wxFileProperty16DoGetEditorClassEv' version='WXU_3.2' is-default-version='yes' type='func-type' binding='global-binding' visibility='default-visibility' is-defined='yes'/>
    <elf-symbol name='_ZNK14wxFontProperty12ChildChangedER9wxVariantiS1_' version='WXU_3.2' is-default-version='yes' type='func-type' binding='global-binding' visibility='default-visibility' is-defined='yes'/>
    <elf-symbol name='_ZNK14wxFontProperty12GetClassInfoEv' version='WXU_3.2' is-default-version='yes' type='func-type' binding='global-binding' visibility='default-visibility' is-defined='yes'/>
    <elf-symbol name='_ZNK14wxFontProperty13ValueToStringER9wxVarianti' version='WXU_3.2' is-default-version='yes' type='func-type' binding='global-binding' visibility='default-visibility' is-defined='yes'/>
    <elf-symbol name='_ZNK14wxFontProperty16DoGetEditorClassEv' version='WXU_3.2' is-default-version='yes' type='func-type' binding='global-binding' visibility='default-visibility' is-defined='yes'/>
    <elf-symbol name='_ZNK14wxPGPropArgCls6GetPtrEP23wxPropertyGridInterface' version='WXU_3.2' is-default-version='yes' type='func-type' binding='global-binding' visibility='default-visibility' is-defined='yes'/>
    <elf-symbol name='_ZNK14wxPropertyGrid11CreateStateEv' version='WXU_3.2' is-default-version='yes' type='func-type' binding='global-binding' visibility='default-visibility' is-defined='yes'/>
    <elf-symbol name='_ZNK14wxPropertyGrid12DoGetItemAtYEi' version='WXU_3.2' is-default-version='yes' type='func-type' binding='global-binding' visibility='default-visibility' is-defined='yes'/>
    <elf-symbol name='_ZNK14wxPropertyGrid12GetClassInfoEv' version='WXU_3.2' is-default-version='yes' type='func-type' binding='global-binding' visibility='default-visibility' is-defined='yes'/>
    <elf-symbol name='_ZNK14wxPropertyGrid12GetImageRectEP12wxPGPropertyi' version='WXU_3.2' is-default-version='yes' type='func-type' binding='global-binding' visibility='default-visibility' is-defined='yes'/>
    <elf-symbol name='_ZNK14wxPropertyGrid12GetImageSizeEP12wxPGPropertyi' version='WXU_3.2' is-default-version='yes' type='func-type' binding='global-binding' visibility='default-visibility' is-defined='yes'/>
    <elf-symbol name='_ZNK14wxPropertyGrid13DoGetBestSizeEv' version='WXU_3.2' is-default-version='yes' type='func-type' binding='global-binding' visibility='default-visibility' is-defined='yes'/>
    <elf-symbol name='_ZNK14wxPropertyGrid13GetEventTableEv' version='WXU_3.2' is-default-version='yes' type='func-type' binding='global-binding' visibility='default-visibility' is-defined='yes'/>
    <elf-symbol name='_ZNK14wxPropertyGrid15DoDrawItemsBaseER4wxDCPK6wxRectb' version='WXU_3.2' is-default-version='yes' type='func-type' binding='global-binding' visibility='default-visibility' is-defined='yes'/>
    <elf-symbol name='_ZNK14wxPropertyGrid15GetPropertyRectEPK12wxPGPropertyS2_' version='WXU_3.2' is-default-version='yes' type='func-type' binding='global-binding' visibility='default-visibility' is-defined='yes'/>
    <elf-symbol name='_ZNK14wxPropertyGrid15IsEditorFocusedEv' version='WXU_3.2' is-default-version='yes' type='func-type' binding='global-binding' visibility='default-visibility' is-defined='yes'/>
    <elf-symbol name='_ZNK14wxPropertyGrid16GetEditorControlEv' version='WXU_3.2' is-default-version='yes' type='func-type' binding='global-binding' visibility='default-visibility' is-defined='yes'/>
    <elf-symbol name='_ZNK14wxPropertyGrid17GetEditorTextCtrlEv' version='WXU_3.2' is-default-version='yes' type='func-type' binding='global-binding' visibility='default-visibility' is-defined='yes'/>
    <elf-symbol name='_ZNK14wxPropertyGrid17GetEventHashTableEv' version='WXU_3.2' is-default-version='yes' type='func-type' binding='global-binding' visibility='default-visibility' is-defined='yes'/>
    <elf-symbol name='_ZNK14wxPropertyGrid17KeyEventToActionsER10wxKeyEventPi' version='WXU_3.2' is-default-version='yes' type='func-type' binding='global-binding' visibility='default-visibility' is-defined='yes'/>
    <elf-symbol name='_ZNK14wxPropertyGrid18DrawExpanderButtonER4wxDCRK6wxRectP12wxPGProperty' version='WXU_3.2' is-default-version='yes' type='func-type' binding='global-binding' visibility='default-visibility' is-defined='yes'/>
    <elf-symbol name='_ZNK14wxPropertyGrid19GetEditorWidgetRectEP12wxPGPropertyi' version='WXU_3.2' is-default-version='yes' type='func-type' binding='global-binding' visibility='default-visibility' is-defined='yes'/>
    <elf-symbol name='_ZNK14wxPropertyGrid22GetNearestPaintVisibleEP12wxPGProperty' version='WXU_3.2' is-default-version='yes' type='func-type' binding='global-binding' visibility='default-visibility' is-defined='yes'/>
    <elf-symbol name='_ZNK14wxPropertyGrid22ImprovedClientToScreenEPiS0_' version='WXU_3.2' is-default-version='yes' type='func-type' binding='global-binding' visibility='default-visibility' is-defined='yes'/>
    <elf-symbol name='_ZNK14wxPropertyGrid23GetUnspecifiedValueTextEi' version='WXU_3.2' is-default-version='yes' type='func-type' binding='global-binding' visibility='default-visibility' is-defined='yes'/>
    <elf-symbol name='_ZNK14wxPropertyGrid7HitTestERK7wxPoint' version='WXU_3.2' is-default-version='yes' type='func-type' binding='global-binding' visibility='default-visibility' is-defined='yes'/>
    <elf-symbol name='_ZNK14wxUIntProperty10IntToValueER9wxVariantii' version='WXU_3.2' is-default-version='yes' type='func-type' binding='global-binding' visibility='default-visibility' is-defined='yes'/>
    <elf-symbol name='_ZNK14wxUIntProperty12GetClassInfoEv' version='WXU_3.2' is-default-version='yes' type='func-type' binding='global-binding' visibility='default-visibility' is-defined='yes'/>
    <elf-symbol name='_ZNK14wxUIntProperty13StringToValueER9wxVariantRK8wxStringi' version='WXU_3.2' is-default-version='yes' type='func-type' binding='global-binding' visibility='default-visibility' is-defined='yes'/>
    <elf-symbol name='_ZNK14wxUIntProperty13ValidateValueER9wxVariantR18wxPGValidationInfo' version='WXU_3.2' is-default-version='yes' type='func-type' binding='global-binding' visibility='default-visibility' is-defined='yes'/>
    <elf-symbol name='_ZNK14wxUIntProperty13ValueToStringER9wxVarianti' version='WXU_3.2' is-default-version='yes' type='func-type' binding='global-binding' visibility='default-visibility' is-defined='yes'/>
    <elf-symbol name='_ZNK14wxUIntProperty14DoGetValidatorEv' version='WXU_3.2' is-default-version='yes' type='func-type' binding='global-binding' visibility='default-visibility' is-defined='yes'/>
    <elf-symbol name='_ZNK14wxUIntProperty16AddSpinStepValueEl' version='WXU_3.2' is-default-version='yes' type='func-type' binding='global-binding' visibility='default-visibility' is-defined='yes'/>
    <elf-symbol name='_ZNK14wxUIntProperty16DoGetEditorClassEv' version='WXU_3.2' is-default-version='yes' type='func-type' binding='global-binding' visibility='default-visibility' is-defined='yes'/>
    <elf-symbol name='_ZNK15wxFlagsProperty12ChildChangedER9wxVariantiS1_' version='WXU_3.2' is-default-version='yes' type='func-type' binding='global-binding' visibility='default-visibility' is-defined='yes'/>
    <elf-symbol name='_ZNK15wxFlagsProperty12GetClassInfoEv' version='WXU_3.2' is-default-version='yes' type='func-type' binding='global-binding' visibility='default-visibility' is-defined='yes'/>
    <elf-symbol name='_ZNK15wxFlagsProperty13StringToValueER9wxVariantRK8wxStringi' version='WXU_3.2' is-default-version='yes' type='func-type' binding='global-binding' visibility='default-visibility' is-defined='yes'/>
    <elf-symbol name='_ZNK15wxFlagsProperty13ValueToStringER9wxVarianti' version='WXU_3.2' is-default-version='yes' type='func-type' binding='global-binding' visibility='default-visibility' is-defined='yes'/>
    <elf-symbol name='_ZNK15wxFlagsProperty16DoGetEditorClassEv' version='WXU_3.2' is-default-version='yes' type='func-type' binding='global-binding' visibility='default-visibility' is-defined='yes'/>
    <elf-symbol name='_ZNK15wxFlagsProperty7IdToBitERK8wxString' version='WXU_3.2' is-default-version='yes' type='func-type' binding='global-binding' visibility='default-visibility' is-defined='yes'/>
    <elf-symbol name='_ZNK15wxFloatProperty12GetClassInfoEv' version='WXU_3.2' is-default-version='yes' type='func-type' binding='global-binding' visibility='default-visibility' is-defined='yes'/>
    <elf-symbol name='_ZNK15wxFloatProperty13StringToValueER9wxVariantRK8wxStringi' version='WXU_3.2' is-default-version='yes' type='func-type' binding='global-binding' visibility='default-visibility' is-defined='yes'/>
    <elf-symbol name='_ZNK15wxFloatProperty13ValidateValueER9wxVariantR18wxPGValidationInfo' version='WXU_3.2' is-default-version='yes' type='func-type' binding='global-binding' visibility='default-visibility' is-defined='yes'/>
    <elf-symbol name='_ZNK15wxFloatProperty13ValueToStringER9wxVarianti' version='WXU_3.2' is-default-version='yes' type='func-type' binding='global-binding' visibility='default-visibility' is-defined='yes'/>
    <elf-symbol name='_ZNK15wxFloatProperty14DoGetValidatorEv' version='WXU_3.2' is-default-version='yes' type='func-type' binding='global-binding' visibility='default-visibility' is-defined='yes'/>
    <elf-symbol name='_ZNK15wxFloatProperty16AddSpinStepValueEl' version='WXU_3.2' is-default-version='yes' type='func-type' binding='global-binding' visibility='default-visibility' is-defined='yes'/>
    <elf-symbol name='_ZNK15wxFloatProperty16DoGetEditorClassEv' version='WXU_3.2' is-default-version='yes' type='func-type' binding='global-binding' visibility='default-visibility' is-defined='yes'/>
    <elf-symbol name='_ZNK15wxPGMultiButton5GenIdEi' version='WXU_3.2' is-default-version='yes' type='func-type' binding='global-binding' visibility='default-visibility' is-defined='yes'/>
    <elf-symbol name='_ZNK16wxColourProperty12GetClassInfoEv' version='WXU_3.2' is-default-version='yes' type='func-type' binding='global-binding' visibility='default-visibility' is-defined='yes'/>
    <elf-symbol name='_ZNK16wxColourProperty13ValueToStringER9wxVarianti' version='WXU_3.2' is-default-version='yes' type='func-type' binding='global-binding' visibility='default-visibility' is-defined='yes'/>
    <elf-symbol name='_ZNK16wxColourProperty14DoTranslateValER21wxColourPropertyValue' version='WXU_3.2' is-default-version='yes' type='func-type' binding='global-binding' visibility='default-visibility' is-defined='yes'/>
    <elf-symbol name='_ZNK16wxColourProperty16DoGetEditorClassEv' version='WXU_3.2' is-default-version='yes' type='func-type' binding='global-binding' visibility='default-visibility' is-defined='yes'/>
    <elf-symbol name='_ZNK16wxColourProperty9GetColourEi' version='WXU_3.2' is-default-version='yes' type='func-type' binding='global-binding' visibility='default-visibility' is-defined='yes'/>
    <elf-symbol name='_ZNK16wxCursorProperty12GetClassInfoEv' version='WXU_3.2' is-default-version='yes' type='func-type' binding='global-binding' visibility='default-visibility' is-defined='yes'/>
    <elf-symbol name='_ZNK16wxCursorProperty13ValueToStringER9wxVarianti' version='WXU_3.2' is-default-version='yes' type='func-type' binding='global-binding' visibility='default-visibility' is-defined='yes'/>
    <elf-symbol name='_ZNK16wxCursorProperty14OnMeasureImageEi' version='WXU_3.2' is-default-version='yes' type='func-type' binding='global-binding' visibility='default-visibility' is-defined='yes'/>
    <elf-symbol name='_ZNK16wxPGCellRenderer11PreDrawCellER4wxDCRK6wxRectPK14wxPropertyGridRK8wxPGCelli' version='WXU_3.2' is-default-version='yes' type='func-type' binding='global-binding' visibility='default-visibility' is-defined='yes'/>
    <elf-symbol name='_ZNK16wxPGCellRenderer12GetImageSizeEPK12wxPGPropertyii' version='WXU_3.2' is-default-version='yes' type='func-type' binding='global-binding' visibility='default-visibility' is-defined='yes'/>
    <elf-symbol name='_ZNK16wxPGCellRenderer12PostDrawCellER4wxDCPK14wxPropertyGridRK8wxPGCelli' version='WXU_3.2' is-default-version='yes' type='func-type' binding='global-binding' visibility='default-visibility' is-defined='yes'/>
    <elf-symbol name='_ZNK16wxPGCellRenderer15DrawEditorValueER4wxDCRK6wxRectiRK8wxStringP12wxPGPropertyPK10wxPGEditor' version='WXU_3.2' is-default-version='yes' type='func-type' binding='global-binding' visibility='default-visibility' is-defined='yes'/>
    <elf-symbol name='_ZNK16wxPGCellRenderer24DrawCaptionSelectionRectER4wxDCiiii' version='WXU_3.2' is-default-version='yes' type='func-type' binding='global-binding' visibility='default-visibility' is-defined='yes'/>
    <elf-symbol name='_ZNK16wxPGCellRenderer8DrawTextER4wxDCRK6wxRectiRK8wxString' version='WXU_3.2' is-default-version='yes' type='func-type' binding='global-binding' visibility='default-visibility' is-defined='yes'/>
    <elf-symbol name='_ZNK16wxPGChoiceEditor10DeleteItemEP8wxWindowi' version='WXU_3.2' is-default-version='yes' type='func-type' binding='global-binding' visibility='default-visibility' is-defined='yes'/>
    <elf-symbol name='_ZNK16wxPGChoiceEditor10InsertItemEP8wxWindowRK8wxStringi' version='WXU_3.2' is-default-version='yes' type='func-type' binding='global-binding' visibility='default-visibility' is-defined='yes'/>
    <elf-symbol name='_ZNK16wxPGChoiceEditor12GetClassInfoEv' version='WXU_3.2' is-default-version='yes' type='func-type' binding='global-binding' visibility='default-visibility' is-defined='yes'/>
    <elf-symbol name='_ZNK16wxPGChoiceEditor13UpdateControlEP12wxPGPropertyP8wxWindow' version='WXU_3.2' is-default-version='yes' type='func-type' binding='global-binding' visibility='default-visibility' is-defined='yes'/>
    <elf-symbol name='_ZNK16wxPGChoiceEditor14CreateControlsEP14wxPropertyGridP12wxPGPropertyRK7wxPointRK6wxSize' version='WXU_3.2' is-default-version='yes' type='func-type' binding='global-binding' visibility='default-visibility' is-defined='yes'/>
    <elf-symbol name='_ZNK16wxPGChoiceEditor18CreateControlsBaseEP14wxPropertyGridP12wxPGPropertyRK7wxPointRK6wxSizel' version='WXU_3.2' is-default-version='yes' type='func-type' binding='global-binding' visibility='default-visibility' is-defined='yes'/>
    <elf-symbol name='_ZNK16wxPGChoiceEditor18SetControlIntValueEP12wxPGPropertyP8wxWindowi' version='WXU_3.2' is-default-version='yes' type='func-type' binding='global-binding' visibility='default-visibility' is-defined='yes'/>
    <elf-symbol name='_ZNK16wxPGChoiceEditor19GetValueFromControlER9wxVariantP12wxPGPropertyP8wxWindow' version='WXU_3.2' is-default-version='yes' type='func-type' binding='global-binding' visibility='default-visibility' is-defined='yes'/>
    <elf-symbol name='_ZNK16wxPGChoiceEditor21CanContainCustomImageEv' version='WXU_3.2' is-default-version='yes' type='func-type' binding='global-binding' visibility='default-visibility' is-defined='yes'/>
    <elf-symbol name='_ZNK16wxPGChoiceEditor21SetControlStringValueEP12wxPGPropertyP8wxWindowRK8wxString' version='WXU_3.2' is-default-version='yes' type='func-type' binding='global-binding' visibility='default-visibility' is-defined='yes'/>
    <elf-symbol name='_ZNK16wxPGChoiceEditor21SetValueToUnspecifiedEP12wxPGPropertyP8wxWindow' version='WXU_3.2' is-default-version='yes' type='func-type' binding='global-binding' visibility='default-visibility' is-defined='yes'/>
    <elf-symbol name='_ZNK16wxPGChoiceEditor7GetNameEv' version='WXU_3.2' is-default-version='yes' type='func-type' binding='global-binding' visibility='default-visibility' is-defined='yes'/>
    <elf-symbol name='_ZNK16wxPGChoiceEditor7OnEventEP14wxPropertyGridP12wxPGPropertyP8wxWindowR7wxEvent' version='WXU_3.2' is-default-version='yes' type='func-type' binding='global-binding' visibility='default-visibility' is-defined='yes'/>
    <elf-symbol name='_ZNK16wxPGChoiceEditor8SetItemsEP8wxWindowRK13wxArrayString' version='WXU_3.2' is-default-version='yes' type='func-type' binding='global-binding' visibility='default-visibility' is-defined='yes'/>
    <elf-symbol name='_ZNK16wxPGRootProperty12GetClassInfoEv' version='WXU_3.2' is-default-version='yes' type='func-type' binding='global-binding' visibility='default-visibility' is-defined='yes'/>
    <elf-symbol name='_ZNK16wxPGRootProperty16DoGetEditorClassEv' version='WXU_3.2' is-default-version='yes' type='func-type' binding='global-binding' visibility='default-visibility' is-defined='yes'/>
    <elf-symbol name='_ZNK16wxStringProperty12GetClassInfoEv' version='WXU_3.2' is-default-version='yes' type='func-type' binding='global-binding' visibility='default-visibility' is-defined='yes'/>
    <elf-symbol name='_ZNK16wxStringProperty13StringToValueER9wxVariantRK8wxStringi' version='WXU_3.2' is-default-version='yes' type='func-type' binding='global-binding' visibility='default-visibility' is-defined='yes'/>
    <elf-symbol name='_ZNK16wxStringProperty13ValueToStringER9wxVarianti' version='WXU_3.2' is-default-version='yes' type='func-type' binding='global-binding' visibility='default-visibility' is-defined='yes'/>
    <elf-symbol name='_ZNK16wxStringProperty16DoGetEditorClassEv' version='WXU_3.2' is-default-version='yes' type='func-type' binding='global-binding' visibility='default-visibility' is-defined='yes'/>
    <elf-symbol name='_ZNK17wxNumericProperty12GetClassInfoEv' version='WXU_3.2' is-default-version='yes' type='func-type' binding='global-binding' visibility='default-visibility' is-defined='yes'/>
    <elf-symbol name='_ZNK17wxNumericProperty19DoNumericValidationI16wxLongLongNativeEEbRT_P18wxPGValidationInfoiS2_S2_' version='WXU_3.2' is-default-version='yes' type='func-type' binding='weak-binding' visibility='default-visibility' is-defined='yes'/>
    <elf-symbol name='_ZNK17wxNumericProperty19DoNumericValidationI17wxULongLongNativeEEbRT_P18wxPGValidationInfoiS2_S2_' version='WXU_3.2' is-default-version='yes' type='func-type' binding='weak-binding' visibility='default-visibility' is-defined='yes'/>
    <elf-symbol name='_ZNK17wxNumericProperty19DoNumericValidationIdEEbRT_P18wxPGValidationInfoiS1_S1_' version='WXU_3.2' is-default-version='yes' type='func-type' binding='weak-binding' visibility='default-visibility' is-defined='yes'/>
    <elf-symbol name='_ZNK17wxNumericProperty19DoNumericValidationIlEEbRT_P18wxPGValidationInfoiS1_S1_' version='WXU_3.2' is-default-version='yes' type='func-type' binding='weak-binding' visibility='default-visibility' is-defined='yes'/>
    <elf-symbol name='_ZNK17wxNumericProperty19DoNumericValidationIxEEbRT_P18wxPGValidationInfoiS1_S1_' version='WXU_3.2' is-default-version='yes' type='func-type' binding='weak-binding' visibility='default-visibility' is-defined='yes'/>
    <elf-symbol name='_ZNK17wxNumericProperty19DoNumericValidationIyEEbRT_P18wxPGValidationInfoiS1_S1_' version='WXU_3.2' is-default-version='yes' type='func-type' binding='weak-binding' visibility='default-visibility' is-defined='yes'/>
    <elf-symbol name='_ZNK18wxEditEnumProperty12GetClassInfoEv' version='WXU_3.2' is-default-version='yes' type='func-type' binding='global-binding' visibility='default-visibility' is-defined='yes'/>
    <elf-symbol name='_ZNK18wxEditEnumProperty13StringToValueER9wxVariantRK8wxStringi' version='WXU_3.2' is-default-version='yes' type='func-type' binding='global-binding' visibility='default-visibility' is-defined='yes'/>
    <elf-symbol name='_ZNK18wxEditEnumProperty13ValidateValueER9wxVariantR18wxPGValidationInfo' version='WXU_3.2' is-default-version='yes' type='func-type' binding='global-binding' visibility='default-visibility' is-defined='yes'/>
    <elf-symbol name='_ZNK18wxEditEnumProperty16DoGetEditorClassEv' version='WXU_3.2' is-default-version='yes' type='func-type' binding='global-binding' visibility='default-visibility' is-defined='yes'/>
    <elf-symbol name='_ZNK18wxPGCheckBoxEditor12GetClassInfoEv' version='WXU_3.2' is-default-version='yes' type='func-type' binding='global-binding' visibility='default-visibility' is-defined='yes'/>
    <elf-symbol name='_ZNK18wxPGCheckBoxEditor13UpdateControlEP12wxPGPropertyP8wxWindow' version='WXU_3.2' is-default-version='yes' type='func-type' binding='global-binding' visibility='default-visibility' is-defined='yes'/>
    <elf-symbol name='_ZNK18wxPGCheckBoxEditor14CreateControlsEP14wxPropertyGridP12wxPGPropertyRK7wxPointRK6wxSize' version='WXU_3.2' is-default-version='yes' type='func-type' binding='global-binding' visibility='default-visibility' is-defined='yes'/>
    <elf-symbol name='_ZNK18wxPGCheckBoxEditor18SetControlIntValueEP12wxPGPropertyP8wxWindowi' version='WXU_3.2' is-default-version='yes' type='func-type' binding='global-binding' visibility='default-visibility' is-defined='yes'/>
    <elf-symbol name='_ZNK18wxPGCheckBoxEditor19GetValueFromControlER9wxVariantP12wxPGPropertyP8wxWindow' version='WXU_3.2' is-default-version='yes' type='func-type' binding='global-binding' visibility='default-visibility' is-defined='yes'/>
    <elf-symbol name='_ZNK18wxPGCheckBoxEditor21SetValueToUnspecifiedEP12wxPGPropertyP8wxWindow' version='WXU_3.2' is-default-version='yes' type='func-type' binding='global-binding' visibility='default-visibility' is-defined='yes'/>
    <elf-symbol name='_ZNK18wxPGCheckBoxEditor7GetNameEv' version='WXU_3.2' is-default-version='yes' type='func-type' binding='global-binding' visibility='default-visibility' is-defined='yes'/>
    <elf-symbol name='_ZNK18wxPGCheckBoxEditor7OnEventEP14wxPropertyGridP12wxPGPropertyP8wxWindowR7wxEvent' version='WXU_3.2' is-default-version='yes' type='func-type' binding='global-binding' visibility='default-visibility' is-defined='yes'/>
    <elf-symbol name='_ZNK18wxPGCheckBoxEditor9DrawValueER4wxDCRK6wxRectP12wxPGPropertyRK8wxString' version='WXU_3.2' is-default-version='yes' type='func-type' binding='global-binding' visibility='default-visibility' is-defined='yes'/>
    <elf-symbol name='_ZNK18wxPGComboBoxEditor12GetClassInfoEv' version='WXU_3.2' is-default-version='yes' type='func-type' binding='global-binding' visibility='default-visibility' is-defined='yes'/>
    <elf-symbol name='_ZNK18wxPGComboBoxEditor13UpdateControlEP12wxPGPropertyP8wxWindow' version='WXU_3.2' is-default-version='yes' type='func-type' binding='global-binding' visibility='default-visibility' is-defined='yes'/>
    <elf-symbol name='_ZNK18wxPGComboBoxEditor14CreateControlsEP14wxPropertyGridP12wxPGPropertyRK7wxPointRK6wxSize' version='WXU_3.2' is-default-version='yes' type='func-type' binding='global-binding' visibility='default-visibility' is-defined='yes'/>
    <elf-symbol name='_ZNK18wxPGComboBoxEditor19GetValueFromControlER9wxVariantP12wxPGPropertyP8wxWindow' version='WXU_3.2' is-default-version='yes' type='func-type' binding='global-binding' visibility='default-visibility' is-defined='yes'/>
    <elf-symbol name='_ZNK18wxPGComboBoxEditor7GetNameEv' version='WXU_3.2' is-default-version='yes' type='func-type' binding='global-binding' visibility='default-visibility' is-defined='yes'/>
    <elf-symbol name='_ZNK18wxPGComboBoxEditor7OnEventEP14wxPropertyGridP12wxPGPropertyP8wxWindowR7wxEvent' version='WXU_3.2' is-default-version='yes' type='func-type' binding='global-binding' visibility='default-visibility' is-defined='yes'/>
    <elf-symbol name='_ZNK18wxPGComboBoxEditor7OnFocusEP12wxPGPropertyP8wxWindow' version='WXU_3.2' is-default-version='yes' type='func-type' binding='global-binding' visibility='default-visibility' is-defined='yes'/>
    <elf-symbol name='_ZNK18wxPGSpinCtrlEditor12GetClassInfoEv' version='WXU_3.2' is-default-version='yes' type='func-type' binding='global-binding' visibility='default-visibility' is-defined='yes'/>
    <elf-symbol name='_ZNK18wxPGSpinCtrlEditor14CreateControlsEP14wxPropertyGridP12wxPGPropertyRK7wxPointRK6wxSize' version='WXU_3.2' is-default-version='yes' type='func-type' binding='global-binding' visibility='default-visibility' is-defined='yes'/>
    <elf-symbol name='_ZNK18wxPGSpinCtrlEditor7GetNameEv' version='WXU_3.2' is-default-version='yes' type='func-type' binding='global-binding' visibility='default-visibility' is-defined='yes'/>
    <elf-symbol name='_ZNK18wxPGSpinCtrlEditor7OnEventEP14wxPropertyGridP12wxPGPropertyP8wxWindowR7wxEvent' version='WXU_3.2' is-default-version='yes' type='func-type' binding='global-binding' visibility='default-visibility' is-defined='yes'/>
    <elf-symbol name='_ZNK18wxPGTextCtrlEditor12GetClassInfoEv' version='WXU_3.2' is-default-version='yes' type='func-type' binding='global-binding' visibility='default-visibility' is-defined='yes'/>
    <elf-symbol name='_ZNK18wxPGTextCtrlEditor13UpdateControlEP12wxPGPropertyP8wxWindow' version='WXU_3.2' is-default-version='yes' type='func-type' binding='global-binding' visibility='default-visibility' is-defined='yes'/>
    <elf-symbol name='_ZNK18wxPGTextCtrlEditor14CreateControlsEP14wxPropertyGridP12wxPGPropertyRK7wxPointRK6wxSize' version='WXU_3.2' is-default-version='yes' type='func-type' binding='global-binding' visibility='default-visibility' is-defined='yes'/>
    <elf-symbol name='_ZNK18wxPGTextCtrlEditor19GetValueFromControlER9wxVariantP12wxPGPropertyP8wxWindow' version='WXU_3.2' is-default-version='yes' type='func-type' binding='global-binding' visibility='default-visibility' is-defined='yes'/>
    <elf-symbol name='_ZNK18wxPGTextCtrlEditor21SetControlStringValueEP12wxPGPropertyP8wxWindowRK8wxString' version='WXU_3.2' is-default-version='yes' type='func-type' binding='global-binding' visibility='default-visibility' is-defined='yes'/>
    <elf-symbol name='_ZNK18wxPGTextCtrlEditor7GetNameEv' version='WXU_3.2' is-default-version='yes' type='func-type' binding='global-binding' visibility='default-visibility' is-defined='yes'/>
    <elf-symbol name='_ZNK18wxPGTextCtrlEditor7OnEventEP14wxPropertyGridP12wxPGPropertyP8wxWindowR7wxEvent' version='WXU_3.2' is-default-version='yes' type='func-type' binding='global-binding' visibility='default-visibility' is-defined='yes'/>
    <elf-symbol name='_ZNK18wxPGTextCtrlEditor7OnFocusEP12wxPGPropertyP8wxWindow' version='WXU_3.2' is-default-version='yes' type='func-type' binding='global-binding' visibility='default-visibility' is-defined='yes'/>
    <elf-symbol name='_ZNK18wxPropertyCategory12GetClassInfoEv' version='WXU_3.2' is-default-version='yes' type='func-type' binding='global-binding' visibility='default-visibility' is-defined='yes'/>
    <elf-symbol name='_ZNK18wxPropertyCategory13GetTextExtentEPK8wxWindowRK6wxFont' version='WXU_3.2' is-default-version='yes' type='func-type' binding='global-binding' visibility='default-visibility' is-defined='yes'/>
    <elf-symbol name='_ZNK18wxPropertyCategory13ValueToStringER9wxVarianti' version='WXU_3.2' is-default-version='yes' type='func-type' binding='global-binding' visibility='default-visibility' is-defined='yes'/>
    <elf-symbol name='_ZNK18wxPropertyCategory16DoGetEditorClassEv' version='WXU_3.2' is-default-version='yes' type='func-type' binding='global-binding' visibility='default-visibility' is-defined='yes'/>
    <elf-symbol name='_ZNK18wxPropertyCategory16GetValueAsStringEi' version='WXU_3.2' is-default-version='yes' type='func-type' binding='global-binding' visibility='default-visibility' is-defined='yes'/>
    <elf-symbol name='_ZNK18wxPropertyGridPage12GetClassInfoEv' version='WXU_3.2' is-default-version='yes' type='func-type' binding='global-binding' visibility='default-visibility' is-defined='yes'/>
    <elf-symbol name='_ZNK18wxPropertyGridPage13GetEventTableEv' version='WXU_3.2' is-default-version='yes' type='func-type' binding='global-binding' visibility='default-visibility' is-defined='yes'/>
    <elf-symbol name='_ZNK18wxPropertyGridPage17GetEventHashTableEv' version='WXU_3.2' is-default-version='yes' type='func-type' binding='global-binding' visibility='default-visibility' is-defined='yes'/>
    <elf-symbol name='_ZNK19wxImageFileProperty12GetClassInfoEv' version='WXU_3.2' is-default-version='yes' type='func-type' binding='global-binding' visibility='default-visibility' is-defined='yes'/>
    <elf-symbol name='_ZNK19wxImageFileProperty14OnMeasureImageEi' version='WXU_3.2' is-default-version='yes' type='func-type' binding='global-binding' visibility='default-visibility' is-defined='yes'/>
    <elf-symbol name='_ZNK19wxPGDefaultRenderer12GetImageSizeEPK12wxPGPropertyii' version='WXU_3.2' is-default-version='yes' type='func-type' binding='global-binding' visibility='default-visibility' is-defined='yes'/>
    <elf-symbol name='_ZNK19wxPGDefaultRenderer6RenderER4wxDCRK6wxRectPK14wxPropertyGridP12wxPGPropertyiii' version='WXU_3.2' is-default-version='yes' type='func-type' binding='global-binding' visibility='default-visibility' is-defined='yes'/>
    <elf-symbol name='_ZNK19wxPropertyGridEvent12GetClassInfoEv' version='WXU_3.2' is-default-version='yes' type='func-type' binding='global-binding' visibility='default-visibility' is-defined='yes'/>
    <elf-symbol name='_ZNK19wxPropertyGridEvent5CloneEv' version='WXU_3.2' is-default-version='yes' type='func-type' binding='global-binding' visibility='default-visibility' is-defined='yes'/>
    <elf-symbol name='_ZNK20wxLongStringProperty12GetClassInfoEv' version='WXU_3.2' is-default-version='yes' type='func-type' binding='global-binding' visibility='default-visibility' is-defined='yes'/>
    <elf-symbol name='_ZNK20wxLongStringProperty13StringToValueER9wxVariantRK8wxStringi' version='WXU_3.2' is-default-version='yes' type='func-type' binding='global-binding' visibility='default-visibility' is-defined='yes'/>
    <elf-symbol name='_ZNK20wxLongStringProperty13ValueToStringER9wxVarianti' version='WXU_3.2' is-default-version='yes' type='func-type' binding='global-binding' visibility='default-visibility' is-defined='yes'/>
    <elf-symbol name='_ZNK20wxLongStringProperty16DoGetEditorClassEv' version='WXU_3.2' is-default-version='yes' type='func-type' binding='global-binding' visibility='default-visibility' is-defined='yes'/>
    <elf-symbol name='_ZNK21wxArrayStringProperty12GetClassInfoEv' version='WXU_3.2' is-default-version='yes' type='func-type' binding='global-binding' visibility='default-visibility' is-defined='yes'/>
    <elf-symbol name='_ZNK21wxArrayStringProperty13StringToValueER9wxVariantRK8wxStringi' version='WXU_3.2' is-default-version='yes' type='func-type' binding='global-binding' visibility='default-visibility' is-defined='yes'/>
    <elf-symbol name='_ZNK21wxArrayStringProperty13ValueToStringER9wxVarianti' version='WXU_3.2' is-default-version='yes' type='func-type' binding='global-binding' visibility='default-visibility' is-defined='yes'/>
    <elf-symbol name='_ZNK21wxArrayStringProperty16DoGetEditorClassEv' version='WXU_3.2' is-default-version='yes' type='func-type' binding='global-binding' visibility='default-visibility' is-defined='yes'/>
    <elf-symbol name='_ZNK21wxArrayStringProperty20ConvertArrayToStringERK13wxArrayStringRK9wxUniChar' version='WXU_3.2' is-default-version='yes' type='func-type' binding='global-binding' visibility='default-visibility' is-defined='yes'/>
    <elf-symbol name='_ZNK21wxColourPropertyValue12GetClassInfoEv' version='WXU_3.2' is-default-version='yes' type='func-type' binding='global-binding' visibility='default-visibility' is-defined='yes'/>
    <elf-symbol name='_ZNK21wxMultiChoiceProperty12GetClassInfoEv' version='WXU_3.2' is-default-version='yes' type='func-type' binding='global-binding' visibility='default-visibility' is-defined='yes'/>
    <elf-symbol name='_ZNK21wxMultiChoiceProperty13StringToValueER9wxVariantRK8wxStringi' version='WXU_3.2' is-default-version='yes' type='func-type' binding='global-binding' visibility='default-visibility' is-defined='yes'/>
    <elf-symbol name='_ZNK21wxMultiChoiceProperty13ValueToStringER9wxVarianti' version='WXU_3.2' is-default-version='yes' type='func-type' binding='global-binding' visibility='default-visibility' is-defined='yes'/>
    <elf-symbol name='_ZNK21wxMultiChoiceProperty16DoGetEditorClassEv' version='WXU_3.2' is-default-version='yes' type='func-type' binding='global-binding' visibility='default-visibility' is-defined='yes'/>
    <elf-symbol name='_ZNK21wxMultiChoiceProperty17GetValueAsIndicesEv' version='WXU_3.2' is-default-version='yes' type='func-type' binding='global-binding' visibility='default-visibility' is-defined='yes'/>
    <elf-symbol name='_ZNK21wxMultiChoiceProperty21GenerateValueAsStringERK9wxVariant' version='WXU_3.2' is-default-version='yes' type='func-type' binding='global-binding' visibility='default-visibility' is-defined='yes'/>
    <elf-symbol name='_ZNK21wxPGArrayEditorDialog12GetClassInfoEv' version='WXU_3.2' is-default-version='yes' type='func-type' binding='global-binding' visibility='default-visibility' is-defined='yes'/>
    <elf-symbol name='_ZNK21wxPGArrayEditorDialog12GetSelectionEv' version='WXU_3.2' is-default-version='yes' type='func-type' binding='global-binding' visibility='default-visibility' is-defined='yes'/>
    <elf-symbol name='_ZNK21wxPGArrayEditorDialog13GetEventTableEv' version='WXU_3.2' is-default-version='yes' type='func-type' binding='global-binding' visibility='default-visibility' is-defined='yes'/>
    <elf-symbol name='_ZNK21wxPGArrayEditorDialog17GetEventHashTableEv' version='WXU_3.2' is-default-version='yes' type='func-type' binding='global-binding' visibility='default-visibility' is-defined='yes'/>
    <elf-symbol name='_ZNK21wxPropertyGridManager11GetPageNameEi' version='WXU_3.2' is-default-version='yes' type='func-type' binding='global-binding' visibility='default-visibility' is-defined='yes'/>
    <elf-symbol name='_ZNK21wxPropertyGridManager11GetPageRootEi' version='WXU_3.2' is-default-version='yes' type='func-type' binding='global-binding' visibility='default-visibility' is-defined='yes'/>
    <elf-symbol name='_ZNK21wxPropertyGridManager12GetClassInfoEv' version='WXU_3.2' is-default-version='yes' type='func-type' binding='global-binding' visibility='default-visibility' is-defined='yes'/>
    <elf-symbol name='_ZNK21wxPropertyGridManager12GetPageCountEv' version='WXU_3.2' is-default-version='yes' type='func-type' binding='global-binding' visibility='default-visibility' is-defined='yes'/>
    <elf-symbol name='_ZNK21wxPropertyGridManager12GetPageStateEi' version='WXU_3.2' is-default-version='yes' type='func-type' binding='global-binding' visibility='default-visibility' is-defined='yes'/>
    <elf-symbol name='_ZNK21wxPropertyGridManager12GetVIteratorEi' version='WXU_3.2' is-default-version='yes' type='func-type' binding='global-binding' visibility='default-visibility' is-defined='yes'/>
    <elf-symbol name='_ZNK21wxPropertyGridManager13DoGetBestSizeEv' version='WXU_3.2' is-default-version='yes' type='func-type' binding='global-binding' visibility='default-visibility' is-defined='yes'/>
    <elf-symbol name='_ZNK21wxPropertyGridManager13GetEventTableEv' version='WXU_3.2' is-default-version='yes' type='func-type' binding='global-binding' visibility='default-visibility' is-defined='yes'/>
    <elf-symbol name='_ZNK21wxPropertyGridManager13GetPageByNameERK8wxString' version='WXU_3.2' is-default-version='yes' type='func-type' binding='global-binding' visibility='default-visibility' is-defined='yes'/>
    <elf-symbol name='_ZNK21wxPropertyGridManager13IsAnyModifiedEv' version='WXU_3.2' is-default-version='yes' type='func-type' binding='global-binding' visibility='default-visibility' is-defined='yes'/>
    <elf-symbol name='_ZNK21wxPropertyGridManager14GetColumnCountEi' version='WXU_3.2' is-default-version='yes' type='func-type' binding='global-binding' visibility='default-visibility' is-defined='yes'/>
    <elf-symbol name='_ZNK21wxPropertyGridManager14GetPageByStateEPK23wxPropertyGridPageState' version='WXU_3.2' is-default-version='yes' type='func-type' binding='global-binding' visibility='default-visibility' is-defined='yes'/>
    <elf-symbol name='_ZNK21wxPropertyGridManager14IsPageModifiedEm' version='WXU_3.2' is-default-version='yes' type='func-type' binding='global-binding' visibility='default-visibility' is-defined='yes'/>
    <elf-symbol name='_ZNK21wxPropertyGridManager16GetDescBoxHeightEv' version='WXU_3.2' is-default-version='yes' type='func-type' binding='global-binding' visibility='default-visibility' is-defined='yes'/>
    <elf-symbol name='_ZNK21wxPropertyGridManager17GetEventHashTableEv' version='WXU_3.2' is-default-version='yes' type='func-type' binding='global-binding' visibility='default-visibility' is-defined='yes'/>
    <elf-symbol name='_ZNK21wxPropertyGridManager18CreatePropertyGridEv' version='WXU_3.2' is-default-version='yes' type='func-type' binding='global-binding' visibility='default-visibility' is-defined='yes'/>
    <elf-symbol name='_ZNK21wxPropertyGridManager18IsPropertySelectedERK14wxPGPropArgCls' version='WXU_3.2' is-default-version='yes' type='func-type' binding='global-binding' visibility='default-visibility' is-defined='yes'/>
    <elf-symbol name='_ZNK21wxPropertyGridManager19DoGetPropertyByNameERK8wxString' version='WXU_3.2' is-default-version='yes' type='func-type' binding='global-binding' visibility='default-visibility' is-defined='yes'/>
    <elf-symbol name='_ZNK21wxPropertyGridManager20GetEditableStateItemERK8wxString' version='WXU_3.2' is-default-version='yes' type='func-type' binding='global-binding' visibility='default-visibility' is-defined='yes'/>
    <elf-symbol name='_ZNK22wxEditorDialogProperty12GetClassInfoEv' version='WXU_3.2' is-default-version='yes' type='func-type' binding='global-binding' visibility='default-visibility' is-defined='yes'/>
    <elf-symbol name='_ZNK22wxEditorDialogProperty15GetEditorDialogEv' version='WXU_3.2' is-default-version='yes' type='func-type' binding='global-binding' visibility='default-visibility' is-defined='yes'/>
    <elf-symbol name='_ZNK22wxSystemColourProperty10IntToValueER9wxVariantii' version='WXU_3.2' is-default-version='yes' type='func-type' binding='global-binding' visibility='default-visibility' is-defined='yes'/>
    <elf-symbol name='_ZNK22wxSystemColourProperty12GetClassInfoEv' version='WXU_3.2' is-default-version='yes' type='func-type' binding='global-binding' visibility='default-visibility' is-defined='yes'/>
    <elf-symbol name='_ZNK22wxSystemColourProperty13StringToValueER9wxVariantRK8wxStringi' version='WXU_3.2' is-default-version='yes' type='func-type' binding='global-binding' visibility='default-visibility' is-defined='yes'/>
    <elf-symbol name='_ZNK22wxSystemColourProperty13ValueToStringER9wxVarianti' version='WXU_3.2' is-default-version='yes' type='func-type' binding='global-binding' visibility='default-visibility' is-defined='yes'/>
    <elf-symbol name='_ZNK22wxSystemColourProperty14ColourToStringERK8wxColourii' version='WXU_3.2' is-default-version='yes' type='func-type' binding='global-binding' visibility='default-visibility' is-defined='yes'/>
    <elf-symbol name='_ZNK22wxSystemColourProperty14DoTranslateValER21wxColourPropertyValue' version='WXU_3.2' is-default-version='yes' type='func-type' binding='global-binding' visibility='default-visibility' is-defined='yes'/>
    <elf-symbol name='_ZNK22wxSystemColourProperty14OnMeasureImageEi' version='WXU_3.2' is-default-version='yes' type='func-type' binding='global-binding' visibility='default-visibility' is-defined='yes'/>
    <elf-symbol name='_ZNK22wxSystemColourProperty16DoGetEditorClassEv' version='WXU_3.2' is-default-version='yes' type='func-type' binding='global-binding' visibility='default-visibility' is-defined='yes'/>
    <elf-symbol name='_ZNK22wxSystemColourProperty19QueryColourFromUserER9wxVariant' version='WXU_3.2' is-default-version='yes' type='func-type' binding='global-binding' visibility='default-visibility' is-defined='yes'/>
    <elf-symbol name='_ZNK22wxSystemColourProperty20GetCustomColourIndexEv' version='WXU_3.2' is-default-version='yes' type='func-type' binding='global-binding' visibility='default-visibility' is-defined='yes'/>
    <elf-symbol name='_ZNK22wxSystemColourProperty6GetValEPK9wxVariant' version='WXU_3.2' is-default-version='yes' type='func-type' binding='global-binding' visibility='default-visibility' is-defined='yes'/>
    <elf-symbol name='_ZNK22wxSystemColourProperty8ColToIndERK8wxColour' version='WXU_3.2' is-default-version='yes' type='func-type' binding='global-binding' visibility='default-visibility' is-defined='yes'/>
    <elf-symbol name='_ZNK22wxSystemColourProperty9GetColourEi' version='WXU_3.2' is-default-version='yes' type='func-type' binding='global-binding' visibility='default-visibility' is-defined='yes'/>
    <elf-symbol name='_ZNK23wxPGEditorDialogAdapter12GetClassInfoEv' version='WXU_3.2' is-default-version='yes' type='func-type' binding='global-binding' visibility='default-visibility' is-defined='yes'/>
    <elf-symbol name='_ZNK23wxPropertyGridInterface12GetSelectionEv' version='WXU_3.2' is-default-version='yes' type='func-type' binding='global-binding' visibility='default-visibility' is-defined='yes'/>
    <elf-symbol name='_ZNK23wxPropertyGridInterface12GetVIteratorEi' version='WXU_3.2' is-default-version='yes' type='func-type' binding='global-binding' visibility='default-visibility' is-defined='yes'/>
    <elf-symbol name='_ZNK23wxPropertyGridInterface17GetPropertyByNameERK8wxString' version='WXU_3.2' is-default-version='yes' type='func-type' binding='global-binding' visibility='default-visibility' is-defined='yes'/>
    <elf-symbol name='_ZNK23wxPropertyGridInterface17GetPropertyByNameERK8wxStringS2_' version='WXU_3.2' is-default-version='yes' type='func-type' binding='global-binding' visibility='default-visibility' is-defined='yes'/>
    <elf-symbol name='_ZNK23wxPropertyGridInterface17SaveEditableStateEi' version='WXU_3.2' is-default-version='yes' type='func-type' binding='global-binding' visibility='default-visibility' is-defined='yes'/>
    <elf-symbol name='_ZNK23wxPropertyGridInterface18GetPropertyByLabelERK8wxString' version='WXU_3.2' is-default-version='yes' type='func-type' binding='global-binding' visibility='default-visibility' is-defined='yes'/>
    <elf-symbol name='_ZNK23wxPropertyGridInterface18GetPropertyByNameAERK8wxString' version='WXU_3.2' is-default-version='yes' type='func-type' binding='global-binding' visibility='default-visibility' is-defined='yes'/>
    <elf-symbol name='_ZNK23wxPropertyGridInterface18IsPropertyExpandedERK14wxPGPropArgCls' version='WXU_3.2' is-default-version='yes' type='func-type' binding='global-binding' visibility='default-visibility' is-defined='yes'/>
    <elf-symbol name='_ZNK23wxPropertyGridInterface19DoGetPropertyByNameERK8wxString' version='WXU_3.2' is-default-version='yes' type='func-type' binding='global-binding' visibility='default-visibility' is-defined='yes'/>
    <elf-symbol name='_ZNK23wxPropertyGridInterface21GetPropertiesWithFlagEP17wxArrayPGPropertyjbi' version='WXU_3.2' is-default-version='yes' type='func-type' binding='global-binding' visibility='default-visibility' is-defined='yes'/>
    <elf-symbol name='_ZNK23wxPropertyGridInterface22GetPropertyValueAsBoolERK14wxPGPropArgCls' version='WXU_3.2' is-default-version='yes' type='func-type' binding='global-binding' visibility='default-visibility' is-defined='yes'/>
    <elf-symbol name='_ZNK23wxPropertyGridInterface22GetPropertyValueAsLongERK14wxPGPropArgCls' version='WXU_3.2' is-default-version='yes' type='func-type' binding='global-binding' visibility='default-visibility' is-defined='yes'/>
    <elf-symbol name='_ZNK23wxPropertyGridInterface24GetPropertyValueAsDoubleERK14wxPGPropArgCls' version='WXU_3.2' is-default-version='yes' type='func-type' binding='global-binding' visibility='default-visibility' is-defined='yes'/>
    <elf-symbol name='_ZNK23wxPropertyGridInterface24GetPropertyValueAsStringERK14wxPGPropArgCls' version='WXU_3.2' is-default-version='yes' type='func-type' binding='global-binding' visibility='default-visibility' is-defined='yes'/>
    <elf-symbol name='_ZNK23wxPropertyGridInterface26GetPropertyValueAsArrayIntERK14wxPGPropArgCls' version='WXU_3.2' is-default-version='yes' type='func-type' binding='global-binding' visibility='default-visibility' is-defined='yes'/>
    <elf-symbol name='_ZNK23wxPropertyGridInterface26GetPropertyValueAsDateTimeERK14wxPGPropArgCls' version='WXU_3.2' is-default-version='yes' type='func-type' binding='global-binding' visibility='default-visibility' is-defined='yes'/>
    <elf-symbol name='_ZNK23wxPropertyGridInterface26GetPropertyValueAsLongLongERK14wxPGPropArgCls' version='WXU_3.2' is-default-version='yes' type='func-type' binding='global-binding' visibility='default-visibility' is-defined='yes'/>
    <elf-symbol name='_ZNK23wxPropertyGridInterface27GetPropertyValueAsULongLongERK14wxPGPropArgCls' version='WXU_3.2' is-default-version='yes' type='func-type' binding='global-binding' visibility='default-visibility' is-defined='yes'/>
    <elf-symbol name='_ZNK23wxPropertyGridInterface29GetPropertyValueAsArrayStringERK14wxPGPropArgCls' version='WXU_3.2' is-default-version='yes' type='func-type' binding='global-binding' visibility='default-visibility' is-defined='yes'/>
    <elf-symbol name='_ZNK23wxPropertyGridPageState11IsDisplayedEv' version='WXU_3.2' is-default-version='yes' type='func-type' binding='global-binding' visibility='default-visibility' is-defined='yes'/>
    <elf-symbol name='_ZNK23wxPropertyGridPageState12DoGetItemAtYEi' version='WXU_3.2' is-default-version='yes' type='func-type' binding='global-binding' visibility='default-visibility' is-defined='yes'/>
    <elf-symbol name='_ZNK23wxPropertyGridPageState17GetColumnFitWidthEPK12wxPGPropertyjb' version='WXU_3.2' is-default-version='yes' type='func-type' binding='global-binding' visibility='default-visibility' is-defined='yes'/>
    <elf-symbol name='_ZNK23wxPropertyGridPageState17GetColumnFitWidthERK4wxDCP12wxPGPropertyjb' version='WXU_3.2' is-default-version='yes' type='func-type' binding='global-binding' visibility='default-visibility' is-defined='yes'/>
    <elf-symbol name='_ZNK23wxPropertyGridPageState17GetColumnMinWidthEi' version='WXU_3.2' is-default-version='yes' type='func-type' binding='global-binding' visibility='default-visibility' is-defined='yes'/>
    <elf-symbol name='_ZNK23wxPropertyGridPageState18GetColumnFullWidthEP12wxPGPropertyj' version='WXU_3.2' is-default-version='yes' type='func-type' binding='global-binding' visibility='default-visibility' is-defined='yes'/>
    <elf-symbol name='_ZNK23wxPropertyGridPageState18GetPropertyByLabelERK8wxStringP12wxPGProperty' version='WXU_3.2' is-default-version='yes' type='func-type' binding='global-binding' visibility='default-visibility' is-defined='yes'/>
    <elf-symbol name='_ZNK23wxPropertyGridPageState19DoGetPropertyValuesERK8wxStringP12wxPGPropertyl' version='WXU_3.2' is-default-version='yes' type='func-type' binding='global-binding' visibility='default-visibility' is-defined='yes'/>
    <elf-symbol name='_ZNK23wxPropertyGridPageState19GetPropertyCategoryEPK12wxPGProperty' version='WXU_3.2' is-default-version='yes' type='func-type' binding='global-binding' visibility='default-visibility' is-defined='yes'/>
    <elf-symbol name='_ZNK23wxPropertyGridPageState20DoIsPropertySelectedEP12wxPGProperty' version='WXU_3.2' is-default-version='yes' type='func-type' binding='global-binding' visibility='default-visibility' is-defined='yes'/>
    <elf-symbol name='_ZNK23wxPropertyGridPageState21ArePropertiesAdjacentEP12wxPGPropertyS1_i' version='WXU_3.2' is-default-version='yes' type='func-type' binding='global-binding' visibility='default-visibility' is-defined='yes'/>
    <elf-symbol name='_ZNK23wxPropertyGridPageState21BaseGetPropertyByNameERK8wxString' version='WXU_3.2' is-default-version='yes' type='func-type' binding='global-binding' visibility='default-visibility' is-defined='yes'/>
    <elf-symbol name='_ZNK23wxPropertyGridPageState21DoGetSplitterPositionEi' version='WXU_3.2' is-default-version='yes' type='func-type' binding='global-binding' visibility='default-visibility' is-defined='yes'/>
    <elf-symbol name='_ZNK23wxPropertyGridPageState22BaseGetPropertyByLabelERK8wxStringPK12wxPGProperty' version='WXU_3.2' is-default-version='yes' type='func-type' binding='global-binding' visibility='default-visibility' is-defined='yes'/>
    <elf-symbol name='_ZNK23wxPropertyGridPageState22GetActualVirtualHeightEv' version='WXU_3.2' is-default-version='yes' type='func-type' binding='global-binding' visibility='default-visibility' is-defined='yes'/>
    <elf-symbol name='_ZNK23wxPropertyGridPageState7HitTestERK7wxPoint' version='WXU_3.2' is-default-version='yes' type='func-type' binding='global-binding' visibility='default-visibility' is-defined='yes'/>
    <elf-symbol name='_ZNK23wxPropertyGridPageState8HitTestHEiPiS0_' version='WXU_3.2' is-default-version='yes' type='func-type' binding='global-binding' visibility='default-visibility' is-defined='yes'/>
    <elf-symbol name='_ZNK25wxPGChoiceAndButtonEditor12GetClassInfoEv' version='WXU_3.2' is-default-version='yes' type='func-type' binding='global-binding' visibility='default-visibility' is-defined='yes'/>
    <elf-symbol name='_ZNK25wxPGChoiceAndButtonEditor14CreateControlsEP14wxPropertyGridP12wxPGPropertyRK7wxPointRK6wxSize' version='WXU_3.2' is-default-version='yes' type='func-type' binding='global-binding' visibility='default-visibility' is-defined='yes'/>
    <elf-symbol name='_ZNK25wxPGChoiceAndButtonEditor7GetNameEv' version='WXU_3.2' is-default-version='yes' type='func-type' binding='global-binding' visibility='default-visibility' is-defined='yes'/>
    <elf-symbol name='_ZNK27wxPGArrayStringEditorDialog12GetClassInfoEv' version='WXU_3.2' is-default-version='yes' type='func-type' binding='global-binding' visibility='default-visibility' is-defined='yes'/>
    <elf-symbol name='_ZNK27wxPGArrayStringEditorDialog13GetEventTableEv' version='WXU_3.2' is-default-version='yes' type='func-type' binding='global-binding' visibility='default-visibility' is-defined='yes'/>
    <elf-symbol name='_ZNK27wxPGArrayStringEditorDialog17GetEventHashTableEv' version='WXU_3.2' is-default-version='yes' type='func-type' binding='global-binding' visibility='default-visibility' is-defined='yes'/>
    <elf-symbol name='_ZNK27wxPGTextCtrlAndButtonEditor12GetClassInfoEv' version='WXU_3.2' is-default-version='yes' type='func-type' binding='global-binding' visibility='default-visibility' is-defined='yes'/>
    <elf-symbol name='_ZNK27wxPGTextCtrlAndButtonEditor14CreateControlsEP14wxPropertyGridP12wxPGPropertyRK7wxPointRK6wxSize' version='WXU_3.2' is-default-version='yes' type='func-type' binding='global-binding' visibility='default-visibility' is-defined='yes'/>
    <elf-symbol name='_ZNK27wxPGTextCtrlAndButtonEditor7GetNameEv' version='WXU_3.2' is-default-version='yes' type='func-type' binding='global-binding' visibility='default-visibility' is-defined='yes'/>
    <elf-symbol name='_ZNK8wxPGCell12CloneRefDataEPK12wxRefCounter' version='WXU_3.2' is-default-version='yes' type='func-type' binding='global-binding' visibility='default-visibility' is-defined='yes'/>
    <elf-symbol name='_ZNK8wxString14const_iteratorneERKNS_8iteratorE' version='WXU_3.2' is-default-version='yes' type='func-type' binding='weak-binding' visibility='default-visibility' is-defined='yes'/>
    <elf-symbol name='_ZNSt7__cxx1112basic_stringIwSt11char_traitsIwESaIwEE12_M_constructIN9__gnu_cxx17__normal_iteratorIPKwS4_EEEEvT_SB_St20forward_iterator_tag' version='WXU_3.2' is-default-version='yes' type='func-type' binding='weak-binding' visibility='default-visibility' is-defined='yes'/>
    <elf-symbol name='_ZNSt7__cxx1112basic_stringIwSt11char_traitsIwESaIwEE12_M_constructIPKwEEvT_S8_St20forward_iterator_tag' version='WXU_3.2' is-default-version='yes' type='func-type' binding='weak-binding' visibility='default-visibility' is-defined='yes'/>
    <elf-symbol name='_ZThn152_N18wxPropertyGridPage21DoSetSplitterPositionEiii' version='WXU_3.2' is-default-version='yes' type='func-type' binding='global-binding' visibility='default-visibility' is-defined='yes'/>
    <elf-symbol name='_ZThn152_N18wxPropertyGridPageD0Ev' version='WXU_3.2' is-default-version='yes' type='func-type' binding='global-binding' visibility='default-visibility' is-defined='yes'/>
    <elf-symbol name='_ZThn152_N18wxPropertyGridPageD1Ev' version='WXU_3.2' is-default-version='yes' type='func-type' binding='global-binding' visibility='default-visibility' is-defined='yes'/>
    <elf-symbol name='_ZThn696_N21wxPropertyGridManager12DoSelectPageEi' version='WXU_3.2' is-default-version='yes' type='func-type' binding='global-binding' visibility='default-visibility' is-defined='yes'/>
    <elf-symbol name='_ZThn696_N21wxPropertyGridManager15RefreshPropertyEP12wxPGProperty' version='WXU_3.2' is-default-version='yes' type='func-type' binding='global-binding' visibility='default-visibility' is-defined='yes'/>
    <elf-symbol name='_ZThn696_N21wxPropertyGridManager20SetEditableStateItemERK8wxString9wxVariant' version='WXU_3.2' is-default-version='yes' type='func-type' binding='global-binding' visibility='default-visibility' is-defined='yes'/>
    <elf-symbol name='_ZThn696_N21wxPropertyGridManager5ClearEv' version='WXU_3.2' is-default-version='yes' type='func-type' binding='global-binding' visibility='default-visibility' is-defined='yes'/>
    <elf-symbol name='_ZThn696_N21wxPropertyGridManagerD0Ev' version='WXU_3.2' is-default-version='yes' type='func-type' binding='global-binding' visibility='default-visibility' is-defined='yes'/>
    <elf-symbol name='_ZThn696_N21wxPropertyGridManagerD1Ev' version='WXU_3.2' is-default-version='yes' type='func-type' binding='global-binding' visibility='default-visibility' is-defined='yes'/>
    <elf-symbol name='_ZThn696_NK21wxPropertyGridManager12GetPageStateEi' version='WXU_3.2' is-default-version='yes' type='func-type' binding='global-binding' visibility='default-visibility' is-defined='yes'/>
    <elf-symbol name='_ZThn696_NK21wxPropertyGridManager12GetVIteratorEi' version='WXU_3.2' is-default-version='yes' type='func-type' binding='global-binding' visibility='default-visibility' is-defined='yes'/>
    <elf-symbol name='_ZThn696_NK21wxPropertyGridManager19DoGetPropertyByNameERK8wxString' version='WXU_3.2' is-default-version='yes' type='func-type' binding='global-binding' visibility='default-visibility' is-defined='yes'/>
    <elf-symbol name='_ZThn696_NK21wxPropertyGridManager20GetEditableStateItemERK8wxString' version='WXU_3.2' is-default-version='yes' type='func-type' binding='global-binding' visibility='default-visibility' is-defined='yes'/>
    <elf-symbol name='_ZThn712_N14wxPropertyGrid13SetScrollbarsEiiiiiib' version='WXU_3.2' is-default-version='yes' type='func-type' binding='global-binding' visibility='default-visibility' is-defined='yes'/>
    <elf-symbol name='_ZThn712_N14wxPropertyGridD0Ev' version='WXU_3.2' is-default-version='yes' type='func-type' binding='global-binding' visibility='default-visibility' is-defined='yes'/>
    <elf-symbol name='_ZThn712_N14wxPropertyGridD1Ev' version='WXU_3.2' is-default-version='yes' type='func-type' binding='global-binding' visibility='default-visibility' is-defined='yes'/>
    <elf-symbol name='_ZThn832_N14wxPropertyGrid15RefreshPropertyEP12wxPGProperty' version='WXU_3.2' is-default-version='yes' type='func-type' binding='global-binding' visibility='default-visibility' is-defined='yes'/>
    <elf-symbol name='_ZThn832_N14wxPropertyGrid5ClearEv' version='WXU_3.2' is-default-version='yes' type='func-type' binding='global-binding' visibility='default-visibility' is-defined='yes'/>
    <elf-symbol name='_ZThn832_N14wxPropertyGridD0Ev' version='WXU_3.2' is-default-version='yes' type='func-type' binding='global-binding' visibility='default-visibility' is-defined='yes'/>
    <elf-symbol name='_ZThn832_N14wxPropertyGridD1Ev' version='WXU_3.2' is-default-version='yes' type='func-type' binding='global-binding' visibility='default-visibility' is-defined='yes'/>
    <elf-symbol name='_ZThn88_N18wxPropertyGridPage15RefreshPropertyEP12wxPGProperty' version='WXU_3.2' is-default-version='yes' type='func-type' binding='global-binding' visibility='default-visibility' is-defined='yes'/>
    <elf-symbol name='_ZThn88_N18wxPropertyGridPage5ClearEv' version='WXU_3.2' is-default-version='yes' type='func-type' binding='global-binding' visibility='default-visibility' is-defined='yes'/>
    <elf-symbol name='_ZThn88_N18wxPropertyGridPageD0Ev' version='WXU_3.2' is-default-version='yes' type='func-type' binding='global-binding' visibility='default-visibility' is-defined='yes'/>
    <elf-symbol name='_ZThn88_N18wxPropertyGridPageD1Ev' version='WXU_3.2' is-default-version='yes' type='func-type' binding='global-binding' visibility='default-visibility' is-defined='yes'/>
    <elf-symbol name='_ZeqRK10wxArrayIntS1_' version='WXU_3.2' is-default-version='yes' type='func-type' binding='global-binding' visibility='default-visibility' is-defined='yes'/>
    <elf-symbol name='_ZeqRK21wxColourPropertyValueS1_' version='WXU_3.2' is-default-version='yes' type='func-type' binding='global-binding' visibility='default-visibility' is-defined='yes'/>
    <elf-symbol name='_ZlsR10wxArrayIntRK9wxVariant' version='WXU_3.2' is-default-version='yes' type='func-type' binding='global-binding' visibility='default-visibility' is-defined='yes'/>
    <elf-symbol name='_ZlsR21wxColourPropertyValueRK9wxVariant' version='WXU_3.2' is-default-version='yes' type='func-type' binding='global-binding' visibility='default-visibility' is-defined='yes'/>
    <elf-symbol name='_ZlsR6wxFontRK9wxVariant' version='WXU_3.2' is-default-version='yes' type='func-type' binding='global-binding' visibility='default-visibility' is-defined='yes'/>
    <elf-symbol name='_ZlsR6wxSizeRK9wxVariant' version='WXU_3.2' is-default-version='yes' type='func-type' binding='global-binding' visibility='default-visibility' is-defined='yes'/>
    <elf-symbol name='_ZlsR7wxPointRK9wxVariant' version='WXU_3.2' is-default-version='yes' type='func-type' binding='global-binding' visibility='default-visibility' is-defined='yes'/>
    <elf-symbol name='_ZlsR9wxVariantRK10wxArrayInt' version='WXU_3.2' is-default-version='yes' type='func-type' binding='global-binding' visibility='default-visibility' is-defined='yes'/>
    <elf-symbol name='_ZlsR9wxVariantRK21wxColourPropertyValue' version='WXU_3.2' is-default-version='yes' type='func-type' binding='global-binding' visibility='default-visibility' is-defined='yes'/>
    <elf-symbol name='_ZlsR9wxVariantRK6wxFont' version='WXU_3.2' is-default-version='yes' type='func-type' binding='global-binding' visibility='default-visibility' is-defined='yes'/>
    <elf-symbol name='_ZlsR9wxVariantRK6wxSize' version='WXU_3.2' is-default-version='yes' type='func-type' binding='global-binding' visibility='default-visibility' is-defined='yes'/>
    <elf-symbol name='_ZlsR9wxVariantRK7wxPoint' version='WXU_3.2' is-default-version='yes' type='func-type' binding='global-binding' visibility='default-visibility' is-defined='yes'/>
  </elf-function-symbols>
  <elf-variable-symbols>
    <elf-symbol name='_ZN10wxPGEditor12ms_classInfoE' size='48' version='WXU_3.2' is-default-version='yes' type='object-type' binding='global-binding' visibility='default-visibility' is-defined='yes'/>
    <elf-symbol name='_ZN12wxPGProperty12ms_classInfoE' size='48' version='WXU_3.2' is-default-version='yes' type='object-type' binding='global-binding' visibility='default-visibility' is-defined='yes'/>
    <elf-symbol name='_ZN12wxPGProperty13sm_wxPG_LABELE' size='8' version='WXU_3.2' is-default-version='yes' type='object-type' binding='global-binding' visibility='default-visibility' is-defined='yes'/>
    <elf-symbol name='_ZN13wxDirProperty12ms_classInfoE' size='48' version='WXU_3.2' is-default-version='yes' type='object-type' binding='global-binding' visibility='default-visibility' is-defined='yes'/>
    <elf-symbol name='_ZN13wxIntProperty12ms_classInfoE' size='48' version='WXU_3.2' is-default-version='yes' type='object-type' binding='global-binding' visibility='default-visibility' is-defined='yes'/>
    <elf-symbol name='_ZN14wxBoolProperty12ms_classInfoE' size='48' version='WXU_3.2' is-default-version='yes' type='object-type' binding='global-binding' visibility='default-visibility' is-defined='yes'/>
    <elf-symbol name='_ZN14wxDateProperty12ms_classInfoE' size='48' version='WXU_3.2' is-default-version='yes' type='object-type' binding='global-binding' visibility='default-visibility' is-defined='yes'/>
    <elf-symbol name='_ZN14wxDateProperty20ms_defaultDateFormatE' size='48' version='WXU_3.2' is-default-version='yes' type='object-type' binding='global-binding' visibility='default-visibility' is-defined='yes'/>
    <elf-symbol name='_ZN14wxEnumProperty12ms_classInfoE' size='48' version='WXU_3.2' is-default-version='yes' type='object-type' binding='global-binding' visibility='default-visibility' is-defined='yes'/>
    <elf-symbol name='_ZN14wxFileProperty12ms_classInfoE' size='48' version='WXU_3.2' is-default-version='yes' type='object-type' binding='global-binding' visibility='default-visibility' is-defined='yes'/>
    <elf-symbol name='_ZN14wxFontProperty12ms_classInfoE' size='48' version='WXU_3.2' is-default-version='yes' type='object-type' binding='global-binding' visibility='default-visibility' is-defined='yes'/>
    <elf-symbol name='_ZN14wxPropertyGrid12ms_classInfoE' size='48' version='WXU_3.2' is-default-version='yes' type='object-type' binding='global-binding' visibility='default-visibility' is-defined='yes'/>
    <elf-symbol name='_ZN14wxPropertyGrid13sm_eventTableE' size='16' version='WXU_3.2' is-default-version='yes' type='object-type' binding='global-binding' visibility='default-visibility' is-defined='yes'/>
    <elf-symbol name='_ZN14wxPropertyGrid17sm_eventHashTableE' size='48' version='WXU_3.2' is-default-version='yes' type='object-type' binding='global-binding' visibility='default-visibility' is-defined='yes'/>
    <elf-symbol name='_ZN14wxPropertyGrid20sm_eventTableEntriesE' size='832' version='WXU_3.2' is-default-version='yes' type='object-type' binding='global-binding' visibility='default-visibility' is-defined='yes'/>
    <elf-symbol name='_ZN14wxUIntProperty12ms_classInfoE' size='48' version='WXU_3.2' is-default-version='yes' type='object-type' binding='global-binding' visibility='default-visibility' is-defined='yes'/>
    <elf-symbol name='_ZN15wxFlagsProperty12ms_classInfoE' size='48' version='WXU_3.2' is-default-version='yes' type='object-type' binding='global-binding' visibility='default-visibility' is-defined='yes'/>
    <elf-symbol name='_ZN15wxFloatProperty12ms_classInfoE' size='48' version='WXU_3.2' is-default-version='yes' type='object-type' binding='global-binding' visibility='default-visibility' is-defined='yes'/>
    <elf-symbol name='_ZN16wxColourProperty12ms_classInfoE' size='48' version='WXU_3.2' is-default-version='yes' type='object-type' binding='global-binding' visibility='default-visibility' is-defined='yes'/>
    <elf-symbol name='_ZN16wxCursorProperty12ms_classInfoE' size='48' version='WXU_3.2' is-default-version='yes' type='object-type' binding='global-binding' visibility='default-visibility' is-defined='yes'/>
    <elf-symbol name='_ZN16wxPGChoiceEditor12ms_classInfoE' size='48' version='WXU_3.2' is-default-version='yes' type='object-type' binding='global-binding' visibility='default-visibility' is-defined='yes'/>
    <elf-symbol name='_ZN16wxPGRootProperty12ms_classInfoE' size='48' version='WXU_3.2' is-default-version='yes' type='object-type' binding='global-binding' visibility='default-visibility' is-defined='yes'/>
    <elf-symbol name='_ZN16wxStringProperty12ms_classInfoE' size='48' version='WXU_3.2' is-default-version='yes' type='object-type' binding='global-binding' visibility='default-visibility' is-defined='yes'/>
    <elf-symbol name='_ZN17wxNumericProperty12ms_classInfoE' size='48' version='WXU_3.2' is-default-version='yes' type='object-type' binding='global-binding' visibility='default-visibility' is-defined='yes'/>
    <elf-symbol name='_ZN18wxEditEnumProperty12ms_classInfoE' size='48' version='WXU_3.2' is-default-version='yes' type='object-type' binding='global-binding' visibility='default-visibility' is-defined='yes'/>
    <elf-symbol name='_ZN18wxPGCheckBoxEditor12ms_classInfoE' size='48' version='WXU_3.2' is-default-version='yes' type='object-type' binding='global-binding' visibility='default-visibility' is-defined='yes'/>
    <elf-symbol name='_ZN18wxPGComboBoxEditor12ms_classInfoE' size='48' version='WXU_3.2' is-default-version='yes' type='object-type' binding='global-binding' visibility='default-visibility' is-defined='yes'/>
    <elf-symbol name='_ZN18wxPGSpinCtrlEditor12ms_classInfoE' size='48' version='WXU_3.2' is-default-version='yes' type='object-type' binding='global-binding' visibility='default-visibility' is-defined='yes'/>
    <elf-symbol name='_ZN18wxPGTextCtrlEditor12ms_classInfoE' size='48' version='WXU_3.2' is-default-version='yes' type='object-type' binding='global-binding' visibility='default-visibility' is-defined='yes'/>
    <elf-symbol name='_ZN18wxPropertyCategory12ms_classInfoE' size='48' version='WXU_3.2' is-default-version='yes' type='object-type' binding='global-binding' visibility='default-visibility' is-defined='yes'/>
    <elf-symbol name='_ZN18wxPropertyGridPage12ms_classInfoE' size='48' version='WXU_3.2' is-default-version='yes' type='object-type' binding='global-binding' visibility='default-visibility' is-defined='yes'/>
    <elf-symbol name='_ZN18wxPropertyGridPage13sm_eventTableE' size='16' version='WXU_3.2' is-default-version='yes' type='object-type' binding='global-binding' visibility='default-visibility' is-defined='yes'/>
    <elf-symbol name='_ZN18wxPropertyGridPage17sm_eventHashTableE' size='48' version='WXU_3.2' is-default-version='yes' type='object-type' binding='global-binding' visibility='default-visibility' is-defined='yes'/>
    <elf-symbol name='_ZN18wxPropertyGridPage20sm_eventTableEntriesE' size='32' version='WXU_3.2' is-default-version='yes' type='object-type' binding='global-binding' visibility='default-visibility' is-defined='yes'/>
    <elf-symbol name='_ZN19wxImageFileProperty12ms_classInfoE' size='48' version='WXU_3.2' is-default-version='yes' type='object-type' binding='global-binding' visibility='default-visibility' is-defined='yes'/>
    <elf-symbol name='_ZN19wxPropertyGridEvent12ms_classInfoE' size='48' version='WXU_3.2' is-default-version='yes' type='object-type' binding='global-binding' visibility='default-visibility' is-defined='yes'/>
    <elf-symbol name='_ZN20wxLongStringProperty12ms_classInfoE' size='48' version='WXU_3.2' is-default-version='yes' type='object-type' binding='global-binding' visibility='default-visibility' is-defined='yes'/>
    <elf-symbol name='_ZN21wxArrayStringProperty12ms_classInfoE' size='48' version='WXU_3.2' is-default-version='yes' type='object-type' binding='global-binding' visibility='default-visibility' is-defined='yes'/>
    <elf-symbol name='_ZN21wxColourPropertyValue12ms_classInfoE' size='48' version='WXU_3.2' is-default-version='yes' type='object-type' binding='global-binding' visibility='default-visibility' is-defined='yes'/>
    <elf-symbol name='_ZN21wxMultiChoiceProperty12ms_classInfoE' size='48' version='WXU_3.2' is-default-version='yes' type='object-type' binding='global-binding' visibility='default-visibility' is-defined='yes'/>
    <elf-symbol name='_ZN21wxPGArrayEditorDialog12ms_classInfoE' size='48' version='WXU_3.2' is-default-version='yes' type='object-type' binding='global-binding' visibility='default-visibility' is-defined='yes'/>
    <elf-symbol name='_ZN21wxPGArrayEditorDialog13sm_eventTableE' size='16' version='WXU_3.2' is-default-version='yes' type='object-type' binding='global-binding' visibility='default-visibility' is-defined='yes'/>
    <elf-symbol name='_ZN21wxPGArrayEditorDialog17sm_eventHashTableE' size='48' version='WXU_3.2' is-default-version='yes' type='object-type' binding='global-binding' visibility='default-visibility' is-defined='yes'/>
    <elf-symbol name='_ZN21wxPGArrayEditorDialog20sm_eventTableEntriesE' size='64' version='WXU_3.2' is-default-version='yes' type='object-type' binding='global-binding' visibility='default-visibility' is-defined='yes'/>
    <elf-symbol name='_ZN21wxPropertyGridManager12ms_classInfoE' size='48' version='WXU_3.2' is-default-version='yes' type='object-type' binding='global-binding' visibility='default-visibility' is-defined='yes'/>
    <elf-symbol name='_ZN21wxPropertyGridManager13sm_eventTableE' size='16' version='WXU_3.2' is-default-version='yes' type='object-type' binding='global-binding' visibility='default-visibility' is-defined='yes'/>
    <elf-symbol name='_ZN21wxPropertyGridManager17sm_eventHashTableE' size='48' version='WXU_3.2' is-default-version='yes' type='object-type' binding='global-binding' visibility='default-visibility' is-defined='yes'/>
    <elf-symbol name='_ZN21wxPropertyGridManager20sm_eventTableEntriesE' size='224' version='WXU_3.2' is-default-version='yes' type='object-type' binding='global-binding' visibility='default-visibility' is-defined='yes'/>
    <elf-symbol name='_ZN22wxEditorDialogProperty12ms_classInfoE' size='48' version='WXU_3.2' is-default-version='yes' type='object-type' binding='global-binding' visibility='default-visibility' is-defined='yes'/>
    <elf-symbol name='_ZN22wxSystemColourProperty12ms_classInfoE' size='48' version='WXU_3.2' is-default-version='yes' type='object-type' binding='global-binding' visibility='default-visibility' is-defined='yes'/>
    <elf-symbol name='_ZN23wxPGEditorDialogAdapter12ms_classInfoE' size='48' version='WXU_3.2' is-default-version='yes' type='object-type' binding='global-binding' visibility='default-visibility' is-defined='yes'/>
    <elf-symbol name='_ZN25wxPGChoiceAndButtonEditor12ms_classInfoE' size='48' version='WXU_3.2' is-default-version='yes' type='object-type' binding='global-binding' visibility='default-visibility' is-defined='yes'/>
    <elf-symbol name='_ZN27wxPGArrayStringEditorDialog12ms_classInfoE' size='48' version='WXU_3.2' is-default-version='yes' type='object-type' binding='global-binding' visibility='default-visibility' is-defined='yes'/>
    <elf-symbol name='_ZN27wxPGArrayStringEditorDialog13sm_eventTableE' size='16' version='WXU_3.2' is-default-version='yes' type='object-type' binding='global-binding' visibility='default-visibility' is-defined='yes'/>
    <elf-symbol name='_ZN27wxPGArrayStringEditorDialog17sm_eventHashTableE' size='48' version='WXU_3.2' is-default-version='yes' type='object-type' binding='global-binding' visibility='default-visibility' is-defined='yes'/>
    <elf-symbol name='_ZN27wxPGArrayStringEditorDialog20sm_eventTableEntriesE' size='32' version='WXU_3.2' is-default-version='yes' type='object-type' binding='global-binding' visibility='default-visibility' is-defined='yes'/>
    <elf-symbol name='_ZN27wxPGTextCtrlAndButtonEditor12ms_classInfoE' size='48' version='WXU_3.2' is-default-version='yes' type='object-type' binding='global-binding' visibility='default-visibility' is-defined='yes'/>
    <elf-symbol name='_ZTI10wxPGEditor' size='24' version='WXU_3.2' is-default-version='yes' type='object-type' binding='weak-binding' visibility='default-visibility' is-defined='yes'/>
    <elf-symbol name='_ZTI11wxBrushBase' size='24' version='WXU_3.2' is-default-version='yes' type='object-type' binding='weak-binding' visibility='default-visibility' is-defined='yes'/>
    <elf-symbol name='_ZTI12wxCursorBase' size='24' version='WXU_3.2' is-default-version='yes' type='object-type' binding='weak-binding' visibility='default-visibility' is-defined='yes'/>
    <elf-symbol name='_ZTI12wxPGCellData' size='24' version='WXU_3.2' is-default-version='yes' type='object-type' binding='weak-binding' visibility='default-visibility' is-defined='yes'/>
    <elf-symbol name='_ZTI12wxPGProperty' size='24' version='WXU_3.2' is-default-version='yes' type='object-type' binding='weak-binding' visibility='default-visibility' is-defined='yes'/>
    <elf-symbol name='_ZTI12wxRefCounter' size='16' version='WXU_3.2' is-default-version='yes' type='object-type' binding='weak-binding' visibility='default-visibility' is-defined='yes'/>
    <elf-symbol name='_ZTI12wxWindowList' size='24' version='WXU_3.2' is-default-version='yes' type='object-type' binding='weak-binding' visibility='default-visibility' is-defined='yes'/>
    <elf-symbol name='_ZTI13wxDirProperty' size='24' version='WXU_3.2' is-default-version='yes' type='object-type' binding='weak-binding' visibility='default-visibility' is-defined='yes'/>
    <elf-symbol name='_ZTI13wxIntProperty' size='24' version='WXU_3.2' is-default-version='yes' type='object-type' binding='weak-binding' visibility='default-visibility' is-defined='yes'/>
    <elf-symbol name='_ZTI13wxVariantData' size='24' version='WXU_3.2' is-default-version='yes' type='object-type' binding='weak-binding' visibility='default-visibility' is-defined='yes'/>
    <elf-symbol name='_ZTI13wxVariantList' size='24' version='WXU_3.2' is-default-version='yes' type='object-type' binding='weak-binding' visibility='default-visibility' is-defined='yes'/>
    <elf-symbol name='_ZTI14wxAnyValueType' size='16' version='WXU_3.2' is-default-version='yes' type='object-type' binding='weak-binding' visibility='default-visibility' is-defined='yes'/>
    <elf-symbol name='_ZTI14wxBoolProperty' size='24' version='WXU_3.2' is-default-version='yes' type='object-type' binding='weak-binding' visibility='default-visibility' is-defined='yes'/>
    <elf-symbol name='_ZTI14wxDateProperty' size='24' version='WXU_3.2' is-default-version='yes' type='object-type' binding='weak-binding' visibility='default-visibility' is-defined='yes'/>
    <elf-symbol name='_ZTI14wxEnumProperty' size='24' version='WXU_3.2' is-default-version='yes' type='object-type' binding='weak-binding' visibility='default-visibility' is-defined='yes'/>
    <elf-symbol name='_ZTI14wxFileProperty' size='24' version='WXU_3.2' is-default-version='yes' type='object-type' binding='weak-binding' visibility='default-visibility' is-defined='yes'/>
    <elf-symbol name='_ZTI14wxFontProperty' size='24' version='WXU_3.2' is-default-version='yes' type='object-type' binding='weak-binding' visibility='default-visibility' is-defined='yes'/>
    <elf-symbol name='_ZTI14wxHeaderColumn' size='16' version='WXU_3.2' is-default-version='yes' type='object-type' binding='weak-binding' visibility='default-visibility' is-defined='yes'/>
    <elf-symbol name='_ZTI14wxPropertyGrid' size='56' version='WXU_3.2' is-default-version='yes' type='object-type' binding='weak-binding' visibility='default-visibility' is-defined='yes'/>
    <elf-symbol name='_ZTI14wxUIntProperty' size='24' version='WXU_3.2' is-default-version='yes' type='object-type' binding='weak-binding' visibility='default-visibility' is-defined='yes'/>
    <elf-symbol name='_ZTI15wxAnyButtonBase' size='24' version='WXU_3.2' is-default-version='yes' type='object-type' binding='weak-binding' visibility='default-visibility' is-defined='yes'/>
    <elf-symbol name='_ZTI15wxDirDialogBase' size='24' version='WXU_3.2' is-default-version='yes' type='object-type' binding='weak-binding' visibility='default-visibility' is-defined='yes'/>
    <elf-symbol name='_ZTI15wxFlagsProperty' size='24' version='WXU_3.2' is-default-version='yes' type='object-type' binding='weak-binding' visibility='default-visibility' is-defined='yes'/>
    <elf-symbol name='_ZTI15wxFloatProperty' size='24' version='WXU_3.2' is-default-version='yes' type='object-type' binding='weak-binding' visibility='default-visibility' is-defined='yes'/>
    <elf-symbol name='_ZTI15wxPGChoiceEntry' size='24' version='WXU_3.2' is-default-version='yes' type='object-type' binding='weak-binding' visibility='default-visibility' is-defined='yes'/>
    <elf-symbol name='_ZTI15wxPGChoicesData' size='24' version='WXU_3.2' is-default-version='yes' type='object-type' binding='weak-binding' visibility='default-visibility' is-defined='yes'/>
    <elf-symbol name='_ZTI15wxPGCommonValue' size='16' version='WXU_3.2' is-default-version='yes' type='object-type' binding='weak-binding' visibility='default-visibility' is-defined='yes'/>
    <elf-symbol name='_ZTI15wxPGMultiButton' size='24' version='WXU_3.2' is-default-version='yes' type='object-type' binding='weak-binding' visibility='default-visibility' is-defined='yes'/>
    <elf-symbol name='_ZTI15wxSizerItemList' size='24' version='WXU_3.2' is-default-version='yes' type='object-type' binding='weak-binding' visibility='default-visibility' is-defined='yes'/>
    <elf-symbol name='_ZTI16wxColourProperty' size='24' version='WXU_3.2' is-default-version='yes' type='object-type' binding='weak-binding' visibility='default-visibility' is-defined='yes'/>
    <elf-symbol name='_ZTI16wxCursorProperty' size='24' version='WXU_3.2' is-default-version='yes' type='object-type' binding='weak-binding' visibility='default-visibility' is-defined='yes'/>
    <elf-symbol name='_ZTI16wxFontDialogBase' size='24' version='WXU_3.2' is-default-version='yes' type='object-type' binding='weak-binding' visibility='default-visibility' is-defined='yes'/>
    <elf-symbol name='_ZTI16wxPGCellRenderer' size='24' version='WXU_3.2' is-default-version='yes' type='object-type' binding='weak-binding' visibility='default-visibility' is-defined='yes'/>
    <elf-symbol name='_ZTI16wxPGChoiceEditor' size='24' version='WXU_3.2' is-default-version='yes' type='object-type' binding='weak-binding' visibility='default-visibility' is-defined='yes'/>
    <elf-symbol name='_ZTI16wxPGRootProperty' size='24' version='WXU_3.2' is-default-version='yes' type='object-type' binding='weak-binding' visibility='default-visibility' is-defined='yes'/>
    <elf-symbol name='_ZTI16wxStringProperty' size='24' version='WXU_3.2' is-default-version='yes' type='object-type' binding='weak-binding' visibility='default-visibility' is-defined='yes'/>
    <elf-symbol name='_ZTI17wxNumericProperty' size='24' version='WXU_3.2' is-default-version='yes' type='object-type' binding='weak-binding' visibility='default-visibility' is-defined='yes'/>
    <elf-symbol name='_ZTI17wxPGDialogAdapter' size='24' version='WXU_3.2' is-default-version='yes' type='object-type' binding='weak-binding' visibility='default-visibility' is-defined='yes'/>
    <elf-symbol name='_ZTI17wxPGVIteratorBase' size='24' version='WXU_3.2' is-default-version='yes' type='object-type' binding='weak-binding' visibility='default-visibility' is-defined='yes'/>
    <elf-symbol name='_ZTI17wxStringTokenizer' size='24' version='WXU_3.2' is-default-version='yes' type='object-type' binding='weak-binding' visibility='default-visibility' is-defined='yes'/>
    <elf-symbol name='_ZTI18wxBitmapButtonBase' size='24' version='WXU_3.2' is-default-version='yes' type='object-type' binding='weak-binding' visibility='default-visibility' is-defined='yes'/>
    <elf-symbol name='_ZTI18wxEditEnumProperty' size='24' version='WXU_3.2' is-default-version='yes' type='object-type' binding='weak-binding' visibility='default-visibility' is-defined='yes'/>
    <elf-symbol name='_ZTI18wxPGCheckBoxEditor' size='24' version='WXU_3.2' is-default-version='yes' type='object-type' binding='weak-binding' visibility='default-visibility' is-defined='yes'/>
    <elf-symbol name='_ZTI18wxPGComboBoxEditor' size='24' version='WXU_3.2' is-default-version='yes' type='object-type' binding='weak-binding' visibility='default-visibility' is-defined='yes'/>
    <elf-symbol name='_ZTI18wxPGSpinCtrlEditor' size='24' version='WXU_3.2' is-default-version='yes' type='object-type' binding='weak-binding' visibility='default-visibility' is-defined='yes'/>
    <elf-symbol name='_ZTI18wxPGTextCtrlEditor' size='24' version='WXU_3.2' is-default-version='yes' type='object-type' binding='weak-binding' visibility='default-visibility' is-defined='yes'/>
    <elf-symbol name='_ZTI18wxPropertyCategory' size='24' version='WXU_3.2' is-default-version='yes' type='object-type' binding='weak-binding' visibility='default-visibility' is-defined='yes'/>
    <elf-symbol name='_ZTI18wxPropertyGridPage' size='72' version='WXU_3.2' is-default-version='yes' type='object-type' binding='weak-binding' visibility='default-visibility' is-defined='yes'/>
    <elf-symbol name='_ZTI18wxScrolledT_Helper' size='16' version='WXU_3.2' is-default-version='yes' type='object-type' binding='weak-binding' visibility='default-visibility' is-defined='yes'/>
    <elf-symbol name='_ZTI19wxImageFileProperty' size='24' version='WXU_3.2' is-default-version='yes' type='object-type' binding='weak-binding' visibility='default-visibility' is-defined='yes'/>
    <elf-symbol name='_ZTI19wxPGDefaultRenderer' size='24' version='WXU_3.2' is-default-version='yes' type='object-type' binding='weak-binding' visibility='default-visibility' is-defined='yes'/>
    <elf-symbol name='_ZTI19wxPropertyGridEvent' size='24' version='WXU_3.2' is-default-version='yes' type='object-type' binding='weak-binding' visibility='default-visibility' is-defined='yes'/>
    <elf-symbol name='_ZTI20wxLongStringProperty' size='24' version='WXU_3.2' is-default-version='yes' type='object-type' binding='weak-binding' visibility='default-visibility' is-defined='yes'/>
    <elf-symbol name='_ZTI21wxArrayStringProperty' size='24' version='WXU_3.2' is-default-version='yes' type='object-type' binding='weak-binding' visibility='default-visibility' is-defined='yes'/>
    <elf-symbol name='_ZTI21wxAutoBufferedPaintDC' size='24' version='WXU_3.2' is-default-version='yes' type='object-type' binding='weak-binding' visibility='default-visibility' is-defined='yes'/>
    <elf-symbol name='_ZTI21wxColourPropertyValue' size='24' version='WXU_3.2' is-default-version='yes' type='object-type' binding='weak-binding' visibility='default-visibility' is-defined='yes'/>
    <elf-symbol name='_ZTI21wxMultiChoiceProperty' size='24' version='WXU_3.2' is-default-version='yes' type='object-type' binding='weak-binding' visibility='default-visibility' is-defined='yes'/>
    <elf-symbol name='_ZTI21wxPGArrayEditorDialog' size='24' version='WXU_3.2' is-default-version='yes' type='object-type' binding='weak-binding' visibility='default-visibility' is-defined='yes'/>
    <elf-symbol name='_ZTI21wxPropertyGridManager' size='56' version='WXU_3.2' is-default-version='yes' type='object-type' binding='weak-binding' visibility='default-visibility' is-defined='yes'/>
    <elf-symbol name='_ZTI22wxEditorDialogProperty' size='24' version='WXU_3.2' is-default-version='yes' type='object-type' binding='weak-binding' visibility='default-visibility' is-defined='yes'/>
    <elf-symbol name='_ZTI22wxSettableHeaderColumn' size='24' version='WXU_3.2' is-default-version='yes' type='object-type' binding='weak-binding' visibility='default-visibility' is-defined='yes'/>
    <elf-symbol name='_ZTI22wxSystemColourProperty' size='24' version='WXU_3.2' is-default-version='yes' type='object-type' binding='weak-binding' visibility='default-visibility' is-defined='yes'/>
    <elf-symbol name='_ZTI23wxPGEditorDialogAdapter' size='24' version='WXU_3.2' is-default-version='yes' type='object-type' binding='weak-binding' visibility='default-visibility' is-defined='yes'/>
    <elf-symbol name='_ZTI23wxPropertyGridInterface' size='16' version='WXU_3.2' is-default-version='yes' type='object-type' binding='weak-binding' visibility='default-visibility' is-defined='yes'/>
    <elf-symbol name='_ZTI23wxPropertyGridPageState' size='16' version='WXU_3.2' is-default-version='yes' type='object-type' binding='weak-binding' visibility='default-visibility' is-defined='yes'/>
    <elf-symbol name='_ZTI23wxPropertyGridPopulator' size='16' version='WXU_3.2' is-default-version='yes' type='object-type' binding='weak-binding' visibility='default-visibility' is-defined='yes'/>
    <elf-symbol name='_ZTI24wxDateTimePickerCtrlBase' size='24' version='WXU_3.2' is-default-version='yes' type='object-type' binding='weak-binding' visibility='default-visibility' is-defined='yes'/>
    <elf-symbol name='_ZTI25wxPGChoiceAndButtonEditor' size='24' version='WXU_3.2' is-default-version='yes' type='object-type' binding='weak-binding' visibility='default-visibility' is-defined='yes'/>
    <elf-symbol name='_ZTI26wxDatePickerCtrlCommonBaseI24wxDateTimePickerCtrlBaseE' size='24' version='WXU_3.2' is-default-version='yes' type='object-type' binding='weak-binding' visibility='default-visibility' is-defined='yes'/>
    <elf-symbol name='_ZTI26wxNumericPropertyValidator' size='24' version='WXU_3.2' is-default-version='yes' type='object-type' binding='weak-binding' visibility='default-visibility' is-defined='yes'/>
    <elf-symbol name='_ZTI27wxPGArrayStringEditorDialog' size='24' version='WXU_3.2' is-default-version='yes' type='object-type' binding='weak-binding' visibility='default-visibility' is-defined='yes'/>
    <elf-symbol name='_ZTI27wxPGTextCtrlAndButtonEditor' size='24' version='WXU_3.2' is-default-version='yes' type='object-type' binding='weak-binding' visibility='default-visibility' is-defined='yes'/>
    <elf-symbol name='_ZTI8wxPGCell' size='24' version='WXU_3.2' is-default-version='yes' type='object-type' binding='weak-binding' visibility='default-visibility' is-defined='yes'/>
    <elf-symbol name='_ZTS10wxPGEditor' size='13' version='WXU_3.2' is-default-version='yes' type='object-type' binding='weak-binding' visibility='default-visibility' is-defined='yes'/>
    <elf-symbol name='_ZTS11wxBrushBase' size='14' version='WXU_3.2' is-default-version='yes' type='object-type' binding='weak-binding' visibility='default-visibility' is-defined='yes'/>
    <elf-symbol name='_ZTS12wxCursorBase' size='15' version='WXU_3.2' is-default-version='yes' type='object-type' binding='weak-binding' visibility='default-visibility' is-defined='yes'/>
    <elf-symbol name='_ZTS12wxPGCellData' size='15' version='WXU_3.2' is-default-version='yes' type='object-type' binding='weak-binding' visibility='default-visibility' is-defined='yes'/>
    <elf-symbol name='_ZTS12wxPGProperty' size='15' version='WXU_3.2' is-default-version='yes' type='object-type' binding='weak-binding' visibility='default-visibility' is-defined='yes'/>
    <elf-symbol name='_ZTS12wxRefCounter' size='15' version='WXU_3.2' is-default-version='yes' type='object-type' binding='weak-binding' visibility='default-visibility' is-defined='yes'/>
    <elf-symbol name='_ZTS12wxWindowList' size='15' version='WXU_3.2' is-default-version='yes' type='object-type' binding='weak-binding' visibility='default-visibility' is-defined='yes'/>
    <elf-symbol name='_ZTS13wxDirProperty' size='16' version='WXU_3.2' is-default-version='yes' type='object-type' binding='weak-binding' visibility='default-visibility' is-defined='yes'/>
    <elf-symbol name='_ZTS13wxIntProperty' size='16' version='WXU_3.2' is-default-version='yes' type='object-type' binding='weak-binding' visibility='default-visibility' is-defined='yes'/>
    <elf-symbol name='_ZTS13wxVariantData' size='16' version='WXU_3.2' is-default-version='yes' type='object-type' binding='weak-binding' visibility='default-visibility' is-defined='yes'/>
    <elf-symbol name='_ZTS13wxVariantList' size='16' version='WXU_3.2' is-default-version='yes' type='object-type' binding='weak-binding' visibility='default-visibility' is-defined='yes'/>
    <elf-symbol name='_ZTS14wxAnyValueType' size='17' version='WXU_3.2' is-default-version='yes' type='object-type' binding='weak-binding' visibility='default-visibility' is-defined='yes'/>
    <elf-symbol name='_ZTS14wxBoolProperty' size='17' version='WXU_3.2' is-default-version='yes' type='object-type' binding='weak-binding' visibility='default-visibility' is-defined='yes'/>
    <elf-symbol name='_ZTS14wxDateProperty' size='17' version='WXU_3.2' is-default-version='yes' type='object-type' binding='weak-binding' visibility='default-visibility' is-defined='yes'/>
    <elf-symbol name='_ZTS14wxEnumProperty' size='17' version='WXU_3.2' is-default-version='yes' type='object-type' binding='weak-binding' visibility='default-visibility' is-defined='yes'/>
    <elf-symbol name='_ZTS14wxFileProperty' size='17' version='WXU_3.2' is-default-version='yes' type='object-type' binding='weak-binding' visibility='default-visibility' is-defined='yes'/>
    <elf-symbol name='_ZTS14wxFontProperty' size='17' version='WXU_3.2' is-default-version='yes' type='object-type' binding='weak-binding' visibility='default-visibility' is-defined='yes'/>
    <elf-symbol name='_ZTS14wxHeaderColumn' size='17' version='WXU_3.2' is-default-version='yes' type='object-type' binding='weak-binding' visibility='default-visibility' is-defined='yes'/>
    <elf-symbol name='_ZTS14wxPropertyGrid' size='17' version='WXU_3.2' is-default-version='yes' type='object-type' binding='weak-binding' visibility='default-visibility' is-defined='yes'/>
    <elf-symbol name='_ZTS14wxUIntProperty' size='17' version='WXU_3.2' is-default-version='yes' type='object-type' binding='weak-binding' visibility='default-visibility' is-defined='yes'/>
    <elf-symbol name='_ZTS15wxAnyButtonBase' size='18' version='WXU_3.2' is-default-version='yes' type='object-type' binding='weak-binding' visibility='default-visibility' is-defined='yes'/>
    <elf-symbol name='_ZTS15wxDirDialogBase' size='18' version='WXU_3.2' is-default-version='yes' type='object-type' binding='weak-binding' visibility='default-visibility' is-defined='yes'/>
    <elf-symbol name='_ZTS15wxFlagsProperty' size='18' version='WXU_3.2' is-default-version='yes' type='object-type' binding='weak-binding' visibility='default-visibility' is-defined='yes'/>
    <elf-symbol name='_ZTS15wxFloatProperty' size='18' version='WXU_3.2' is-default-version='yes' type='object-type' binding='weak-binding' visibility='default-visibility' is-defined='yes'/>
    <elf-symbol name='_ZTS15wxPGChoiceEntry' size='18' version='WXU_3.2' is-default-version='yes' type='object-type' binding='weak-binding' visibility='default-visibility' is-defined='yes'/>
    <elf-symbol name='_ZTS15wxPGChoicesData' size='18' version='WXU_3.2' is-default-version='yes' type='object-type' binding='weak-binding' visibility='default-visibility' is-defined='yes'/>
    <elf-symbol name='_ZTS15wxPGCommonValue' size='18' version='WXU_3.2' is-default-version='yes' type='object-type' binding='weak-binding' visibility='default-visibility' is-defined='yes'/>
    <elf-symbol name='_ZTS15wxPGMultiButton' size='18' version='WXU_3.2' is-default-version='yes' type='object-type' binding='weak-binding' visibility='default-visibility' is-defined='yes'/>
    <elf-symbol name='_ZTS15wxSizerItemList' size='18' version='WXU_3.2' is-default-version='yes' type='object-type' binding='weak-binding' visibility='default-visibility' is-defined='yes'/>
    <elf-symbol name='_ZTS16wxColourProperty' size='19' version='WXU_3.2' is-default-version='yes' type='object-type' binding='weak-binding' visibility='default-visibility' is-defined='yes'/>
    <elf-symbol name='_ZTS16wxCursorProperty' size='19' version='WXU_3.2' is-default-version='yes' type='object-type' binding='weak-binding' visibility='default-visibility' is-defined='yes'/>
    <elf-symbol name='_ZTS16wxFontDialogBase' size='19' version='WXU_3.2' is-default-version='yes' type='object-type' binding='weak-binding' visibility='default-visibility' is-defined='yes'/>
    <elf-symbol name='_ZTS16wxPGCellRenderer' size='19' version='WXU_3.2' is-default-version='yes' type='object-type' binding='weak-binding' visibility='default-visibility' is-defined='yes'/>
    <elf-symbol name='_ZTS16wxPGChoiceEditor' size='19' version='WXU_3.2' is-default-version='yes' type='object-type' binding='weak-binding' visibility='default-visibility' is-defined='yes'/>
    <elf-symbol name='_ZTS16wxPGRootProperty' size='19' version='WXU_3.2' is-default-version='yes' type='object-type' binding='weak-binding' visibility='default-visibility' is-defined='yes'/>
    <elf-symbol name='_ZTS16wxStringProperty' size='19' version='WXU_3.2' is-default-version='yes' type='object-type' binding='weak-binding' visibility='default-visibility' is-defined='yes'/>
    <elf-symbol name='_ZTS17wxNumericProperty' size='20' version='WXU_3.2' is-default-version='yes' type='object-type' binding='weak-binding' visibility='default-visibility' is-defined='yes'/>
    <elf-symbol name='_ZTS17wxPGDialogAdapter' size='20' version='WXU_3.2' is-default-version='yes' type='object-type' binding='weak-binding' visibility='default-visibility' is-defined='yes'/>
    <elf-symbol name='_ZTS17wxPGVIteratorBase' size='20' version='WXU_3.2' is-default-version='yes' type='object-type' binding='weak-binding' visibility='default-visibility' is-defined='yes'/>
    <elf-symbol name='_ZTS17wxStringTokenizer' size='20' version='WXU_3.2' is-default-version='yes' type='object-type' binding='weak-binding' visibility='default-visibility' is-defined='yes'/>
    <elf-symbol name='_ZTS18wxBitmapButtonBase' size='21' version='WXU_3.2' is-default-version='yes' type='object-type' binding='weak-binding' visibility='default-visibility' is-defined='yes'/>
    <elf-symbol name='_ZTS18wxEditEnumProperty' size='21' version='WXU_3.2' is-default-version='yes' type='object-type' binding='weak-binding' visibility='default-visibility' is-defined='yes'/>
    <elf-symbol name='_ZTS18wxPGCheckBoxEditor' size='21' version='WXU_3.2' is-default-version='yes' type='object-type' binding='weak-binding' visibility='default-visibility' is-defined='yes'/>
    <elf-symbol name='_ZTS18wxPGComboBoxEditor' size='21' version='WXU_3.2' is-default-version='yes' type='object-type' binding='weak-binding' visibility='default-visibility' is-defined='yes'/>
    <elf-symbol name='_ZTS18wxPGSpinCtrlEditor' size='21' version='WXU_3.2' is-default-version='yes' type='object-type' binding='weak-binding' visibility='default-visibility' is-defined='yes'/>
    <elf-symbol name='_ZTS18wxPGTextCtrlEditor' size='21' version='WXU_3.2' is-default-version='yes' type='object-type' binding='weak-binding' visibility='default-visibility' is-defined='yes'/>
    <elf-symbol name='_ZTS18wxPropertyCategory' size='21' version='WXU_3.2' is-default-version='yes' type='object-type' binding='weak-binding' visibility='default-visibility' is-defined='yes'/>
    <elf-symbol name='_ZTS18wxPropertyGridPage' size='21' version='WXU_3.2' is-default-version='yes' type='object-type' binding='weak-binding' visibility='default-visibility' is-defined='yes'/>
    <elf-symbol name='_ZTS18wxScrolledT_Helper' size='21' version='WXU_3.2' is-default-version='yes' type='object-type' binding='weak-binding' visibility='default-visibility' is-defined='yes'/>
    <elf-symbol name='_ZTS19wxImageFileProperty' size='22' version='WXU_3.2' is-default-version='yes' type='object-type' binding='weak-binding' visibility='default-visibility' is-defined='yes'/>
    <elf-symbol name='_ZTS19wxPGDefaultRenderer' size='22' version='WXU_3.2' is-default-version='yes' type='object-type' binding='weak-binding' visibility='default-visibility' is-defined='yes'/>
    <elf-symbol name='_ZTS19wxPropertyGridEvent' size='22' version='WXU_3.2' is-default-version='yes' type='object-type' binding='weak-binding' visibility='default-visibility' is-defined='yes'/>
    <elf-symbol name='_ZTS20wxLongStringProperty' size='23' version='WXU_3.2' is-default-version='yes' type='object-type' binding='weak-binding' visibility='default-visibility' is-defined='yes'/>
    <elf-symbol name='_ZTS21wxArrayStringProperty' size='24' version='WXU_3.2' is-default-version='yes' type='object-type' binding='weak-binding' visibility='default-visibility' is-defined='yes'/>
    <elf-symbol name='_ZTS21wxAutoBufferedPaintDC' size='24' version='WXU_3.2' is-default-version='yes' type='object-type' binding='weak-binding' visibility='default-visibility' is-defined='yes'/>
    <elf-symbol name='_ZTS21wxColourPropertyValue' size='24' version='WXU_3.2' is-default-version='yes' type='object-type' binding='weak-binding' visibility='default-visibility' is-defined='yes'/>
    <elf-symbol name='_ZTS21wxMultiChoiceProperty' size='24' version='WXU_3.2' is-default-version='yes' type='object-type' binding='weak-binding' visibility='default-visibility' is-defined='yes'/>
    <elf-symbol name='_ZTS21wxPGArrayEditorDialog' size='24' version='WXU_3.2' is-default-version='yes' type='object-type' binding='weak-binding' visibility='default-visibility' is-defined='yes'/>
    <elf-symbol name='_ZTS21wxPropertyGridManager' size='24' version='WXU_3.2' is-default-version='yes' type='object-type' binding='weak-binding' visibility='default-visibility' is-defined='yes'/>
    <elf-symbol name='_ZTS22wxEditorDialogProperty' size='25' version='WXU_3.2' is-default-version='yes' type='object-type' binding='weak-binding' visibility='default-visibility' is-defined='yes'/>
    <elf-symbol name='_ZTS22wxSettableHeaderColumn' size='25' version='WXU_3.2' is-default-version='yes' type='object-type' binding='weak-binding' visibility='default-visibility' is-defined='yes'/>
    <elf-symbol name='_ZTS22wxSystemColourProperty' size='25' version='WXU_3.2' is-default-version='yes' type='object-type' binding='weak-binding' visibility='default-visibility' is-defined='yes'/>
    <elf-symbol name='_ZTS23wxPGEditorDialogAdapter' size='26' version='WXU_3.2' is-default-version='yes' type='object-type' binding='weak-binding' visibility='default-visibility' is-defined='yes'/>
    <elf-symbol name='_ZTS23wxPropertyGridInterface' size='26' version='WXU_3.2' is-default-version='yes' type='object-type' binding='weak-binding' visibility='default-visibility' is-defined='yes'/>
    <elf-symbol name='_ZTS23wxPropertyGridPageState' size='26' version='WXU_3.2' is-default-version='yes' type='object-type' binding='weak-binding' visibility='default-visibility' is-defined='yes'/>
    <elf-symbol name='_ZTS23wxPropertyGridPopulator' size='26' version='WXU_3.2' is-default-version='yes' type='object-type' binding='weak-binding' visibility='default-visibility' is-defined='yes'/>
    <elf-symbol name='_ZTS24wxDateTimePickerCtrlBase' size='27' version='WXU_3.2' is-default-version='yes' type='object-type' binding='weak-binding' visibility='default-visibility' is-defined='yes'/>
    <elf-symbol name='_ZTS25wxPGChoiceAndButtonEditor' size='28' version='WXU_3.2' is-default-version='yes' type='object-type' binding='weak-binding' visibility='default-visibility' is-defined='yes'/>
    <elf-symbol name='_ZTS26wxDatePickerCtrlCommonBaseI24wxDateTimePickerCtrlBaseE' size='57' version='WXU_3.2' is-default-version='yes' type='object-type' binding='weak-binding' visibility='default-visibility' is-defined='yes'/>
    <elf-symbol name='_ZTS26wxNumericPropertyValidator' size='29' version='WXU_3.2' is-default-version='yes' type='object-type' binding='weak-binding' visibility='default-visibility' is-defined='yes'/>
    <elf-symbol name='_ZTS27wxPGArrayStringEditorDialog' size='30' version='WXU_3.2' is-default-version='yes' type='object-type' binding='weak-binding' visibility='default-visibility' is-defined='yes'/>
    <elf-symbol name='_ZTS27wxPGTextCtrlAndButtonEditor' size='30' version='WXU_3.2' is-default-version='yes' type='object-type' binding='weak-binding' visibility='default-visibility' is-defined='yes'/>
    <elf-symbol name='_ZTS8wxPGCell' size='10' version='WXU_3.2' is-default-version='yes' type='object-type' binding='weak-binding' visibility='default-visibility' is-defined='yes'/>
    <elf-symbol name='_ZTV10wxPGEditor' size='176' version='WXU_3.2' is-default-version='yes' type='object-type' binding='weak-binding' visibility='default-visibility' is-defined='yes'/>
    <elf-symbol name='_ZTV11wxBrushBase' size='144' version='WXU_3.2' is-default-version='yes' type='object-type' binding='weak-binding' visibility='default-visibility' is-defined='yes'/>
    <elf-symbol name='_ZTV12wxCursorBase' size='88' version='WXU_3.2' is-default-version='yes' type='object-type' binding='weak-binding' visibility='default-visibility' is-defined='yes'/>
    <elf-symbol name='_ZTV12wxPGCellData' size='32' version='WXU_3.2' is-default-version='yes' type='object-type' binding='weak-binding' visibility='default-visibility' is-defined='yes'/>
    <elf-symbol name='_ZTV12wxPGProperty' size='216' version='WXU_3.2' is-default-version='yes' type='object-type' binding='weak-binding' visibility='default-visibility' is-defined='yes'/>
    <elf-symbol name='_ZTV12wxRefCounter' size='32' version='WXU_3.2' is-default-version='yes' type='object-type' binding='weak-binding' visibility='default-visibility' is-defined='yes'/>
    <elf-symbol name='_ZTV12wxWindowList' size='48' version='WXU_3.2' is-default-version='yes' type='object-type' binding='weak-binding' visibility='default-visibility' is-defined='yes'/>
    <elf-symbol name='_ZTV13wxDirProperty' size='224' version='WXU_3.2' is-default-version='yes' type='object-type' binding='weak-binding' visibility='default-visibility' is-defined='yes'/>
    <elf-symbol name='_ZTV13wxIntProperty' size='224' version='WXU_3.2' is-default-version='yes' type='object-type' binding='weak-binding' visibility='default-visibility' is-defined='yes'/>
    <elf-symbol name='_ZTV13wxVariantData' size='104' version='WXU_3.2' is-default-version='yes' type='object-type' binding='weak-binding' visibility='default-visibility' is-defined='yes'/>
    <elf-symbol name='_ZTV13wxVariantList' size='48' version='WXU_3.2' is-default-version='yes' type='object-type' binding='weak-binding' visibility='default-visibility' is-defined='yes'/>
    <elf-symbol name='_ZTV14wxAnyValueType' size='64' version='WXU_3.2' is-default-version='yes' type='object-type' binding='weak-binding' visibility='default-visibility' is-defined='yes'/>
    <elf-symbol name='_ZTV14wxBoolProperty' size='216' version='WXU_3.2' is-default-version='yes' type='object-type' binding='weak-binding' visibility='default-visibility' is-defined='yes'/>
    <elf-symbol name='_ZTV14wxDateProperty' size='216' version='WXU_3.2' is-default-version='yes' type='object-type' binding='weak-binding' visibility='default-visibility' is-defined='yes'/>
    <elf-symbol name='_ZTV14wxEnumProperty' size='224' version='WXU_3.2' is-default-version='yes' type='object-type' binding='weak-binding' visibility='default-visibility' is-defined='yes'/>
    <elf-symbol name='_ZTV14wxFileProperty' size='224' version='WXU_3.2' is-default-version='yes' type='object-type' binding='weak-binding' visibility='default-visibility' is-defined='yes'/>
    <elf-symbol name='_ZTV14wxFontProperty' size='224' version='WXU_3.2' is-default-version='yes' type='object-type' binding='weak-binding' visibility='default-visibility' is-defined='yes'/>
    <elf-symbol name='_ZTV14wxHeaderColumn' size='136' version='WXU_3.2' is-default-version='yes' type='object-type' binding='weak-binding' visibility='default-visibility' is-defined='yes'/>
    <elf-symbol name='_ZTV14wxPropertyGrid' size='2096' version='WXU_3.2' is-default-version='yes' type='object-type' binding='weak-binding' visibility='default-visibility' is-defined='yes'/>
    <elf-symbol name='_ZTV14wxUIntProperty' size='224' version='WXU_3.2' is-default-version='yes' type='object-type' binding='weak-binding' visibility='default-visibility' is-defined='yes'/>
    <elf-symbol name='_ZTV15wxAnyButtonBase' size='1776' version='WXU_3.2' is-default-version='yes' type='object-type' binding='weak-binding' visibility='default-visibility' is-defined='yes'/>
    <elf-symbol name='_ZTV15wxDirDialogBase' size='2072' version='WXU_3.2' is-default-version='yes' type='object-type' binding='weak-binding' visibility='default-visibility' is-defined='yes'/>
    <elf-symbol name='_ZTV15wxFlagsProperty' size='216' version='WXU_3.2' is-default-version='yes' type='object-type' binding='weak-binding' visibility='default-visibility' is-defined='yes'/>
    <elf-symbol name='_ZTV15wxFloatProperty' size='224' version='WXU_3.2' is-default-version='yes' type='object-type' binding='weak-binding' visibility='default-visibility' is-defined='yes'/>
    <elf-symbol name='_ZTV15wxPGChoiceEntry' size='56' version='WXU_3.2' is-default-version='yes' type='object-type' binding='weak-binding' visibility='default-visibility' is-defined='yes'/>
    <elf-symbol name='_ZTV15wxPGChoicesData' size='32' version='WXU_3.2' is-default-version='yes' type='object-type' binding='weak-binding' visibility='default-visibility' is-defined='yes'/>
    <elf-symbol name='_ZTV15wxPGCommonValue' size='40' version='WXU_3.2' is-default-version='yes' type='object-type' binding='weak-binding' visibility='default-visibility' is-defined='yes'/>
    <elf-symbol name='_ZTV15wxPGMultiButton' size='1664' version='WXU_3.2' is-default-version='yes' type='object-type' binding='weak-binding' visibility='default-visibility' is-defined='yes'/>
    <elf-symbol name='_ZTV15wxSizerItemList' size='48' version='WXU_3.2' is-default-version='yes' type='object-type' binding='weak-binding' visibility='default-visibility' is-defined='yes'/>
    <elf-symbol name='_ZTV16wxColourProperty' size='256' version='WXU_3.2' is-default-version='yes' type='object-type' binding='weak-binding' visibility='default-visibility' is-defined='yes'/>
    <elf-symbol name='_ZTV16wxCursorProperty' size='224' version='WXU_3.2' is-default-version='yes' type='object-type' binding='weak-binding' visibility='default-visibility' is-defined='yes'/>
    <elf-symbol name='_ZTV16wxFontDialogBase' size='2040' version='WXU_3.2' is-default-version='yes' type='object-type' binding='weak-binding' visibility='default-visibility' is-defined='yes'/>
    <elf-symbol name='_ZTV16wxPGCellRenderer' size='56' version='WXU_3.2' is-default-version='yes' type='object-type' binding='weak-binding' visibility='default-visibility' is-defined='yes'/>
    <elf-symbol name='_ZTV16wxPGChoiceEditor' size='176' version='WXU_3.2' is-default-version='yes' type='object-type' binding='weak-binding' visibility='default-visibility' is-defined='yes'/>
    <elf-symbol name='_ZTV16wxPGRootProperty' size='216' version='WXU_3.2' is-default-version='yes' type='object-type' binding='weak-binding' visibility='default-visibility' is-defined='yes'/>
    <elf-symbol name='_ZTV16wxStringProperty' size='216' version='WXU_3.2' is-default-version='yes' type='object-type' binding='weak-binding' visibility='default-visibility' is-defined='yes'/>
    <elf-symbol name='_ZTV17wxNumericProperty' size='224' version='WXU_3.2' is-default-version='yes' type='object-type' binding='weak-binding' visibility='default-visibility' is-defined='yes'/>
    <elf-symbol name='_ZTV17wxPGDialogAdapter' size='64' version='WXU_3.2' is-default-version='yes' type='object-type' binding='weak-binding' visibility='default-visibility' is-defined='yes'/>
    <elf-symbol name='_ZTV17wxPGVIteratorBase' size='40' version='WXU_3.2' is-default-version='yes' type='object-type' binding='weak-binding' visibility='default-visibility' is-defined='yes'/>
    <elf-symbol name='_ZTV17wxStringTokenizer' size='56' version='WXU_3.2' is-default-version='yes' type='object-type' binding='weak-binding' visibility='default-visibility' is-defined='yes'/>
    <elf-symbol name='_ZTV18wxBitmapButtonBase' size='1792' version='WXU_3.2' is-default-version='yes' type='object-type' binding='weak-binding' visibility='default-visibility' is-defined='yes'/>
    <elf-symbol name='_ZTV18wxEditEnumProperty' size='224' version='WXU_3.2' is-default-version='yes' type='object-type' binding='weak-binding' visibility='default-visibility' is-defined='yes'/>
    <elf-symbol name='_ZTV18wxPGCheckBoxEditor' size='176' version='WXU_3.2' is-default-version='yes' type='object-type' binding='weak-binding' visibility='default-visibility' is-defined='yes'/>
    <elf-symbol name='_ZTV18wxPGComboBoxEditor' size='176' version='WXU_3.2' is-default-version='yes' type='object-type' binding='weak-binding' visibility='default-visibility' is-defined='yes'/>
    <elf-symbol name='_ZTV18wxPGSpinCtrlEditor' size='176' version='WXU_3.2' is-default-version='yes' type='object-type' binding='weak-binding' visibility='default-visibility' is-defined='yes'/>
    <elf-symbol name='_ZTV18wxPGTextCtrlEditor' size='176' version='WXU_3.2' is-default-version='yes' type='object-type' binding='weak-binding' visibility='default-visibility' is-defined='yes'/>
    <elf-symbol name='_ZTV18wxPropertyCategory' size='216' version='WXU_3.2' is-default-version='yes' type='object-type' binding='weak-binding' visibility='default-visibility' is-defined='yes'/>
    <elf-symbol name='_ZTV18wxPropertyGridPage' size='400' version='WXU_3.2' is-default-version='yes' type='object-type' binding='weak-binding' visibility='default-visibility' is-defined='yes'/>
    <elf-symbol name='_ZTV19wxImageFileProperty' size='224' version='WXU_3.2' is-default-version='yes' type='object-type' binding='weak-binding' visibility='default-visibility' is-defined='yes'/>
    <elf-symbol name='_ZTV19wxPGDefaultRenderer' size='56' version='WXU_3.2' is-default-version='yes' type='object-type' binding='weak-binding' visibility='default-visibility' is-defined='yes'/>
    <elf-symbol name='_ZTV19wxPropertyGridEvent' size='72' version='WXU_3.2' is-default-version='yes' type='object-type' binding='weak-binding' visibility='default-visibility' is-defined='yes'/>
    <elf-symbol name='_ZTV20wxLongStringProperty' size='224' version='WXU_3.2' is-default-version='yes' type='object-type' binding='weak-binding' visibility='default-visibility' is-defined='yes'/>
    <elf-symbol name='_ZTV21wxArrayStringProperty' size='272' version='WXU_3.2' is-default-version='yes' type='object-type' binding='weak-binding' visibility='default-visibility' is-defined='yes'/>
    <elf-symbol name='_ZTV21wxAutoBufferedPaintDC' size='80' version='WXU_3.2' is-default-version='yes' type='object-type' binding='weak-binding' visibility='default-visibility' is-defined='yes'/>
    <elf-symbol name='_ZTV21wxColourPropertyValue' size='56' version='WXU_3.2' is-default-version='yes' type='object-type' binding='weak-binding' visibility='default-visibility' is-defined='yes'/>
    <elf-symbol name='_ZTV21wxMultiChoiceProperty' size='224' version='WXU_3.2' is-default-version='yes' type='object-type' binding='weak-binding' visibility='default-visibility' is-defined='yes'/>
    <elf-symbol name='_ZTV21wxPGArrayEditorDialog' size='2112' version='WXU_3.2' is-default-version='yes' type='object-type' binding='weak-binding' visibility='default-visibility' is-defined='yes'/>
    <elf-symbol name='_ZTV21wxPropertyGridManager' size='1864' version='WXU_3.2' is-default-version='yes' type='object-type' binding='weak-binding' visibility='default-visibility' is-defined='yes'/>
    <elf-symbol name='_ZTV22wxEditorDialogProperty' size='224' version='WXU_3.2' is-default-version='yes' type='object-type' binding='weak-binding' visibility='default-visibility' is-defined='yes'/>
    <elf-symbol name='_ZTV22wxSettableHeaderColumn' size='232' version='WXU_3.2' is-default-version='yes' type='object-type' binding='weak-binding' visibility='default-visibility' is-defined='yes'/>
    <elf-symbol name='_ZTV22wxSystemColourProperty' size='256' version='WXU_3.2' is-default-version='yes' type='object-type' binding='weak-binding' visibility='default-visibility' is-defined='yes'/>
    <elf-symbol name='_ZTV23wxPGEditorDialogAdapter' size='64' version='WXU_3.2' is-default-version='yes' type='object-type' binding='weak-binding' visibility='default-visibility' is-defined='yes'/>
    <elf-symbol name='_ZTV23wxPropertyGridInterface' size='104' version='WXU_3.2' is-default-version='yes' type='object-type' binding='weak-binding' visibility='default-visibility' is-defined='yes'/>
    <elf-symbol name='_ZTV23wxPropertyGridPageState' size='56' version='WXU_3.2' is-default-version='yes' type='object-type' binding='weak-binding' visibility='default-visibility' is-defined='yes'/>
    <elf-symbol name='_ZTV23wxPropertyGridPopulator' size='48' version='WXU_3.2' is-default-version='yes' type='object-type' binding='weak-binding' visibility='default-visibility' is-defined='yes'/>
    <elf-symbol name='_ZTV24wxDateTimePickerCtrlBase' size='1736' version='WXU_3.2' is-default-version='yes' type='object-type' binding='weak-binding' visibility='default-visibility' is-defined='yes'/>
    <elf-symbol name='_ZTV25wxPGChoiceAndButtonEditor' size='176' version='WXU_3.2' is-default-version='yes' type='object-type' binding='weak-binding' visibility='default-visibility' is-defined='yes'/>
    <elf-symbol name='_ZTV26wxDatePickerCtrlCommonBaseI24wxDateTimePickerCtrlBaseE' size='1752' version='WXU_3.2' is-default-version='yes' type='object-type' binding='weak-binding' visibility='default-visibility' is-defined='yes'/>
    <elf-symbol name='_ZTV26wxNumericPropertyValidator' size='240' version='WXU_3.2' is-default-version='yes' type='object-type' binding='weak-binding' visibility='default-visibility' is-defined='yes'/>
    <elf-symbol name='_ZTV27wxPGArrayStringEditorDialog' size='2112' version='WXU_3.2' is-default-version='yes' type='object-type' binding='weak-binding' visibility='default-visibility' is-defined='yes'/>
    <elf-symbol name='_ZTV27wxPGTextCtrlAndButtonEditor' size='176' version='WXU_3.2' is-default-version='yes' type='object-type' binding='weak-binding' visibility='default-visibility' is-defined='yes'/>
    <elf-symbol name='_ZTV8wxPGCell' size='56' version='WXU_3.2' is-default-version='yes' type='object-type' binding='weak-binding' visibility='default-visibility' is-defined='yes'/>
    <elf-symbol name='wxArrayInt_VariantType' size='8' version='WXU_3.2' is-default-version='yes' type='object-type' binding='global-binding' visibility='default-visibility' is-defined='yes'/>
    <elf-symbol name='wxEVT_PG_CHANGED' size='4' version='WXU_3.2' is-default-version='yes' type='object-type' binding='global-binding' visibility='default-visibility' is-defined='yes'/>
    <elf-symbol name='wxEVT_PG_CHANGING' size='4' version='WXU_3.2' is-default-version='yes' type='object-type' binding='global-binding' visibility='default-visibility' is-defined='yes'/>
    <elf-symbol name='wxEVT_PG_COL_BEGIN_DRAG' size='4' version='WXU_3.2' is-default-version='yes' type='object-type' binding='global-binding' visibility='default-visibility' is-defined='yes'/>
    <elf-symbol name='wxEVT_PG_COL_DRAGGING' size='4' version='WXU_3.2' is-default-version='yes' type='object-type' binding='global-binding' visibility='default-visibility' is-defined='yes'/>
    <elf-symbol name='wxEVT_PG_COL_END_DRAG' size='4' version='WXU_3.2' is-default-version='yes' type='object-type' binding='global-binding' visibility='default-visibility' is-defined='yes'/>
    <elf-symbol name='wxEVT_PG_DOUBLE_CLICK' size='4' version='WXU_3.2' is-default-version='yes' type='object-type' binding='global-binding' visibility='default-visibility' is-defined='yes'/>
    <elf-symbol name='wxEVT_PG_HIGHLIGHTED' size='4' version='WXU_3.2' is-default-version='yes' type='object-type' binding='global-binding' visibility='default-visibility' is-defined='yes'/>
    <elf-symbol name='wxEVT_PG_ITEM_COLLAPSED' size='4' version='WXU_3.2' is-default-version='yes' type='object-type' binding='global-binding' visibility='default-visibility' is-defined='yes'/>
    <elf-symbol name='wxEVT_PG_ITEM_EXPANDED' size='4' version='WXU_3.2' is-default-version='yes' type='object-type' binding='global-binding' visibility='default-visibility' is-defined='yes'/>
    <elf-symbol name='wxEVT_PG_LABEL_EDIT_BEGIN' size='4' version='WXU_3.2' is-default-version='yes' type='object-type' binding='global-binding' visibility='default-visibility' is-defined='yes'/>
    <elf-symbol name='wxEVT_PG_LABEL_EDIT_ENDING' size='4' version='WXU_3.2' is-default-version='yes' type='object-type' binding='global-binding' visibility='default-visibility' is-defined='yes'/>
    <elf-symbol name='wxEVT_PG_PAGE_CHANGED' size='4' version='WXU_3.2' is-default-version='yes' type='object-type' binding='global-binding' visibility='default-visibility' is-defined='yes'/>
    <elf-symbol name='wxEVT_PG_RIGHT_CLICK' size='4' version='WXU_3.2' is-default-version='yes' type='object-type' binding='global-binding' visibility='default-visibility' is-defined='yes'/>
    <elf-symbol name='wxEVT_PG_SELECTED' size='4' version='WXU_3.2' is-default-version='yes' type='object-type' binding='global-binding' visibility='default-visibility' is-defined='yes'/>
    <elf-symbol name='wxPGEditor_CheckBox' size='8' version='WXU_3.2' is-default-version='yes' type='object-type' binding='global-binding' visibility='default-visibility' is-defined='yes'/>
    <elf-symbol name='wxPGEditor_Choice' size='8' version='WXU_3.2' is-default-version='yes' type='object-type' binding='global-binding' visibility='default-visibility' is-defined='yes'/>
    <elf-symbol name='wxPGEditor_ChoiceAndButton' size='8' version='WXU_3.2' is-default-version='yes' type='object-type' binding='global-binding' visibility='default-visibility' is-defined='yes'/>
    <elf-symbol name='wxPGEditor_ComboBox' size='8' version='WXU_3.2' is-default-version='yes' type='object-type' binding='global-binding' visibility='default-visibility' is-defined='yes'/>
    <elf-symbol name='wxPGEditor_DatePickerCtrl' size='8' version='WXU_3.2' is-default-version='yes' type='object-type' binding='global-binding' visibility='default-visibility' is-defined='yes'/>
    <elf-symbol name='wxPGEditor_SpinCtrl' size='8' version='WXU_3.2' is-default-version='yes' type='object-type' binding='global-binding' visibility='default-visibility' is-defined='yes'/>
    <elf-symbol name='wxPGEditor_TextCtrl' size='8' version='WXU_3.2' is-default-version='yes' type='object-type' binding='global-binding' visibility='default-visibility' is-defined='yes'/>
    <elf-symbol name='wxPGEditor_TextCtrlAndButton' size='8' version='WXU_3.2' is-default-version='yes' type='object-type' binding='global-binding' visibility='default-visibility' is-defined='yes'/>
    <elf-symbol name='wxPGGlobalVars' size='8' version='WXU_3.2' is-default-version='yes' type='object-type' binding='global-binding' visibility='default-visibility' is-defined='yes'/>
    <elf-symbol name='wxPoint_VariantType' size='8' version='WXU_3.2' is-default-version='yes' type='object-type' binding='global-binding' visibility='default-visibility' is-defined='yes'/>
    <elf-symbol name='wxPropertyGridManagerNameStr' size='22' version='WXU_3.2' is-default-version='yes' type='object-type' binding='global-binding' visibility='default-visibility' is-defined='yes'/>
    <elf-symbol name='wxPropertyGridNameStr' size='15' version='WXU_3.2' is-default-version='yes' type='object-type' binding='global-binding' visibility='default-visibility' is-defined='yes'/>
    <elf-symbol name='wxSize_VariantType' size='8' version='WXU_3.2' is-default-version='yes' type='object-type' binding='global-binding' visibility='default-visibility' is-defined='yes'/>
  </elf-variable-symbols>
  <abi-instr address-size='64' path='src/propgrid/advprops.cpp' language='LANG_C_plus_plus_14'>
    <type-decl name='__float128' size-in-bits='128' id='type-id-1'/>
    <type-decl name='__int128' size-in-bits='128' id='type-id-2'/>
    <type-decl name='bool' size-in-bits='8' id='type-id-3'/>
    <type-decl name='char' size-in-bits='8' id='type-id-4'/>
    <array-type-def dimensions='1' type-id='type-id-4' size-in-bits='128' id='type-id-5'>
      <subrange length='16' type-id='type-id-6' id='type-id-7'/>
    </array-type-def>
    <array-type-def dimensions='1' type-id='type-id-4' size-in-bits='8' id='type-id-8'>
      <subrange length='1' type-id='type-id-6' id='type-id-9'/>
    </array-type-def>
    <array-type-def dimensions='1' type-id='type-id-4' size-in-bits='160' id='type-id-10'>
      <subrange length='20' type-id='type-id-6' id='type-id-11'/>
    </array-type-def>
    <array-type-def dimensions='1' type-id='type-id-4' size-in-bits='32' id='type-id-12'>
      <subrange length='4' type-id='type-id-6' id='type-id-13'/>
    </array-type-def>
    <class-decl name='typedef __va_list_tag __va_list_tag' size-in-bits='192' is-struct='yes' visibility='default' id='type-id-14'>
      <data-member access='public' layout-offset-in-bits='0'>
        <var-decl name='gp_offset' type-id='type-id-15' visibility='default'/>
      </data-member>
      <data-member access='public' layout-offset-in-bits='32'>
        <var-decl name='fp_offset' type-id='type-id-15' visibility='default'/>
      </data-member>
      <data-member access='public' layout-offset-in-bits='64'>
        <var-decl name='overflow_arg_area' type-id='type-id-16' visibility='default'/>
      </data-member>
      <data-member access='public' layout-offset-in-bits='128'>
        <var-decl name='reg_save_area' type-id='type-id-16' visibility='default'/>
      </data-member>
    </class-decl>
    <type-decl name='double' size-in-bits='64' id='type-id-17'/>
    <type-decl name='float' size-in-bits='32' id='type-id-18'/>
    <type-decl name='int' size-in-bits='32' id='type-id-19'/>
    <type-decl name='long double' size-in-bits='128' id='type-id-20'/>
    <type-decl name='long int' size-in-bits='64' id='type-id-21'/>
    <type-decl name='long long int' size-in-bits='64' id='type-id-22'/>
    <type-decl name='long long unsigned int' size-in-bits='64' id='type-id-23'/>
    <type-decl name='short int' size-in-bits='16' id='type-id-24'/>
    <type-decl name='signed char' size-in-bits='8' id='type-id-25'/>
    <type-decl name='unnamed-enum-underlying-type-32' is-anonymous='yes' size-in-bits='32' alignment-in-bits='32' id='type-id-26'/>
    <type-decl name='unsigned char' size-in-bits='8' id='type-id-27'/>
    <type-decl name='unsigned int' size-in-bits='32' id='type-id-15'/>
    <type-decl name='unsigned long int' size-in-bits='64' id='type-id-6'/>
    <type-decl name='unsigned short int' size-in-bits='16' id='type-id-28'/>
    <type-decl name='variadic parameter type' id='type-id-29'/>
    <type-decl name='void' id='type-id-30'/>
    <type-decl name='wchar_t' size-in-bits='32' id='type-id-31'/>
    <array-type-def dimensions='1' type-id='type-id-31' size-in-bits='128' id='type-id-32'>
      <subrange length='4' type-id='type-id-6' id='type-id-13'/>
    </array-type-def>
    <array-type-def dimensions='1' type-id='type-id-33' size-in-bits='128' id='type-id-34'>
      <subrange length='16' type-id='type-id-6' id='type-id-7'/>
    </array-type-def>
    <union-decl name='wxAnyValueBuffer' size-in-bits='128' visibility='default' filepath='include/wx/any.h' line='30' column='1' id='type-id-35'>
      <member-type access='public'>
        <union-decl name='Alignment' size-in-bits='128' visibility='default' filepath='include/wx/any.h' line='32' column='1' id='type-id-36'>
          <data-member access='public'>
            <var-decl name='m_int64' type-id='type-id-37' visibility='default' filepath='include/wx/any.h' line='35' column='1'/>
          </data-member>
          <data-member access='public'>
            <var-decl name='m_longDouble' type-id='type-id-20' visibility='default' filepath='include/wx/any.h' line='37' column='1'/>
          </data-member>
          <data-member access='public'>
            <var-decl name='m_funcPtr' type-id='type-id-38' visibility='default' filepath='include/wx/any.h' line='38' column='1'/>
          </data-member>
        </union-decl>
      </member-type>
      <data-member access='public'>
        <var-decl name='m_alignment' type-id='type-id-36' visibility='default' filepath='include/wx/any.h' line='40' column='1'/>
      </data-member>
      <data-member access='public'>
        <var-decl name='m_ptr' type-id='type-id-16' visibility='default' filepath='include/wx/any.h' line='42' column='1'/>
      </data-member>
      <data-member access='public'>
        <var-decl name='m_buffer' type-id='type-id-34' visibility='default' filepath='include/wx/any.h' line='43' column='1'/>
      </data-member>
    </union-decl>
    <class-decl name='wxAnyValueType' size-in-bits='64' visibility='default' filepath='include/wx/any.h' line='56' column='1' id='type-id-39'>
      <member-function access='public' destructor='yes' vtable-offset='-1'>
        <function-decl name='~wxAnyValueType' mangled-name='_ZN14wxAnyValueTypeD0Ev' filepath='include/wx/any.h' line='70' column='1' visibility='default' binding='global' size-in-bits='64'>
          <parameter type-id='type-id-40' is-artificial='yes'/>
          <parameter type-id='type-id-19' is-artificial='yes'/>
          <return type-id='type-id-30'/>
        </function-decl>
      </member-function>
      <member-function access='public' destructor='yes' vtable-offset='-1'>
        <function-decl name='~wxAnyValueType' mangled-name='_ZN14wxAnyValueTypeD0Ev' filepath='include/wx/any.h' line='70' column='1' visibility='default' binding='global' size-in-bits='64'>
          <parameter type-id='type-id-40' is-artificial='yes'/>
          <parameter type-id='type-id-19' is-artificial='yes'/>
          <return type-id='type-id-30'/>
        </function-decl>
      </member-function>
      <member-function access='public' destructor='yes' vtable-offset='-1'>
        <function-decl name='~wxAnyValueType' mangled-name='_ZN14wxAnyValueTypeD2Ev' filepath='include/wx/any.h' line='70' column='1' visibility='default' binding='global' size-in-bits='64'>
          <parameter type-id='type-id-40' is-artificial='yes'/>
          <parameter type-id='type-id-19' is-artificial='yes'/>
          <return type-id='type-id-30'/>
        </function-decl>
      </member-function>
      <member-function access='public' destructor='yes' vtable-offset='-1'>
        <function-decl name='~wxAnyValueType' mangled-name='_ZN14wxAnyValueTypeD2Ev' filepath='include/wx/any.h' line='70' column='1' visibility='default' binding='global' size-in-bits='64'>
          <parameter type-id='type-id-40' is-artificial='yes'/>
          <parameter type-id='type-id-19' is-artificial='yes'/>
          <return type-id='type-id-30'/>
        </function-decl>
      </member-function>
      <member-function access='public' destructor='yes' vtable-offset='-1'>
        <function-decl name='~wxAnyValueType' mangled-name='_ZN14wxAnyValueTypeD4Ev' filepath='include/wx/any.h' line='70' column='1' visibility='default' binding='global' size-in-bits='64'>
          <parameter type-id='type-id-40' is-artificial='yes'/>
          <parameter type-id='type-id-19' is-artificial='yes'/>
          <return type-id='type-id-30'/>
        </function-decl>
      </member-function>
      <member-function access='public' const='yes' vtable-offset='2'>
        <function-decl name='IsSameType' mangled-name='_ZNK14wxAnyValueType10IsSameTypeEPKS_' filepath='include/wx/any.h' line='77' column='1' visibility='default' binding='global' size-in-bits='64'>
          <parameter type-id='type-id-41' is-artificial='yes'/>
          <parameter type-id='type-id-41'/>
          <return type-id='type-id-3'/>
        </function-decl>
      </member-function>
      <member-function access='public' const='yes' vtable-offset='3'>
        <function-decl name='DeleteValue' mangled-name='_ZNK14wxAnyValueType11DeleteValueER16wxAnyValueBuffer' filepath='include/wx/any.h' line='83' column='1' visibility='default' binding='global' size-in-bits='64'>
          <parameter type-id='type-id-41' is-artificial='yes'/>
          <parameter type-id='type-id-42'/>
          <return type-id='type-id-30'/>
        </function-decl>
      </member-function>
      <member-function access='public' const='yes' vtable-offset='4'>
        <function-decl name='CopyBuffer' mangled-name='_ZNK14wxAnyValueType10CopyBufferERK16wxAnyValueBufferRS0_' filepath='include/wx/any.h' line='95' column='1' visibility='default' binding='global' size-in-bits='64'>
          <parameter type-id='type-id-41' is-artificial='yes'/>
          <parameter type-id='type-id-43'/>
          <parameter type-id='type-id-42'/>
          <return type-id='type-id-30'/>
        </function-decl>
      </member-function>
      <member-function access='public' const='yes' vtable-offset='5'>
        <function-decl name='ConvertValue' mangled-name='_ZNK14wxAnyValueType12ConvertValueERK16wxAnyValueBufferPS_RS0_' filepath='include/wx/any.h' line='102' column='1' visibility='default' binding='global' size-in-bits='64'>
          <parameter type-id='type-id-41' is-artificial='yes'/>
          <parameter type-id='type-id-43'/>
          <parameter type-id='type-id-40'/>
          <parameter type-id='type-id-42'/>
          <return type-id='type-id-3'/>
        </function-decl>
      </member-function>
    </class-decl>
    <class-decl name='wxAnyValueTypeScopedPtr' size-in-bits='64' visibility='default' filepath='include/wx/any.h' line='130' column='1' id='type-id-44'>
      <data-member access='private' layout-offset-in-bits='0'>
        <var-decl name='m_ptr' type-id='type-id-40' visibility='default' filepath='include/wx/any.h' line='137' column='1'/>
      </data-member>
    </class-decl>
    <class-decl name='wxAnyValueTypeImplBase&lt;wxColourPropertyValue&gt;' size-in-bits='64' visibility='default' filepath='include/wx/any.h' line='284' column='1' id='type-id-45'>
      <base-class access='public' layout-offset-in-bits='0' type-id='type-id-39'/>
      <member-function access='public' destructor='yes' vtable-offset='-1'>
        <function-decl name='~wxAnyValueTypeImplBase' mangled-name='_ZN22wxAnyValueTypeImplBaseI21wxColourPropertyValueED0Ev' filepath='include/wx/any.h' line='293' column='1' visibility='default' binding='global' size-in-bits='64'>
          <parameter type-id='type-id-46' is-artificial='yes'/>
          <parameter type-id='type-id-19' is-artificial='yes'/>
          <return type-id='type-id-30'/>
        </function-decl>
      </member-function>
      <member-function access='public' destructor='yes' vtable-offset='-1'>
        <function-decl name='~wxAnyValueTypeImplBase' mangled-name='_ZN22wxAnyValueTypeImplBaseI21wxColourPropertyValueED2Ev' filepath='include/wx/any.h' line='293' column='1' visibility='default' binding='global' size-in-bits='64'>
          <parameter type-id='type-id-46' is-artificial='yes'/>
          <parameter type-id='type-id-19' is-artificial='yes'/>
          <return type-id='type-id-30'/>
        </function-decl>
      </member-function>
      <member-function access='public' destructor='yes' vtable-offset='-1'>
        <function-decl name='~wxAnyValueTypeImplBase' mangled-name='_ZN22wxAnyValueTypeImplBaseI21wxColourPropertyValueED4Ev' filepath='include/wx/any.h' line='293' column='1' visibility='default' binding='global' size-in-bits='64'>
          <parameter type-id='type-id-46' is-artificial='yes'/>
          <parameter type-id='type-id-19' is-artificial='yes'/>
          <return type-id='type-id-30'/>
        </function-decl>
      </member-function>
      <member-function access='public' const='yes' vtable-offset='3'>
        <function-decl name='DeleteValue' mangled-name='_ZNK22wxAnyValueTypeImplBaseI21wxColourPropertyValueE11DeleteValueER16wxAnyValueBuffer' filepath='include/wx/any.h' line='295' column='1' visibility='default' binding='global' size-in-bits='64'>
          <parameter type-id='type-id-47' is-artificial='yes'/>
          <parameter type-id='type-id-42'/>
          <return type-id='type-id-30'/>
        </function-decl>
      </member-function>
      <member-function access='public' const='yes' vtable-offset='4'>
        <function-decl name='CopyBuffer' mangled-name='_ZNK22wxAnyValueTypeImplBaseI21wxColourPropertyValueE10CopyBufferERK16wxAnyValueBufferRS2_' filepath='include/wx/any.h' line='300' column='1' visibility='default' binding='global' size-in-bits='64'>
          <parameter type-id='type-id-47' is-artificial='yes'/>
          <parameter type-id='type-id-43'/>
          <parameter type-id='type-id-42'/>
          <return type-id='type-id-30'/>
        </function-decl>
      </member-function>
    </class-decl>
    <class-decl name='wxAnyValueTypeImpl&lt;wxColourPropertyValue&gt;' size-in-bits='64' visibility='default' filepath='include/wx/any.h' line='338' column='1' id='type-id-48'>
      <base-class access='public' layout-offset-in-bits='0' type-id='type-id-45'/>
      <data-member access='private' static='yes'>
        <var-decl name='sm_instance' type-id='type-id-44' mangled-name='_ZN18wxAnyValueTypeImplI21wxColourPropertyValueE11sm_instanceE' visibility='default' filepath='include/wx/any.h' line='357' column='1'/>
      </data-member>
      <member-function access='public' destructor='yes' vtable-offset='-1'>
        <function-decl name='~wxAnyValueTypeImpl' mangled-name='_ZN18wxAnyValueTypeImplI21wxColourPropertyValueED0Ev' filepath='include/wx/any.h' line='343' column='1' visibility='default' binding='global' size-in-bits='64'>
          <parameter type-id='type-id-49' is-artificial='yes'/>
          <parameter type-id='type-id-19' is-artificial='yes'/>
          <return type-id='type-id-30'/>
        </function-decl>
      </member-function>
      <member-function access='public' destructor='yes' vtable-offset='-1'>
        <function-decl name='~wxAnyValueTypeImpl' mangled-name='_ZN18wxAnyValueTypeImplI21wxColourPropertyValueED2Ev' filepath='include/wx/any.h' line='343' column='1' visibility='default' binding='global' size-in-bits='64'>
          <parameter type-id='type-id-49' is-artificial='yes'/>
          <parameter type-id='type-id-19' is-artificial='yes'/>
          <return type-id='type-id-30'/>
        </function-decl>
      </member-function>
      <member-function access='public' destructor='yes' vtable-offset='-1'>
        <function-decl name='~wxAnyValueTypeImpl' mangled-name='_ZN18wxAnyValueTypeImplI21wxColourPropertyValueED4Ev' filepath='include/wx/any.h' line='343' column='1' visibility='default' binding='global' size-in-bits='64'>
          <parameter type-id='type-id-49' is-artificial='yes'/>
          <parameter type-id='type-id-19' is-artificial='yes'/>
          <return type-id='type-id-30'/>
        </function-decl>
      </member-function>
      <member-function access='public' const='yes' vtable-offset='2'>
        <function-decl name='IsSameType' mangled-name='_ZNK18wxAnyValueTypeImplI21wxColourPropertyValueE10IsSameTypeEPK14wxAnyValueType' filepath='include/wx/any.h' line='340' column='1' visibility='default' binding='global' size-in-bits='64'>
          <parameter type-id='type-id-50' is-artificial='yes'/>
          <parameter type-id='type-id-41'/>
          <return type-id='type-id-3'/>
        </function-decl>
      </member-function>
      <member-function access='public' const='yes' vtable-offset='5'>
        <function-decl name='ConvertValue' mangled-name='_ZNK18wxAnyValueTypeImplI21wxColourPropertyValueE12ConvertValueERK16wxAnyValueBufferP14wxAnyValueTypeRS2_' filepath='include/wx/any.h' line='345' column='1' visibility='default' binding='global' size-in-bits='64'>
          <parameter type-id='type-id-50' is-artificial='yes'/>
          <parameter type-id='type-id-43'/>
          <parameter type-id='type-id-40'/>
          <parameter type-id='type-id-42'/>
          <return type-id='type-id-3'/>
        </function-decl>
      </member-function>
    </class-decl>
    <class-decl name='wxAny' size-in-bits='256' visibility='default' filepath='include/wx/any.h' line='731' column='1' id='type-id-51'>
      <data-member access='private' layout-offset-in-bits='0'>
        <var-decl name='m_buffer' type-id='type-id-35' visibility='default' filepath='include/wx/any.h' line='1082' column='1'/>
      </data-member>
      <data-member access='private' layout-offset-in-bits='128'>
        <var-decl name='m_type' type-id='type-id-40' visibility='default' filepath='include/wx/any.h' line='1083' column='1'/>
      </data-member>
    </class-decl>
    <class-decl name='wxAnyStrPtr' size-in-bits='128' visibility='default' filepath='include/wx/anystr.h' line='29' column='1' id='type-id-52'>
      <data-member access='private' layout-offset-in-bits='0'>
        <var-decl name='m_str' type-id='type-id-53' visibility='default' filepath='include/wx/anystr.h' line='134' column='1'/>
      </data-member>
      <data-member access='private' layout-offset-in-bits='64'>
        <var-decl name='m_iter' type-id='type-id-54' visibility='default' filepath='include/wx/anystr.h' line='135' column='1'/>
      </data-member>
    </class-decl>
    <class-decl name='wxArrayString' size-in-bits='320' visibility='default' filepath='include/wx/arrstr.h' line='157' column='1' id='type-id-55'>
      <member-type access='public'>
        <typedef-decl name='CompareFunction' type-id='type-id-57' filepath='include/wx/arrstr.h' line='161' column='1' id='type-id-56'/>
      </member-type>
      <member-type access='public'>
        <typedef-decl name='CompareFunction2' type-id='type-id-59' filepath='include/wx/arrstr.h' line='165' column='1' id='type-id-58'/>
      </member-type>
      <member-type access='public'>
        <typedef-decl name='value_type' type-id='type-id-61' filepath='include/wx/arrstr.h' line='267' column='1' id='type-id-60'/>
      </member-type>
      <member-type access='public'>
        <typedef-decl name='iterator' type-id='type-id-63' filepath='include/wx/arrstr.h' line='270' column='1' id='type-id-62'/>
      </member-type>
      <member-type access='public'>
        <typedef-decl name='const_iterator' type-id='type-id-65' filepath='include/wx/arrstr.h' line='271' column='1' id='type-id-64'/>
      </member-type>
      <member-type access='public'>
        <typedef-decl name='reference' type-id='type-id-67' filepath='include/wx/arrstr.h' line='272' column='1' id='type-id-66'/>
      </member-type>
      <member-type access='public'>
        <typedef-decl name='const_reference' type-id='type-id-69' filepath='include/wx/arrstr.h' line='273' column='1' id='type-id-68'/>
      </member-type>
      <member-type access='public'>
        <typedef-decl name='size_type' type-id='type-id-71' filepath='include/wx/arrstr.h' line='275' column='1' id='type-id-70'/>
      </member-type>
      <member-type access='public'>
        <class-decl name='reverse_iterator' size-in-bits='64' visibility='default' filepath='include/wx/arrstr.h' line='278' column='1' id='type-id-72'>
          <member-type access='private'>
            <typedef-decl name='value_type' type-id='type-id-61' filepath='include/wx/arrstr.h' line='280' column='1' id='type-id-73'/>
          </member-type>
          <member-type access='private'>
            <typedef-decl name='pointer' type-id='type-id-75' filepath='include/wx/arrstr.h' line='281' column='1' id='type-id-74'/>
          </member-type>
          <member-type access='private'>
            <typedef-decl name='reference' type-id='type-id-77' filepath='include/wx/arrstr.h' line='282' column='1' id='type-id-76'/>
          </member-type>
          <member-type access='private'>
            <typedef-decl name='itor' type-id='type-id-72' filepath='include/wx/arrstr.h' line='283' column='1' id='type-id-78'/>
          </member-type>
          <data-member access='public' layout-offset-in-bits='0'>
            <var-decl name='m_ptr' type-id='type-id-74' visibility='default' filepath='include/wx/arrstr.h' line='289' column='1'/>
          </data-member>
        </class-decl>
      </member-type>
      <member-type access='public'>
        <class-decl name='const_reverse_iterator' size-in-bits='64' visibility='default' filepath='include/wx/arrstr.h' line='304' column='1' id='type-id-79'>
          <member-type access='private'>
            <typedef-decl name='value_type' type-id='type-id-61' filepath='include/wx/arrstr.h' line='306' column='1' id='type-id-80'/>
          </member-type>
          <member-type access='private'>
            <typedef-decl name='pointer' type-id='type-id-82' filepath='include/wx/arrstr.h' line='307' column='1' id='type-id-81'/>
          </member-type>
          <member-type access='private'>
            <typedef-decl name='reference' type-id='type-id-84' filepath='include/wx/arrstr.h' line='308' column='1' id='type-id-83'/>
          </member-type>
          <member-type access='private'>
            <typedef-decl name='itor' type-id='type-id-79' filepath='include/wx/arrstr.h' line='309' column='1' id='type-id-85'/>
          </member-type>
          <data-member access='public' layout-offset-in-bits='0'>
            <var-decl name='m_ptr' type-id='type-id-81' visibility='default' filepath='include/wx/arrstr.h' line='315' column='1'/>
          </data-member>
        </class-decl>
      </member-type>
      <data-member access='protected' layout-offset-in-bits='0'>
        <var-decl name='m_compareFunction' type-id='type-id-56' visibility='default' filepath='include/wx/arrstr.h' line='393' column='1'/>
      </data-member>
      <data-member access='private' layout-offset-in-bits='64'>
        <var-decl name='m_nSize' type-id='type-id-71' visibility='default' filepath='include/wx/arrstr.h' line='406' column='1'/>
      </data-member>
      <data-member access='private' layout-offset-in-bits='128'>
        <var-decl name='m_nCount' type-id='type-id-71' visibility='default' filepath='include/wx/arrstr.h' line='407' column='1'/>
      </data-member>
      <data-member access='private' layout-offset-in-bits='192'>
        <var-decl name='m_pItems' type-id='type-id-86' visibility='default' filepath='include/wx/arrstr.h' line='409' column='1'/>
      </data-member>
      <data-member access='private' layout-offset-in-bits='256'>
        <var-decl name='m_autoSort' type-id='type-id-3' visibility='default' filepath='include/wx/arrstr.h' line='411' column='1'/>
      </data-member>
    </class-decl>
    <class-decl name='wxBitmapBundle' size-in-bits='64' visibility='default' filepath='include/wx/bmpbndl.h' line='28' column='1' id='type-id-87'>
      <member-type access='private'>
        <typedef-decl name='wxBitmapBundleImplPtr' type-id='type-id-89' filepath='include/wx/bmpbndl.h' line='173' column='1' id='type-id-88'/>
      </member-type>
      <data-member access='private' layout-offset-in-bits='0'>
        <var-decl name='m_impl' type-id='type-id-88' visibility='default' filepath='include/wx/bmpbndl.h' line='179' column='1'/>
      </data-member>
    </class-decl>
    <enum-decl name='wxBrushStyle' filepath='include/wx/brush.h' line='20' column='1' id='type-id-90'>
      <underlying-type type-id='type-id-26'/>
      <enumerator name='wxBRUSHSTYLE_INVALID' value='-1'/>
      <enumerator name='wxBRUSHSTYLE_SOLID' value='100'/>
      <enumerator name='wxBRUSHSTYLE_TRANSPARENT' value='106'/>
      <enumerator name='wxBRUSHSTYLE_STIPPLE_MASK_OPAQUE' value='107'/>
      <enumerator name='wxBRUSHSTYLE_STIPPLE_MASK' value='108'/>
      <enumerator name='wxBRUSHSTYLE_STIPPLE' value='110'/>
      <enumerator name='wxBRUSHSTYLE_BDIAGONAL_HATCH' value='111'/>
      <enumerator name='wxBRUSHSTYLE_CROSSDIAG_HATCH' value='112'/>
      <enumerator name='wxBRUSHSTYLE_FDIAGONAL_HATCH' value='113'/>
      <enumerator name='wxBRUSHSTYLE_CROSS_HATCH' value='114'/>
      <enumerator name='wxBRUSHSTYLE_HORIZONTAL_HATCH' value='115'/>
      <enumerator name='wxBRUSHSTYLE_VERTICAL_HATCH' value='116'/>
      <enumerator name='wxBRUSHSTYLE_FIRST_HATCH' value='111'/>
      <enumerator name='wxBRUSHSTYLE_LAST_HATCH' value='116'/>
    </enum-decl>
    <class-decl name='wxScopedCharTypeBuffer&lt;char&gt;' size-in-bits='64' visibility='default' filepath='include/wx/buffer.h' line='66' column='1' id='type-id-91'>
      <member-type access='public'>
        <typedef-decl name='CharType' type-id='type-id-4' filepath='include/wx/buffer.h' line='69' column='1' id='type-id-92'/>
      </member-type>
      <member-type access='protected'>
        <class-decl name='Data' size-in-bits='192' is-struct='yes' visibility='default' filepath='include/wx/buffer.h' line='164' column='1' id='type-id-93'>
          <base-class access='public' layout-offset-in-bits='0' type-id='type-id-94'/>
        </class-decl>
      </member-type>
      <data-member access='protected' layout-offset-in-bits='0'>
        <var-decl name='m_data' type-id='type-id-95' visibility='default' filepath='include/wx/buffer.h' line='238' column='1'/>
      </data-member>
    </class-decl>
    <class-decl name='wxScopedCharTypeBuffer&lt;wchar_t&gt;' size-in-bits='64' visibility='default' filepath='include/wx/buffer.h' line='66' column='1' id='type-id-96'>
      <member-type access='public'>
        <typedef-decl name='CharType' type-id='type-id-31' filepath='include/wx/buffer.h' line='69' column='1' id='type-id-97'/>
      </member-type>
      <member-type access='protected'>
        <class-decl name='Data' size-in-bits='192' is-struct='yes' visibility='default' filepath='include/wx/buffer.h' line='164' column='1' id='type-id-98'>
          <base-class access='public' layout-offset-in-bits='0' type-id='type-id-94'/>
        </class-decl>
      </member-type>
      <data-member access='protected' layout-offset-in-bits='0'>
        <var-decl name='m_data' type-id='type-id-99' visibility='default' filepath='include/wx/buffer.h' line='238' column='1'/>
      </data-member>
    </class-decl>
    <typedef-decl name='wxScopedCharBuffer' type-id='type-id-91' filepath='include/wx/buffer.h' line='241' column='1' id='type-id-100'/>
    <typedef-decl name='wxScopedWCharBuffer' type-id='type-id-96' filepath='include/wx/buffer.h' line='242' column='1' id='type-id-101'/>
    <class-decl name='wxCharTypeBuffer&lt;char&gt;' size-in-bits='64' visibility='default' filepath='include/wx/buffer.h' line='247' column='1' id='type-id-102'>
      <base-class access='public' layout-offset-in-bits='0' type-id='type-id-91'/>
      <member-type access='public'>
        <typedef-decl name='CharType' type-id='type-id-4' filepath='include/wx/buffer.h' line='253' column='1' id='type-id-103'/>
      </member-type>
    </class-decl>
    <class-decl name='wxCharTypeBuffer&lt;wchar_t&gt;' size-in-bits='64' visibility='default' filepath='include/wx/buffer.h' line='247' column='1' id='type-id-104'>
      <base-class access='public' layout-offset-in-bits='0' type-id='type-id-96'/>
      <member-type access='public'>
        <typedef-decl name='CharType' type-id='type-id-31' filepath='include/wx/buffer.h' line='253' column='1' id='type-id-105'/>
      </member-type>
    </class-decl>
    <class-decl name='wxCharBuffer' size-in-bits='64' visibility='default' filepath='include/wx/buffer.h' line='357' column='1' id='type-id-106'>
      <base-class access='public' layout-offset-in-bits='0' type-id='type-id-102'/>
      <member-type access='public'>
        <typedef-decl name='wxCharTypeBufferBase' type-id='type-id-102' filepath='include/wx/buffer.h' line='360' column='1' id='type-id-107'/>
      </member-type>
      <member-type access='public'>
        <typedef-decl name='wxScopedCharTypeBufferBase' type-id='type-id-91' filepath='include/wx/buffer.h' line='361' column='1' id='type-id-108'/>
      </member-type>
    </class-decl>
    <class-decl name='wxWritableCharTypeBuffer&lt;char&gt;' size-in-bits='64' visibility='default' filepath='include/wx/buffer.h' line='393' column='1' id='type-id-109'>
      <base-class access='public' layout-offset-in-bits='0' type-id='type-id-102'/>
      <member-type access='public'>
        <typedef-decl name='CharType' type-id='type-id-92' filepath='include/wx/buffer.h' line='396' column='1' id='type-id-110'/>
      </member-type>
    </class-decl>
    <class-decl name='wxWritableCharTypeBuffer&lt;wchar_t&gt;' size-in-bits='64' visibility='default' filepath='include/wx/buffer.h' line='393' column='1' id='type-id-111'>
      <base-class access='public' layout-offset-in-bits='0' type-id='type-id-104'/>
      <member-type access='public'>
        <typedef-decl name='CharType' type-id='type-id-97' filepath='include/wx/buffer.h' line='396' column='1' id='type-id-112'/>
      </member-type>
    </class-decl>
    <typedef-decl name='wxWritableCharBuffer' type-id='type-id-109' filepath='include/wx/buffer.h' line='410' column='1' id='type-id-113'/>
    <typedef-decl name='wxWritableWCharBuffer' type-id='type-id-111' filepath='include/wx/buffer.h' line='411' column='1' id='type-id-114'/>
    <typedef-decl name='wxChar' type-id='type-id-31' filepath='include/wx/chartype.h' line='123' column='1' id='type-id-115'/>
    <typedef-decl name='wxStringCharType' type-id='type-id-31' filepath='include/wx/chartype.h' line='170' column='1' id='type-id-116'/>
    <class-decl name='wxClientData' size-in-bits='64' visibility='default' filepath='include/wx/clntdata.h' line='98' column='1' id='type-id-117'>
      <member-function access='public' destructor='yes' vtable-offset='-1'>
        <function-decl name='~wxClientData' mangled-name='_ZN12wxClientDataD4Ev' filepath='include/wx/clntdata.h' line='102' column='1' visibility='default' binding='global' size-in-bits='64'>
          <parameter type-id='type-id-118' is-artificial='yes'/>
          <parameter type-id='type-id-19' is-artificial='yes'/>
          <return type-id='type-id-30'/>
        </function-decl>
      </member-function>
    </class-decl>
    <class-decl name='wxCompositeWindowSettersOnly&lt;wxNavigationEnabled&lt;wxDatePickerCtrlCommonBase&lt;wxDateTimePickerCtrlBase&gt; &gt; &gt;' size-in-bits='5952' visibility='default' filepath='include/wx/compositewin.h' line='36' column='1' id='type-id-119'>
      <base-class access='public' layout-offset-in-bits='0' type-id='type-id-120'/>
      <member-function access='public' vtable-offset='28'>
        <function-decl name='SetLayoutDirection' mangled-name='_ZN28wxCompositeWindowSettersOnlyI19wxNavigationEnabledI26wxDatePickerCtrlCommonBaseI24wxDateTimePickerCtrlBaseEEE18SetLayoutDirectionE17wxLayoutDirection' filepath='include/wx/compositewin.h' line='91' column='1' visibility='default' binding='global' size-in-bits='64'>
          <parameter type-id='type-id-121' is-artificial='yes'/>
          <parameter type-id='type-id-122'/>
          <return type-id='type-id-30'/>
        </function-decl>
      </member-function>
      <member-function access='public' vtable-offset='106'>
        <function-decl name='SetBackgroundColour' mangled-name='_ZN28wxCompositeWindowSettersOnlyI19wxNavigationEnabledI26wxDatePickerCtrlCommonBaseI24wxDateTimePickerCtrlBaseEEE19SetBackgroundColourERK8wxColour' filepath='include/wx/compositewin.h' line='61' column='1' visibility='default' binding='global' size-in-bits='64'>
          <parameter type-id='type-id-121' is-artificial='yes'/>
          <parameter type-id='type-id-123'/>
          <return type-id='type-id-3'/>
        </function-decl>
      </member-function>
      <member-function access='public' vtable-offset='107'>
        <function-decl name='SetForegroundColour' mangled-name='_ZN28wxCompositeWindowSettersOnlyI19wxNavigationEnabledI26wxDatePickerCtrlCommonBaseI24wxDateTimePickerCtrlBaseEEE19SetForegroundColourERK8wxColour' filepath='include/wx/compositewin.h' line='51' column='1' visibility='default' binding='global' size-in-bits='64'>
          <parameter type-id='type-id-121' is-artificial='yes'/>
          <parameter type-id='type-id-123'/>
          <return type-id='type-id-3'/>
        </function-decl>
      </member-function>
      <member-function access='public' vtable-offset='111'>
        <function-decl name='SetFont' mangled-name='_ZN28wxCompositeWindowSettersOnlyI19wxNavigationEnabledI26wxDatePickerCtrlCommonBaseI24wxDateTimePickerCtrlBaseEEE7SetFontERK6wxFont' filepath='include/wx/compositewin.h' line='71' column='1' visibility='default' binding='global' size-in-bits='64'>
          <parameter type-id='type-id-121' is-artificial='yes'/>
          <parameter type-id='type-id-124'/>
          <return type-id='type-id-3'/>
        </function-decl>
      </member-function>
      <member-function access='public' vtable-offset='112'>
        <function-decl name='SetCursor' mangled-name='_ZN28wxCompositeWindowSettersOnlyI19wxNavigationEnabledI26wxDatePickerCtrlCommonBaseI24wxDateTimePickerCtrlBaseEEE9SetCursorERK8wxCursor' filepath='include/wx/compositewin.h' line='81' column='1' visibility='default' binding='global' size-in-bits='64'>
          <parameter type-id='type-id-121' is-artificial='yes'/>
          <parameter type-id='type-id-125'/>
          <return type-id='type-id-3'/>
        </function-decl>
      </member-function>
      <member-function access='public' vtable-offset='182'>
        <function-decl name='DoSetToolTipText' mangled-name='_ZN28wxCompositeWindowSettersOnlyI19wxNavigationEnabledI26wxDatePickerCtrlCommonBaseI24wxDateTimePickerCtrlBaseEEE16DoSetToolTipTextERK8wxString' filepath='include/wx/compositewin.h' line='110' column='1' visibility='default' binding='global' size-in-bits='64'>
          <parameter type-id='type-id-121' is-artificial='yes'/>
          <parameter type-id='type-id-126'/>
          <return type-id='type-id-30'/>
        </function-decl>
      </member-function>
      <member-function access='public' vtable-offset='183'>
        <function-decl name='DoSetToolTip' mangled-name='_ZN28wxCompositeWindowSettersOnlyI19wxNavigationEnabledI26wxDatePickerCtrlCommonBaseI24wxDateTimePickerCtrlBaseEEE12DoSetToolTipEP9wxToolTip' filepath='include/wx/compositewin.h' line='120' column='1' visibility='default' binding='global' size-in-bits='64'>
          <parameter type-id='type-id-121' is-artificial='yes'/>
          <parameter type-id='type-id-127'/>
          <return type-id='type-id-30'/>
        </function-decl>
      </member-function>
      <member-function access='private' const='yes' vtable-offset='217'>
        <function-decl name='GetCompositeWindowParts' mangled-name='_ZNK28wxCompositeWindowSettersOnlyI19wxNavigationEnabledI26wxDatePickerCtrlCommonBaseI24wxDateTimePickerCtrlBaseEEE23GetCompositeWindowPartsEv' filepath='include/wx/compositewin.h' line='137' column='1' visibility='default' binding='global' size-in-bits='64'>
          <parameter type-id='type-id-128' is-artificial='yes'/>
          <return type-id='type-id-129'/>
        </function-decl>
      </member-function>
    </class-decl>
    <class-decl name='wxCompositeWindow&lt;wxNavigationEnabled&lt;wxDatePickerCtrlCommonBase&lt;wxDateTimePickerCtrlBase&gt; &gt; &gt;' size-in-bits='5952' visibility='default' filepath='include/wx/compositewin.h' line='163' column='1' id='type-id-130'>
      <base-class access='public' layout-offset-in-bits='0' type-id='type-id-119'/>
      <member-function access='public' vtable-offset='71'>
        <function-decl name='SetFocus' mangled-name='_ZN17wxCompositeWindowI19wxNavigationEnabledI26wxDatePickerCtrlCommonBaseI24wxDateTimePickerCtrlBaseEEE8SetFocusEv' filepath='include/wx/compositewin.h' line='166' column='1' visibility='default' binding='global' size-in-bits='64'>
          <parameter type-id='type-id-131' is-artificial='yes'/>
          <return type-id='type-id-30'/>
        </function-decl>
      </member-function>
    </class-decl>
    <class-decl name='wxNavigationEnabled&lt;wxDatePickerCtrlCommonBase&lt;wxDateTimePickerCtrlBase&gt; &gt;' size-in-bits='5952' visibility='default' filepath='include/wx/containr.h' line='189' column='1' id='type-id-120'>
      <base-class access='public' layout-offset-in-bits='0' type-id='type-id-132'/>
      <data-member access='protected' layout-offset-in-bits='5696'>
        <var-decl name='m_container' type-id='type-id-133' visibility='default' filepath='include/wx/containr.h' line='293' column='1'/>
      </data-member>
      <member-function access='public' vtable-offset='71'>
        <function-decl name='SetFocus' mangled-name='_ZN19wxNavigationEnabledI26wxDatePickerCtrlCommonBaseI24wxDateTimePickerCtrlBaseEE8SetFocusEv' filepath='include/wx/containr.h' line='250' column='1' visibility='default' binding='global' size-in-bits='64'>
          <parameter type-id='type-id-134' is-artificial='yes'/>
          <return type-id='type-id-30'/>
        </function-decl>
      </member-function>
      <member-function access='public' const='yes' vtable-offset='74'>
        <function-decl name='AcceptsFocus' mangled-name='_ZNK19wxNavigationEnabledI26wxDatePickerCtrlCommonBaseI24wxDateTimePickerCtrlBaseEE12AcceptsFocusEv' filepath='include/wx/containr.h' line='209' column='1' visibility='default' binding='global' size-in-bits='64'>
          <parameter type-id='type-id-135' is-artificial='yes'/>
          <return type-id='type-id-3'/>
        </function-decl>
      </member-function>
      <member-function access='public' const='yes' vtable-offset='75'>
        <function-decl name='AcceptsFocusRecursively' mangled-name='_ZNK19wxNavigationEnabledI26wxDatePickerCtrlCommonBaseI24wxDateTimePickerCtrlBaseEE23AcceptsFocusRecursivelyEv' filepath='include/wx/containr.h' line='214' column='1' visibility='default' binding='global' size-in-bits='64'>
          <parameter type-id='type-id-135' is-artificial='yes'/>
          <return type-id='type-id-3'/>
        </function-decl>
      </member-function>
      <member-function access='public' const='yes' vtable-offset='76'>
        <function-decl name='AcceptsFocusFromKeyboard' mangled-name='_ZNK19wxNavigationEnabledI26wxDatePickerCtrlCommonBaseI24wxDateTimePickerCtrlBaseEE24AcceptsFocusFromKeyboardEv' filepath='include/wx/containr.h' line='219' column='1' visibility='default' binding='global' size-in-bits='64'>
          <parameter type-id='type-id-135' is-artificial='yes'/>
          <return type-id='type-id-3'/>
        </function-decl>
      </member-function>
      <member-function access='public' vtable-offset='82'>
        <function-decl name='AddChild' mangled-name='_ZN19wxNavigationEnabledI26wxDatePickerCtrlCommonBaseI24wxDateTimePickerCtrlBaseEE8AddChildEP12wxWindowBase' filepath='include/wx/containr.h' line='224' column='1' visibility='default' binding='global' size-in-bits='64'>
          <parameter type-id='type-id-134' is-artificial='yes'/>
          <parameter type-id='type-id-136'/>
          <return type-id='type-id-30'/>
        </function-decl>
      </member-function>
      <member-function access='public' vtable-offset='83'>
        <function-decl name='RemoveChild' mangled-name='_ZN19wxNavigationEnabledI26wxDatePickerCtrlCommonBaseI24wxDateTimePickerCtrlBaseEE11RemoveChildEP12wxWindowBase' filepath='include/wx/containr.h' line='237' column='1' visibility='default' binding='global' size-in-bits='64'>
          <parameter type-id='type-id-134' is-artificial='yes'/>
          <parameter type-id='type-id-136'/>
          <return type-id='type-id-30'/>
        </function-decl>
      </member-function>
    </class-decl>
    <class-decl name='wxNavigationEnabled&lt;wxTopLevelWindow&gt;' size-in-bits='7616' visibility='default' filepath='include/wx/containr.h' line='189' column='1' id='type-id-137'>
      <base-class access='public' layout-offset-in-bits='0' type-id='type-id-138'/>
      <data-member access='protected' layout-offset-in-bits='7360'>
        <var-decl name='m_container' type-id='type-id-133' visibility='default' filepath='include/wx/containr.h' line='293' column='1'/>
      </data-member>
      <member-function access='public' vtable-offset='71'>
        <function-decl name='SetFocus' mangled-name='_ZN19wxNavigationEnabledI16wxTopLevelWindowE8SetFocusEv' filepath='include/wx/containr.h' line='250' column='1' visibility='default' binding='global' size-in-bits='64'>
          <parameter type-id='type-id-139' is-artificial='yes'/>
          <return type-id='type-id-30'/>
        </function-decl>
      </member-function>
      <member-function access='public' const='yes' vtable-offset='74'>
        <function-decl name='AcceptsFocus' mangled-name='_ZNK19wxNavigationEnabledI16wxTopLevelWindowE12AcceptsFocusEv' filepath='include/wx/containr.h' line='209' column='1' visibility='default' binding='global' size-in-bits='64'>
          <parameter type-id='type-id-140' is-artificial='yes'/>
          <return type-id='type-id-3'/>
        </function-decl>
      </member-function>
      <member-function access='public' const='yes' vtable-offset='75'>
        <function-decl name='AcceptsFocusRecursively' mangled-name='_ZNK19wxNavigationEnabledI16wxTopLevelWindowE23AcceptsFocusRecursivelyEv' filepath='include/wx/containr.h' line='214' column='1' visibility='default' binding='global' size-in-bits='64'>
          <parameter type-id='type-id-140' is-artificial='yes'/>
          <return type-id='type-id-3'/>
        </function-decl>
      </member-function>
      <member-function access='public' const='yes' vtable-offset='76'>
        <function-decl name='AcceptsFocusFromKeyboard' mangled-name='_ZNK19wxNavigationEnabledI16wxTopLevelWindowE24AcceptsFocusFromKeyboardEv' filepath='include/wx/containr.h' line='219' column='1' visibility='default' binding='global' size-in-bits='64'>
          <parameter type-id='type-id-140' is-artificial='yes'/>
          <return type-id='type-id-3'/>
        </function-decl>
      </member-function>
      <member-function access='public' vtable-offset='82'>
        <function-decl name='AddChild' mangled-name='_ZN19wxNavigationEnabledI16wxTopLevelWindowE8AddChildEP12wxWindowBase' filepath='include/wx/containr.h' line='224' column='1' visibility='default' binding='global' size-in-bits='64'>
          <parameter type-id='type-id-139' is-artificial='yes'/>
          <parameter type-id='type-id-136'/>
          <return type-id='type-id-30'/>
        </function-decl>
      </member-function>
      <member-function access='public' vtable-offset='83'>
        <function-decl name='RemoveChild' mangled-name='_ZN19wxNavigationEnabledI16wxTopLevelWindowE11RemoveChildEP12wxWindowBase' filepath='include/wx/containr.h' line='237' column='1' visibility='default' binding='global' size-in-bits='64'>
          <parameter type-id='type-id-139' is-artificial='yes'/>
          <parameter type-id='type-id-136'/>
          <return type-id='type-id-30'/>
        </function-decl>
      </member-function>
    </class-decl>
    <class-decl name='wxCursorBase' size-in-bits='128' visibility='default' filepath='include/wx/cursor.h' line='25' column='1' id='type-id-141'>
      <base-class access='public' layout-offset-in-bits='0' type-id='type-id-142'/>
      <member-function access='public' const='yes' vtable-offset='8'>
        <function-decl name='GetHotSpot' mangled-name='_ZNK12wxCursorBase10GetHotSpotEv' filepath='include/wx/cursor.h' line='42' column='1' visibility='default' binding='global' size-in-bits='64'>
          <parameter type-id='type-id-143' is-artificial='yes'/>
          <return type-id='type-id-144'/>
        </function-decl>
      </member-function>
    </class-decl>
    <class-decl name='wxDatePickerCtrlCommonBase&lt;wxDateTimePickerCtrlBase&gt;' size-in-bits='5696' visibility='default' filepath='include/wx/datectrl.h' line='50' column='1' id='type-id-132'>
      <base-class access='public' layout-offset-in-bits='0' type-id='type-id-145'/>
      <member-function access='public' vtable-offset='215'>
        <function-decl name='SetRange' mangled-name='_ZN26wxDatePickerCtrlCommonBaseI24wxDateTimePickerCtrlBaseE8SetRangeERK10wxDateTimeS4_' filepath='include/wx/datectrl.h' line='77' column='1' visibility='default' binding='global' size-in-bits='64'>
          <parameter type-id='type-id-146' is-artificial='yes'/>
          <parameter type-id='type-id-147'/>
          <parameter type-id='type-id-147'/>
          <return type-id='type-id-30'/>
        </function-decl>
      </member-function>
      <member-function access='public' const='yes' vtable-offset='216'>
        <function-decl name='GetRange' mangled-name='_ZNK26wxDatePickerCtrlCommonBaseI24wxDateTimePickerCtrlBaseE8GetRangeEP10wxDateTimeS3_' filepath='include/wx/datectrl.h' line='78' column='1' visibility='default' binding='global' size-in-bits='64'>
          <parameter type-id='type-id-148' is-artificial='yes'/>
          <parameter type-id='type-id-149'/>
          <parameter type-id='type-id-149'/>
          <return type-id='type-id-3'/>
        </function-decl>
      </member-function>
    </class-decl>
    <class-decl name='wxDateTime' size-in-bits='64' visibility='default' filepath='include/wx/datetime.h' line='128' column='1' id='type-id-150'>
      <member-type access='public'>
        <typedef-decl name='wxDateTime_t' type-id='type-id-28' filepath='include/wx/datetime.h' line='139' column='1' id='type-id-151'/>
      </member-type>
      <member-type access='public'>
        <enum-decl name='TZ' filepath='include/wx/datetime.h' line='145' column='1' id='type-id-152'>
          <underlying-type type-id='type-id-26'/>
          <enumerator name='Local' value='0'/>
          <enumerator name='GMT_12' value='1'/>
          <enumerator name='GMT_11' value='2'/>
          <enumerator name='GMT_10' value='3'/>
          <enumerator name='GMT_9' value='4'/>
          <enumerator name='GMT_8' value='5'/>
          <enumerator name='GMT_7' value='6'/>
          <enumerator name='GMT_6' value='7'/>
          <enumerator name='GMT_5' value='8'/>
          <enumerator name='GMT_4' value='9'/>
          <enumerator name='GMT_3' value='10'/>
          <enumerator name='GMT_2' value='11'/>
          <enumerator name='GMT_1' value='12'/>
          <enumerator name='GMT0' value='13'/>
          <enumerator name='GMT1' value='14'/>
          <enumerator name='GMT2' value='15'/>
          <enumerator name='GMT3' value='16'/>
          <enumerator name='GMT4' value='17'/>
          <enumerator name='GMT5' value='18'/>
          <enumerator name='GMT6' value='19'/>
          <enumerator name='GMT7' value='20'/>
          <enumerator name='GMT8' value='21'/>
          <enumerator name='GMT9' value='22'/>
          <enumerator name='GMT10' value='23'/>
          <enumerator name='GMT11' value='24'/>
          <enumerator name='GMT12' value='25'/>
          <enumerator name='GMT13' value='26'/>
          <enumerator name='WET' value='13'/>
          <enumerator name='WEST' value='14'/>
          <enumerator name='CET' value='14'/>
          <enumerator name='CEST' value='15'/>
          <enumerator name='EET' value='15'/>
          <enumerator name='EEST' value='16'/>
          <enumerator name='MSK' value='16'/>
          <enumerator name='MSD' value='17'/>
          <enumerator name='AST' value='9'/>
          <enumerator name='ADT' value='10'/>
          <enumerator name='EST' value='8'/>
          <enumerator name='EDT' value='9'/>
          <enumerator name='CST' value='7'/>
          <enumerator name='CDT' value='8'/>
          <enumerator name='MST' value='6'/>
          <enumerator name='MDT' value='7'/>
          <enumerator name='PST' value='5'/>
          <enumerator name='PDT' value='6'/>
          <enumerator name='HST' value='3'/>
          <enumerator name='AKST' value='4'/>
          <enumerator name='AKDT' value='5'/>
          <enumerator name='A_WST' value='21'/>
          <enumerator name='A_CST' value='27'/>
          <enumerator name='A_EST' value='23'/>
          <enumerator name='A_ESST' value='24'/>
          <enumerator name='NZST' value='25'/>
          <enumerator name='NZDT' value='26'/>
          <enumerator name='UTC' value='13'/>
        </enum-decl>
      </member-type>
      <member-type access='public'>
        <enum-decl name='Calendar' filepath='include/wx/datetime.h' line='212' column='1' id='type-id-153'>
          <underlying-type type-id='type-id-26'/>
          <enumerator name='Gregorian' value='0'/>
          <enumerator name='Julian' value='1'/>
        </enum-decl>
      </member-type>
      <member-type access='public'>
        <enum-decl name='Country' filepath='include/wx/datetime.h' line='226' column='1' id='type-id-154'>
          <underlying-type type-id='type-id-26'/>
          <enumerator name='Country_Unknown' value='0'/>
          <enumerator name='Country_Default' value='1'/>
          <enumerator name='Country_WesternEurope_Start' value='2'/>
          <enumerator name='Country_EEC' value='2'/>
          <enumerator name='France' value='3'/>
          <enumerator name='Germany' value='4'/>
          <enumerator name='UK' value='5'/>
          <enumerator name='Country_WesternEurope_End' value='5'/>
          <enumerator name='Russia' value='6'/>
          <enumerator name='USA' value='7'/>
        </enum-decl>
      </member-type>
      <member-type access='public'>
        <enum-decl name='Month' filepath='include/wx/datetime.h' line='248' column='1' id='type-id-155'>
          <underlying-type type-id='type-id-26'/>
          <enumerator name='Jan' value='0'/>
          <enumerator name='Feb' value='1'/>
          <enumerator name='Mar' value='2'/>
          <enumerator name='Apr' value='3'/>
          <enumerator name='May' value='4'/>
          <enumerator name='Jun' value='5'/>
          <enumerator name='Jul' value='6'/>
          <enumerator name='Aug' value='7'/>
          <enumerator name='Sep' value='8'/>
          <enumerator name='Oct' value='9'/>
          <enumerator name='Nov' value='10'/>
          <enumerator name='Dec' value='11'/>
          <enumerator name='Inv_Month' value='12'/>
        </enum-decl>
      </member-type>
      <member-type access='public'>
        <enum-decl name='WeekDay' filepath='include/wx/datetime.h' line='254' column='1' id='type-id-156'>
          <underlying-type type-id='type-id-26'/>
          <enumerator name='Sun' value='0'/>
          <enumerator name='Mon' value='1'/>
          <enumerator name='Tue' value='2'/>
          <enumerator name='Wed' value='3'/>
          <enumerator name='Thu' value='4'/>
          <enumerator name='Fri' value='5'/>
          <enumerator name='Sat' value='6'/>
          <enumerator name='Inv_WeekDay' value='7'/>
        </enum-decl>
      </member-type>
      <member-type access='public'>
        <enum-decl name='NameFlags' filepath='include/wx/datetime.h' line='266' column='1' id='type-id-157'>
          <underlying-type type-id='type-id-26'/>
          <enumerator name='Name_Full' value='1'/>
          <enumerator name='Name_Abbr' value='2'/>
        </enum-decl>
      </member-type>
      <member-type access='public'>
        <enum-decl name='WeekFlags' filepath='include/wx/datetime.h' line='273' column='1' id='type-id-158'>
          <underlying-type type-id='type-id-26'/>
          <enumerator name='Default_First' value='0'/>
          <enumerator name='Monday_First' value='1'/>
          <enumerator name='Sunday_First' value='2'/>
        </enum-decl>
      </member-type>
      <member-type access='public'>
        <class-decl name='TimeZone' size-in-bits='64' visibility='default' filepath='include/wx/datetime.h' line='294' column='1' id='type-id-159'>
          <data-member access='private' layout-offset-in-bits='0'>
            <var-decl name='m_offset' type-id='type-id-21' visibility='default' filepath='include/wx/datetime.h' line='315' column='1'/>
          </data-member>
        </class-decl>
      </member-type>
      <member-type access='public'>
        <class-decl name='Tm' size-in-bits='320' is-struct='yes' visibility='default' filepath='include/wx/datetime.h' line='325' column='1' id='type-id-160'>
          <data-member access='public' layout-offset-in-bits='0'>
            <var-decl name='msec' type-id='type-id-151' visibility='default' filepath='include/wx/datetime.h' line='327' column='1'/>
          </data-member>
          <data-member access='public' layout-offset-in-bits='16'>
            <var-decl name='sec' type-id='type-id-151' visibility='default' filepath='include/wx/datetime.h' line='327' column='1'/>
          </data-member>
          <data-member access='public' layout-offset-in-bits='32'>
            <var-decl name='min' type-id='type-id-151' visibility='default' filepath='include/wx/datetime.h' line='327' column='1'/>
          </data-member>
          <data-member access='public' layout-offset-in-bits='48'>
            <var-decl name='hour' type-id='type-id-151' visibility='default' filepath='include/wx/datetime.h' line='327' column='1'/>
          </data-member>
          <data-member access='public' layout-offset-in-bits='64'>
            <var-decl name='mday' type-id='type-id-151' visibility='default' filepath='include/wx/datetime.h' line='328' column='1'/>
          </data-member>
          <data-member access='public' layout-offset-in-bits='80'>
            <var-decl name='yday' type-id='type-id-151' visibility='default' filepath='include/wx/datetime.h' line='329' column='1'/>
          </data-member>
          <data-member access='public' layout-offset-in-bits='96'>
            <var-decl name='mon' type-id='type-id-155' visibility='default' filepath='include/wx/datetime.h' line='330' column='1'/>
          </data-member>
          <data-member access='public' layout-offset-in-bits='128'>
            <var-decl name='year' type-id='type-id-19' visibility='default' filepath='include/wx/datetime.h' line='331' column='1'/>
          </data-member>
          <data-member access='private' layout-offset-in-bits='192'>
            <var-decl name='m_tz' type-id='type-id-159' visibility='default' filepath='include/wx/datetime.h' line='362' column='1'/>
          </data-member>
          <data-member access='private' layout-offset-in-bits='256'>
            <var-decl name='wday' type-id='type-id-151' visibility='default' filepath='include/wx/datetime.h' line='367' column='1'/>
          </data-member>
        </class-decl>
      </member-type>
      <data-member access='private' layout-offset-in-bits='0'>
        <var-decl name='m_time' type-id='type-id-161' visibility='default' filepath='include/wx/datetime.h' line='1160' column='1'/>
      </data-member>
    </class-decl>
    <class-decl name='wxTimeSpan' size-in-bits='64' visibility='default' filepath='include/wx/datetime.h' line='1169' column='1' id='type-id-162'>
      <data-member access='private' layout-offset-in-bits='0'>
        <var-decl name='m_diff' type-id='type-id-161' visibility='default' filepath='include/wx/datetime.h' line='1357' column='1'/>
      </data-member>
    </class-decl>
    <class-decl name='wxDateSpan' size-in-bits='128' visibility='default' filepath='include/wx/datetime.h' line='1395' column='1' id='type-id-163'>
      <data-member access='private' layout-offset-in-bits='0'>
        <var-decl name='m_years' type-id='type-id-19' visibility='default' filepath='include/wx/datetime.h' line='1518' column='1'/>
      </data-member>
      <data-member access='private' layout-offset-in-bits='32'>
        <var-decl name='m_months' type-id='type-id-19' visibility='default' filepath='include/wx/datetime.h' line='1519' column='1'/>
      </data-member>
      <data-member access='private' layout-offset-in-bits='64'>
        <var-decl name='m_weeks' type-id='type-id-19' visibility='default' filepath='include/wx/datetime.h' line='1520' column='1'/>
      </data-member>
      <data-member access='private' layout-offset-in-bits='96'>
        <var-decl name='m_days' type-id='type-id-19' visibility='default' filepath='include/wx/datetime.h' line='1521' column='1'/>
      </data-member>
    </class-decl>
    <class-decl name='wxDateTimePickerCtrlBase' size-in-bits='5696' visibility='default' filepath='include/wx/datetimectrl.h' line='29' column='1' id='type-id-145'>
      <base-class access='public' layout-offset-in-bits='0' type-id='type-id-164'/>
      <member-function access='public' vtable-offset='212'>
        <function-decl name='SetValue' mangled-name='_ZN24wxDateTimePickerCtrlBase8SetValueERK10wxDateTime' filepath='include/wx/datetimectrl.h' line='33' column='1' visibility='default' binding='global' size-in-bits='64'>
          <parameter type-id='type-id-165' is-artificial='yes'/>
          <parameter type-id='type-id-147'/>
          <return type-id='type-id-30'/>
        </function-decl>
      </member-function>
      <member-function access='public' const='yes' vtable-offset='213'>
        <function-decl name='GetValue' mangled-name='_ZNK24wxDateTimePickerCtrlBase8GetValueEv' filepath='include/wx/datetimectrl.h' line='34' column='1' visibility='default' binding='global' size-in-bits='64'>
          <parameter type-id='type-id-166' is-artificial='yes'/>
          <return type-id='type-id-150'/>
        </function-decl>
      </member-function>
      <member-function access='public' vtable-offset='214'>
        <function-decl name='SetNullText' mangled-name='_ZN24wxDateTimePickerCtrlBase11SetNullTextERK8wxString' filepath='include/wx/datetimectrl.h' line='41' column='1' visibility='default' binding='global' size-in-bits='64'>
          <parameter type-id='type-id-165' is-artificial='yes'/>
          <parameter type-id='type-id-126'/>
          <return type-id='type-id-30'/>
        </function-decl>
      </member-function>
    </class-decl>
    <enum-decl name='wxBorder' filepath='include/wx/defs.h' line='1443' column='1' id='type-id-167'>
      <underlying-type type-id='type-id-26'/>
      <enumerator name='wxBORDER_DEFAULT' value='0'/>
      <enumerator name='wxBORDER_NONE' value='2097152'/>
      <enumerator name='wxBORDER_STATIC' value='16777216'/>
      <enumerator name='wxBORDER_SIMPLE' value='33554432'/>
      <enumerator name='wxBORDER_RAISED' value='67108864'/>
      <enumerator name='wxBORDER_SUNKEN' value='134217728'/>
      <enumerator name='wxBORDER_DOUBLE' value='268435456'/>
      <enumerator name='wxBORDER_THEME' value='268435456'/>
      <enumerator name='wxBORDER_MASK' value='522190848'/>
    </enum-decl>
    <enum-decl name='wxBackgroundStyle' filepath='include/wx/defs.h' line='1816' column='1' id='type-id-168'>
      <underlying-type type-id='type-id-26'/>
      <enumerator name='wxBG_STYLE_ERASE' value='0'/>
      <enumerator name='wxBG_STYLE_SYSTEM' value='1'/>
      <enumerator name='wxBG_STYLE_PAINT' value='2'/>
      <enumerator name='wxBG_STYLE_TRANSPARENT' value='3'/>
      <enumerator name='wxBG_STYLE_COLOUR' value='4'/>
      <enumerator name='wxBG_STYLE_CUSTOM' value='2'/>
    </enum-decl>
    <enum-decl name='wxKeyType' filepath='include/wx/defs.h' line='1857' column='1' id='type-id-169'>
      <underlying-type type-id='type-id-26'/>
      <enumerator name='wxKEY_NONE' value='0'/>
      <enumerator name='wxKEY_INTEGER' value='1'/>
      <enumerator name='wxKEY_STRING' value='2'/>
    </enum-decl>
    <typedef-decl name='wxWindowID' type-id='type-id-19' filepath='include/wx/defs.h' line='2069' column='1' id='type-id-170'/>
    <enum-decl name='wxHitTest' filepath='include/wx/defs.h' line='2099' column='1' id='type-id-171'>
      <underlying-type type-id='type-id-26'/>
      <enumerator name='wxHT_NOWHERE' value='0'/>
      <enumerator name='wxHT_SCROLLBAR_FIRST' value='0'/>
      <enumerator name='wxHT_SCROLLBAR_ARROW_LINE_1' value='1'/>
      <enumerator name='wxHT_SCROLLBAR_ARROW_LINE_2' value='2'/>
      <enumerator name='wxHT_SCROLLBAR_ARROW_PAGE_1' value='3'/>
      <enumerator name='wxHT_SCROLLBAR_ARROW_PAGE_2' value='4'/>
      <enumerator name='wxHT_SCROLLBAR_THUMB' value='5'/>
      <enumerator name='wxHT_SCROLLBAR_BAR_1' value='6'/>
      <enumerator name='wxHT_SCROLLBAR_BAR_2' value='7'/>
      <enumerator name='wxHT_SCROLLBAR_LAST' value='8'/>
      <enumerator name='wxHT_WINDOW_OUTSIDE' value='9'/>
      <enumerator name='wxHT_WINDOW_INSIDE' value='10'/>
      <enumerator name='wxHT_WINDOW_VERT_SCROLLBAR' value='11'/>
      <enumerator name='wxHT_WINDOW_HORZ_SCROLLBAR' value='12'/>
      <enumerator name='wxHT_WINDOW_CORNER' value='13'/>
      <enumerator name='wxHT_MAX' value='14'/>
    </enum-decl>
    <typedef-decl name='wxSortCompareFunction' type-id='type-id-172' filepath='include/wx/defs.h' line='2687' column='1' id='type-id-173'/>
    <typedef-decl name='GdkWindow' type-id='type-id-174' filepath='include/wx/defs.h' line='3091' column='1' id='type-id-175'/>
    <typedef-decl name='GtkWidget' type-id='type-id-176' filepath='include/wx/defs.h' line='3103' column='1' id='type-id-177'/>
    <typedef-decl name='GtkRcStyle' type-id='type-id-178' filepath='include/wx/defs.h' line='3104' column='1' id='type-id-179'/>
    <typedef-decl name='WXWidget' type-id='type-id-180' filepath='include/wx/defs.h' line='3115' column='1' id='type-id-181'/>
    <enum-decl name='wxDialogModality' filepath='include/wx/dialog.h' line='55' column='1' id='type-id-182'>
      <underlying-type type-id='type-id-26'/>
      <enumerator name='wxDIALOG_MODALITY_NONE' value='0'/>
      <enumerator name='wxDIALOG_MODALITY_WINDOW_MODAL' value='1'/>
      <enumerator name='wxDIALOG_MODALITY_APP_MODAL' value='2'/>
    </enum-decl>
    <class-decl name='wxArray_SortFunction&lt;_GdkWindow*&gt;' size-in-bits='64' visibility='default' filepath='include/wx/dynarray.h' line='53' column='1' id='type-id-183'>
      <member-type access='public'>
        <typedef-decl name='CMPFUNC' type-id='type-id-185' filepath='include/wx/dynarray.h' line='56' column='1' id='type-id-184'/>
      </member-type>
      <data-member access='private' layout-offset-in-bits='0'>
        <var-decl name='m_f' type-id='type-id-184' visibility='default' filepath='include/wx/dynarray.h' line='62' column='1'/>
      </data-member>
    </class-decl>
    <class-decl name='wxArray_SortFunction&lt;const wxEventTableEntry*&gt;' size-in-bits='64' visibility='default' filepath='include/wx/dynarray.h' line='53' column='1' id='type-id-186'>
      <member-type access='public'>
        <typedef-decl name='CMPFUNC' type-id='type-id-188' filepath='include/wx/dynarray.h' line='56' column='1' id='type-id-187'/>
      </member-type>
      <data-member access='private' layout-offset-in-bits='0'>
        <var-decl name='m_f' type-id='type-id-187' visibility='default' filepath='include/wx/dynarray.h' line='62' column='1'/>
      </data-member>
    </class-decl>
    <class-decl name='wxArray_SortFunction&lt;int&gt;' size-in-bits='64' visibility='default' filepath='include/wx/dynarray.h' line='53' column='1' id='type-id-189'>
      <member-type access='public'>
        <typedef-decl name='CMPFUNC' type-id='type-id-191' filepath='include/wx/dynarray.h' line='56' column='1' id='type-id-190'/>
      </member-type>
      <data-member access='private' layout-offset-in-bits='0'>
        <var-decl name='m_f' type-id='type-id-190' visibility='default' filepath='include/wx/dynarray.h' line='62' column='1'/>
      </data-member>
    </class-decl>
    <class-decl name='wxSortedArray_SortFunction&lt;_GdkWindow*&gt;' size-in-bits='64' visibility='default' filepath='include/wx/dynarray.h' line='66' column='1' id='type-id-192'>
      <member-type access='public'>
        <typedef-decl name='CMPFUNC' type-id='type-id-194' filepath='include/wx/dynarray.h' line='69' column='1' id='type-id-193'/>
      </member-type>
      <data-member access='private' layout-offset-in-bits='0'>
        <var-decl name='m_f' type-id='type-id-193' visibility='default' filepath='include/wx/dynarray.h' line='75' column='1'/>
      </data-member>
    </class-decl>
    <class-decl name='wxSortedArray_SortFunction&lt;const wxEventTableEntry*&gt;' size-in-bits='64' visibility='default' filepath='include/wx/dynarray.h' line='66' column='1' id='type-id-195'>
      <member-type access='public'>
        <typedef-decl name='CMPFUNC' type-id='type-id-197' filepath='include/wx/dynarray.h' line='69' column='1' id='type-id-196'/>
      </member-type>
      <data-member access='private' layout-offset-in-bits='0'>
        <var-decl name='m_f' type-id='type-id-196' visibility='default' filepath='include/wx/dynarray.h' line='75' column='1'/>
      </data-member>
    </class-decl>
    <class-decl name='wxSortedArray_SortFunction&lt;int&gt;' size-in-bits='64' visibility='default' filepath='include/wx/dynarray.h' line='66' column='1' id='type-id-198'>
      <member-type access='public'>
        <typedef-decl name='CMPFUNC' type-id='type-id-200' filepath='include/wx/dynarray.h' line='69' column='1' id='type-id-199'/>
      </member-type>
      <data-member access='private' layout-offset-in-bits='0'>
        <var-decl name='m_f' type-id='type-id-199' visibility='default' filepath='include/wx/dynarray.h' line='75' column='1'/>
      </data-member>
    </class-decl>
    <class-decl name='wxBaseArray&lt;_GdkWindow*, wxSortedArray_SortFunction&lt;_GdkWindow*&gt; &gt;' size-in-bits='192' visibility='default' filepath='include/wx/dynarray.h' line='79' column='1' id='type-id-201'>
      <base-class access='public' layout-offset-in-bits='0' type-id='type-id-202'/>
      <member-type access='public'>
        <typedef-decl name='SCMPFUNC' type-id='type-id-193' filepath='include/wx/dynarray.h' line='82' column='1' id='type-id-203'/>
      </member-type>
      <member-type access='public'>
        <typedef-decl name='CMPFUNC' type-id='type-id-184' filepath='include/wx/dynarray.h' line='83' column='1' id='type-id-204'/>
      </member-type>
      <member-type access='public'>
        <typedef-decl name='const_reference' type-id='type-id-206' filepath='include/wx/dynarray.h' line='89' column='1' id='type-id-205'/>
      </member-type>
    </class-decl>
    <class-decl name='wxBaseArray&lt;const wxEventTableEntry*, wxSortedArray_SortFunction&lt;const wxEventTableEntry*&gt; &gt;' size-in-bits='192' visibility='default' filepath='include/wx/dynarray.h' line='79' column='1' id='type-id-207'>
      <base-class access='public' layout-offset-in-bits='0' type-id='type-id-208'/>
      <member-type access='public'>
        <typedef-decl name='SCMPFUNC' type-id='type-id-196' filepath='include/wx/dynarray.h' line='82' column='1' id='type-id-209'/>
      </member-type>
      <member-type access='public'>
        <typedef-decl name='CMPFUNC' type-id='type-id-187' filepath='include/wx/dynarray.h' line='83' column='1' id='type-id-210'/>
      </member-type>
      <member-type access='public'>
        <typedef-decl name='const_reference' type-id='type-id-212' filepath='include/wx/dynarray.h' line='89' column='1' id='type-id-211'/>
      </member-type>
    </class-decl>
    <class-decl name='wxBaseArray&lt;int, wxSortedArray_SortFunction&lt;int&gt; &gt;' size-in-bits='192' visibility='default' filepath='include/wx/dynarray.h' line='79' column='1' id='type-id-213'>
      <base-class access='public' layout-offset-in-bits='0' type-id='type-id-214'/>
      <member-type access='public'>
        <typedef-decl name='SCMPFUNC' type-id='type-id-199' filepath='include/wx/dynarray.h' line='82' column='1' id='type-id-215'/>
      </member-type>
      <member-type access='public'>
        <typedef-decl name='CMPFUNC' type-id='type-id-190' filepath='include/wx/dynarray.h' line='83' column='1' id='type-id-216'/>
      </member-type>
      <member-type access='public'>
        <typedef-decl name='const_reference' type-id='type-id-218' filepath='include/wx/dynarray.h' line='89' column='1' id='type-id-217'/>
      </member-type>
    </class-decl>
    <class-decl name='wxArrayInt' size-in-bits='192' visibility='default' filepath='include/wx/dynarray.h' line='858' column='1' id='type-id-219'>
      <base-class access='public' layout-offset-in-bits='0' type-id='type-id-213'/>
    </class-decl>
    <typedef-decl name='wxEventType' type-id='type-id-19' filepath='include/wx/event.h' line='77' column='1' id='type-id-220'/>
    <class-decl name='wxEventTypeTag&lt;wxCommandEvent&gt;' size-in-bits='32' visibility='default' filepath='include/wx/event.h' line='202' column='1' id='type-id-221'>
      <data-member access='private' layout-offset-in-bits='0'>
        <var-decl name='m_type' type-id='type-id-220' visibility='default' filepath='include/wx/event.h' line='216' column='1'/>
      </data-member>
    </class-decl>
    <class-decl name='wxEventTypeTag&lt;wxDateEvent&gt;' size-in-bits='32' visibility='default' filepath='include/wx/event.h' line='202' column='1' id='type-id-222'>
      <data-member access='private' layout-offset-in-bits='0'>
        <var-decl name='m_type' type-id='type-id-220' visibility='default' filepath='include/wx/event.h' line='216' column='1'/>
      </data-member>
    </class-decl>
    <class-decl name='wxEventTypeTag&lt;wxFocusEvent&gt;' size-in-bits='32' visibility='default' filepath='include/wx/event.h' line='202' column='1' id='type-id-223'>
      <data-member access='private' layout-offset-in-bits='0'>
        <var-decl name='m_type' type-id='type-id-220' visibility='default' filepath='include/wx/event.h' line='216' column='1'/>
      </data-member>
    </class-decl>
    <class-decl name='wxEventTypeTag&lt;wxKeyEvent&gt;' size-in-bits='32' visibility='default' filepath='include/wx/event.h' line='202' column='1' id='type-id-224'>
      <data-member access='private' layout-offset-in-bits='0'>
        <var-decl name='m_type' type-id='type-id-220' visibility='default' filepath='include/wx/event.h' line='216' column='1'/>
      </data-member>
    </class-decl>
    <class-decl name='wxEventTypeTag&lt;wxScrollEvent&gt;' size-in-bits='32' visibility='default' filepath='include/wx/event.h' line='202' column='1' id='type-id-225'>
      <data-member access='private' layout-offset-in-bits='0'>
        <var-decl name='m_type' type-id='type-id-220' visibility='default' filepath='include/wx/event.h' line='216' column='1'/>
      </data-member>
    </class-decl>
    <class-decl name='wxEventTypeTag&lt;wxWindowCreateEvent&gt;' size-in-bits='32' visibility='default' filepath='include/wx/event.h' line='202' column='1' id='type-id-226'>
      <data-member access='private' layout-offset-in-bits='0'>
        <var-decl name='m_type' type-id='type-id-220' visibility='default' filepath='include/wx/event.h' line='216' column='1'/>
      </data-member>
    </class-decl>
    <class-decl name='wxObjectEventFunctor' size-in-bits='256' visibility='default' filepath='include/wx/event.h' line='258' column='1' id='type-id-227'>
      <base-class access='public' layout-offset-in-bits='0' type-id='type-id-228'/>
      <data-member access='private' layout-offset-in-bits='64'>
        <var-decl name='m_handler' type-id='type-id-229' visibility='default' filepath='include/wx/event.h' line='288' column='1'/>
      </data-member>
      <member-function access='public' vtable-offset='2'>
        <function-decl name='operator()' mangled-name='_ZN20wxObjectEventFunctorclEP12wxEvtHandlerR7wxEvent' filepath='include/wx/event.h' line='4105' column='1' visibility='default' binding='global' size-in-bits='64'>
          <parameter type-id='type-id-230' is-artificial='yes'/>
          <parameter type-id='type-id-229'/>
          <parameter type-id='type-id-231'/>
          <return type-id='type-id-30'/>
        </function-decl>
      </member-function>
      <member-function access='public' const='yes' vtable-offset='3'>
        <function-decl name='IsMatching' mangled-name='_ZNK20wxObjectEventFunctor10IsMatchingERK14wxEventFunctor' filepath='include/wx/event.h' line='267' column='1' visibility='default' binding='global' size-in-bits='64'>
          <parameter type-id='type-id-232' is-artificial='yes'/>
          <parameter type-id='type-id-233'/>
          <return type-id='type-id-3'/>
        </function-decl>
      </member-function>
      <member-function access='public' const='yes' vtable-offset='4'>
        <function-decl name='GetEvtHandler' mangled-name='_ZNK20wxObjectEventFunctor13GetEvtHandlerEv' filepath='include/wx/event.h' line='281' column='1' visibility='default' binding='global' size-in-bits='64'>
          <parameter type-id='type-id-232' is-artificial='yes'/>
          <return type-id='type-id-229'/>
        </function-decl>
      </member-function>
      <member-function access='public' const='yes' vtable-offset='5'>
        <function-decl name='GetEvtMethod' mangled-name='_ZNK20wxObjectEventFunctor12GetEvtMethodEv' filepath='include/wx/event.h' line='284' column='1' visibility='default' binding='global' size-in-bits='64'>
          <parameter type-id='type-id-232' is-artificial='yes'/>
          <return type-id='type-id-30'/>
        </function-decl>
      </member-function>
    </class-decl>
    <class-decl name='wxEventFunctorMethod&lt;wxEventTypeTag&lt;wxFocusEvent&gt;, wxCompositeWindow&lt;wxNavigationEnabled&lt;wxDatePickerCtrlCommonBase&lt;wxDateTimePickerCtrlBase&gt; &gt; &gt;, wxFocusEvent, wxCompositeWindow&lt;wxNavigationEnabled&lt;wxDatePickerCtrlCommonBase&lt;wxDateTimePickerCtrlBase&gt; &gt; &gt; &gt;' size-in-bits='256' visibility='default' filepath='include/wx/event.h' line='392' column='1' id='type-id-234'>
      <base-class access='public' layout-offset-in-bits='0' type-id='type-id-228'/>
      <base-class access='private' layout-offset-in-bits='0' type-id='type-id-235'/>
      <data-member access='private' layout-offset-in-bits='64'>
        <var-decl name='m_handler' type-id='type-id-131' visibility='default' filepath='include/wx/event.h' line='461' column='1'/>
      </data-member>
      <member-function access='public' vtable-offset='2'>
        <function-decl name='operator()' mangled-name='_ZN20wxEventFunctorMethodI14wxEventTypeTagI12wxFocusEventE17wxCompositeWindowI19wxNavigationEnabledI26wxDatePickerCtrlCommonBaseI24wxDateTimePickerCtrlBaseEEES1_S9_EclEP12wxEvtHandlerR7wxEvent' filepath='include/wx/event.h' line='422' column='1' visibility='default' binding='global' size-in-bits='64'>
          <parameter type-id='type-id-236' is-artificial='yes'/>
          <parameter type-id='type-id-229'/>
          <parameter type-id='type-id-231'/>
          <return type-id='type-id-30'/>
        </function-decl>
      </member-function>
      <member-function access='public' const='yes' vtable-offset='3'>
        <function-decl name='IsMatching' mangled-name='_ZNK20wxEventFunctorMethodI14wxEventTypeTagI12wxFocusEventE17wxCompositeWindowI19wxNavigationEnabledI26wxDatePickerCtrlCommonBaseI24wxDateTimePickerCtrlBaseEEES1_S9_E10IsMatchingERK14wxEventFunctor' filepath='include/wx/event.h' line='439' column='1' visibility='default' binding='global' size-in-bits='64'>
          <parameter type-id='type-id-237' is-artificial='yes'/>
          <parameter type-id='type-id-233'/>
          <return type-id='type-id-3'/>
        </function-decl>
      </member-function>
      <member-function access='public' const='yes' vtable-offset='4'>
        <function-decl name='GetEvtHandler' mangled-name='_ZNK20wxEventFunctorMethodI14wxEventTypeTagI12wxFocusEventE17wxCompositeWindowI19wxNavigationEnabledI26wxDatePickerCtrlCommonBaseI24wxDateTimePickerCtrlBaseEEES1_S9_E13GetEvtHandlerEv' filepath='include/wx/event.h' line='454' column='1' visibility='default' binding='global' size-in-bits='64'>
          <parameter type-id='type-id-237' is-artificial='yes'/>
          <return type-id='type-id-229'/>
        </function-decl>
      </member-function>
      <member-function access='public' const='yes' vtable-offset='5'>
        <function-decl name='GetEvtMethod' mangled-name='_ZNK20wxEventFunctorMethodI14wxEventTypeTagI12wxFocusEventE17wxCompositeWindowI19wxNavigationEnabledI26wxDatePickerCtrlCommonBaseI24wxDateTimePickerCtrlBaseEEES1_S9_E12GetEvtMethodEv' filepath='include/wx/event.h' line='457' column='1' visibility='default' binding='global' size-in-bits='64'>
          <parameter type-id='type-id-237' is-artificial='yes'/>
          <return type-id='type-id-30'/>
        </function-decl>
      </member-function>
    </class-decl>
    <class-decl name='wxEventFunctorMethod&lt;wxEventTypeTag&lt;wxKeyEvent&gt;, wxCompositeWindow&lt;wxNavigationEnabled&lt;wxDatePickerCtrlCommonBase&lt;wxDateTimePickerCtrlBase&gt; &gt; &gt;, wxKeyEvent, wxCompositeWindow&lt;wxNavigationEnabled&lt;wxDatePickerCtrlCommonBase&lt;wxDateTimePickerCtrlBase&gt; &gt; &gt; &gt;' size-in-bits='256' visibility='default' filepath='include/wx/event.h' line='392' column='1' id='type-id-238'>
      <base-class access='public' layout-offset-in-bits='0' type-id='type-id-228'/>
      <base-class access='private' layout-offset-in-bits='0' type-id='type-id-239'/>
      <data-member access='private' layout-offset-in-bits='64'>
        <var-decl name='m_handler' type-id='type-id-131' visibility='default' filepath='include/wx/event.h' line='461' column='1'/>
      </data-member>
      <member-function access='public' vtable-offset='2'>
        <function-decl name='operator()' mangled-name='_ZN20wxEventFunctorMethodI14wxEventTypeTagI10wxKeyEventE17wxCompositeWindowI19wxNavigationEnabledI26wxDatePickerCtrlCommonBaseI24wxDateTimePickerCtrlBaseEEES1_S9_EclEP12wxEvtHandlerR7wxEvent' filepath='include/wx/event.h' line='422' column='1' visibility='default' binding='global' size-in-bits='64'>
          <parameter type-id='type-id-240' is-artificial='yes'/>
          <parameter type-id='type-id-229'/>
          <parameter type-id='type-id-231'/>
          <return type-id='type-id-30'/>
        </function-decl>
      </member-function>
      <member-function access='public' const='yes' vtable-offset='3'>
        <function-decl name='IsMatching' mangled-name='_ZNK20wxEventFunctorMethodI14wxEventTypeTagI10wxKeyEventE17wxCompositeWindowI19wxNavigationEnabledI26wxDatePickerCtrlCommonBaseI24wxDateTimePickerCtrlBaseEEES1_S9_E10IsMatchingERK14wxEventFunctor' filepath='include/wx/event.h' line='439' column='1' visibility='default' binding='global' size-in-bits='64'>
          <parameter type-id='type-id-241' is-artificial='yes'/>
          <parameter type-id='type-id-233'/>
          <return type-id='type-id-3'/>
        </function-decl>
      </member-function>
      <member-function access='public' const='yes' vtable-offset='4'>
        <function-decl name='GetEvtHandler' mangled-name='_ZNK20wxEventFunctorMethodI14wxEventTypeTagI10wxKeyEventE17wxCompositeWindowI19wxNavigationEnabledI26wxDatePickerCtrlCommonBaseI24wxDateTimePickerCtrlBaseEEES1_S9_E13GetEvtHandlerEv' filepath='include/wx/event.h' line='454' column='1' visibility='default' binding='global' size-in-bits='64'>
          <parameter type-id='type-id-241' is-artificial='yes'/>
          <return type-id='type-id-229'/>
        </function-decl>
      </member-function>
      <member-function access='public' const='yes' vtable-offset='5'>
        <function-decl name='GetEvtMethod' mangled-name='_ZNK20wxEventFunctorMethodI14wxEventTypeTagI10wxKeyEventE17wxCompositeWindowI19wxNavigationEnabledI26wxDatePickerCtrlCommonBaseI24wxDateTimePickerCtrlBaseEEES1_S9_E12GetEvtMethodEv' filepath='include/wx/event.h' line='457' column='1' visibility='default' binding='global' size-in-bits='64'>
          <parameter type-id='type-id-241' is-artificial='yes'/>
          <return type-id='type-id-30'/>
        </function-decl>
      </member-function>
    </class-decl>
    <class-decl name='wxEventFunctorMethod&lt;wxEventTypeTag&lt;wxWindowCreateEvent&gt;, wxCompositeWindow&lt;wxNavigationEnabled&lt;wxDatePickerCtrlCommonBase&lt;wxDateTimePickerCtrlBase&gt; &gt; &gt;, wxWindowCreateEvent, wxCompositeWindow&lt;wxNavigationEnabled&lt;wxDatePickerCtrlCommonBase&lt;wxDateTimePickerCtrlBase&gt; &gt; &gt; &gt;' size-in-bits='256' visibility='default' filepath='include/wx/event.h' line='392' column='1' id='type-id-242'>
      <base-class access='public' layout-offset-in-bits='0' type-id='type-id-228'/>
      <base-class access='private' layout-offset-in-bits='0' type-id='type-id-243'/>
      <data-member access='private' layout-offset-in-bits='64'>
        <var-decl name='m_handler' type-id='type-id-131' visibility='default' filepath='include/wx/event.h' line='461' column='1'/>
      </data-member>
      <member-function access='public' vtable-offset='2'>
        <function-decl name='operator()' mangled-name='_ZN20wxEventFunctorMethodI14wxEventTypeTagI19wxWindowCreateEventE17wxCompositeWindowI19wxNavigationEnabledI26wxDatePickerCtrlCommonBaseI24wxDateTimePickerCtrlBaseEEES1_S9_EclEP12wxEvtHandlerR7wxEvent' filepath='include/wx/event.h' line='422' column='1' visibility='default' binding='global' size-in-bits='64'>
          <parameter type-id='type-id-244' is-artificial='yes'/>
          <parameter type-id='type-id-229'/>
          <parameter type-id='type-id-231'/>
          <return type-id='type-id-30'/>
        </function-decl>
      </member-function>
      <member-function access='public' const='yes' vtable-offset='3'>
        <function-decl name='IsMatching' mangled-name='_ZNK20wxEventFunctorMethodI14wxEventTypeTagI19wxWindowCreateEventE17wxCompositeWindowI19wxNavigationEnabledI26wxDatePickerCtrlCommonBaseI24wxDateTimePickerCtrlBaseEEES1_S9_E10IsMatchingERK14wxEventFunctor' filepath='include/wx/event.h' line='439' column='1' visibility='default' binding='global' size-in-bits='64'>
          <parameter type-id='type-id-245' is-artificial='yes'/>
          <parameter type-id='type-id-233'/>
          <return type-id='type-id-3'/>
        </function-decl>
      </member-function>
      <member-function access='public' const='yes' vtable-offset='4'>
        <function-decl name='GetEvtHandler' mangled-name='_ZNK20wxEventFunctorMethodI14wxEventTypeTagI19wxWindowCreateEventE17wxCompositeWindowI19wxNavigationEnabledI26wxDatePickerCtrlCommonBaseI24wxDateTimePickerCtrlBaseEEES1_S9_E13GetEvtHandlerEv' filepath='include/wx/event.h' line='454' column='1' visibility='default' binding='global' size-in-bits='64'>
          <parameter type-id='type-id-245' is-artificial='yes'/>
          <return type-id='type-id-229'/>
        </function-decl>
      </member-function>
      <member-function access='public' const='yes' vtable-offset='5'>
        <function-decl name='GetEvtMethod' mangled-name='_ZNK20wxEventFunctorMethodI14wxEventTypeTagI19wxWindowCreateEventE17wxCompositeWindowI19wxNavigationEnabledI26wxDatePickerCtrlCommonBaseI24wxDateTimePickerCtrlBaseEEES1_S9_E12GetEvtMethodEv' filepath='include/wx/event.h' line='457' column='1' visibility='default' binding='global' size-in-bits='64'>
          <parameter type-id='type-id-245' is-artificial='yes'/>
          <return type-id='type-id-30'/>
        </function-decl>
      </member-function>
    </class-decl>
    <enum-decl name='wxEventCategory' filepath='include/wx/event.h' line='911' column='1' id='type-id-246'>
      <underlying-type type-id='type-id-26'/>
      <enumerator name='wxEVT_CATEGORY_UI' value='1'/>
      <enumerator name='wxEVT_CATEGORY_USER_INPUT' value='2'/>
      <enumerator name='wxEVT_CATEGORY_SOCKET' value='4'/>
      <enumerator name='wxEVT_CATEGORY_TIMER' value='8'/>
      <enumerator name='wxEVT_CATEGORY_THREAD' value='16'/>
      <enumerator name='wxEVT_CATEGORY_UNKNOWN' value='32'/>
      <enumerator name='wxEVT_CATEGORY_CLIPBOARD' value='64'/>
      <enumerator name='wxEVT_CATEGORY_NATIVE_EVENTS' value='3'/>
      <enumerator name='wxEVT_CATEGORY_ALL' value='127'/>
    </enum-decl>
    <class-decl name='wxEventObjectOriginSetter' size-in-bits='192' visibility='default' filepath='include/wx/event.h' line='1203' column='1' id='type-id-247'>
      <data-member access='private' layout-offset-in-bits='0'>
        <var-decl name='m_event' type-id='type-id-231' visibility='default' filepath='include/wx/event.h' line='1222' column='1'/>
      </data-member>
      <data-member access='private' layout-offset-in-bits='64'>
        <var-decl name='m_sourceOrig' type-id='type-id-248' visibility='default' filepath='include/wx/event.h' line='1223' column='1'/>
      </data-member>
      <data-member access='private' layout-offset-in-bits='128'>
        <var-decl name='m_idOrig' type-id='type-id-249' visibility='default' filepath='include/wx/event.h' line='1224' column='1'/>
      </data-member>
    </class-decl>
    <class-decl name='wxEventTableEntryBase' size-in-bits='192' is-struct='yes' visibility='default' filepath='include/wx/event.h' line='3469' column='1' id='type-id-250'>
      <data-member access='public' layout-offset-in-bits='0'>
        <var-decl name='m_id' type-id='type-id-19' visibility='default' filepath='include/wx/event.h' line='3504' column='1'/>
      </data-member>
      <data-member access='public' layout-offset-in-bits='32'>
        <var-decl name='m_lastId' type-id='type-id-19' visibility='default' filepath='include/wx/event.h' line='3505' column='1'/>
      </data-member>
      <data-member access='public' layout-offset-in-bits='64'>
        <var-decl name='m_fn' type-id='type-id-251' visibility='default' filepath='include/wx/event.h' line='3508' column='1'/>
      </data-member>
      <data-member access='public' layout-offset-in-bits='128'>
        <var-decl name='m_callbackUserData' type-id='type-id-252' visibility='default' filepath='include/wx/event.h' line='3511' column='1'/>
      </data-member>
    </class-decl>
    <class-decl name='wxEventTableEntry' size-in-bits='256' is-struct='yes' visibility='default' filepath='include/wx/event.h' line='3518' column='1' id='type-id-253'>
      <base-class access='public' layout-offset-in-bits='0' type-id='type-id-250'/>
      <data-member access='public' layout-offset-in-bits='192'>
        <var-decl name='m_eventType' type-id='type-id-254' visibility='default' filepath='include/wx/event.h' line='3532' column='1'/>
      </data-member>
    </class-decl>
    <class-decl name='wxDynamicEventTableEntry' size-in-bits='256' is-struct='yes' visibility='default' filepath='include/wx/event.h' line='3539' column='1' id='type-id-255'>
      <base-class access='public' layout-offset-in-bits='0' type-id='type-id-250'/>
      <data-member access='public' layout-offset-in-bits='192'>
        <var-decl name='m_eventType' type-id='type-id-19' visibility='default' filepath='include/wx/event.h' line='3550' column='1'/>
      </data-member>
    </class-decl>
    <class-decl name='wxEventTable' size-in-bits='128' is-struct='yes' visibility='default' filepath='include/wx/event.h' line='3560' column='1' id='type-id-256'>
      <data-member access='public' layout-offset-in-bits='0'>
        <var-decl name='baseTable' type-id='type-id-257' visibility='default' filepath='include/wx/event.h' line='3562' column='1'/>
      </data-member>
      <data-member access='public' layout-offset-in-bits='64'>
        <var-decl name='entries' type-id='type-id-258' visibility='default' filepath='include/wx/event.h' line='3563' column='1'/>
      </data-member>
    </class-decl>
    <class-decl name='wxEventTableEntryPointerArray' size-in-bits='192' visibility='default' filepath='include/wx/event.h' line='3570' column='1' id='type-id-259'>
      <base-class access='public' layout-offset-in-bits='0' type-id='type-id-207'/>
    </class-decl>
    <class-decl name='wxEventHashTable' size-in-bits='384' visibility='default' filepath='include/wx/event.h' line='3572' column='1' id='type-id-260'>
      <member-type access='private'>
        <class-decl name='EventTypeTable' size-in-bits='256' is-struct='yes' visibility='default' filepath='include/wx/event.h' line='3576' column='1' id='type-id-261'>
          <data-member access='public' layout-offset-in-bits='0'>
            <var-decl name='eventType' type-id='type-id-220' visibility='default' filepath='include/wx/event.h' line='3578' column='1'/>
          </data-member>
          <data-member access='public' layout-offset-in-bits='64'>
            <var-decl name='eventEntryTable' type-id='type-id-259' visibility='default' filepath='include/wx/event.h' line='3579' column='1'/>
          </data-member>
        </class-decl>
      </member-type>
      <member-type access='private'>
        <typedef-decl name='EventTypeTablePointer' type-id='type-id-263' filepath='include/wx/event.h' line='3581' column='1' id='type-id-262'/>
      </member-type>
      <data-member access='protected' layout-offset-in-bits='0'>
        <var-decl name='m_table' type-id='type-id-264' visibility='default' filepath='include/wx/event.h' line='3617' column='1'/>
      </data-member>
      <data-member access='protected' layout-offset-in-bits='64'>
        <var-decl name='m_rebuildHash' type-id='type-id-3' visibility='default' filepath='include/wx/event.h' line='3618' column='1'/>
      </data-member>
      <data-member access='protected' layout-offset-in-bits='128'>
        <var-decl name='m_size' type-id='type-id-71' visibility='default' filepath='include/wx/event.h' line='3620' column='1'/>
      </data-member>
      <data-member access='protected' layout-offset-in-bits='192'>
        <var-decl name='m_eventTypeTable' type-id='type-id-265' visibility='default' filepath='include/wx/event.h' line='3621' column='1'/>
      </data-member>
      <data-member access='protected' layout-offset-in-bits='256'>
        <var-decl name='m_previous' type-id='type-id-266' visibility='default' filepath='include/wx/event.h' line='3624' column='1'/>
      </data-member>
      <data-member access='protected' layout-offset-in-bits='320'>
        <var-decl name='m_next' type-id='type-id-266' visibility='default' filepath='include/wx/event.h' line='3625' column='1'/>
      </data-member>
    </class-decl>
    <class-decl name='wxFile' size-in-bits='64' visibility='default' filepath='include/wx/file.h' line='30' column='1' id='type-id-267'>
      <member-type access='public'>
        <enum-decl name='OpenMode' filepath='include/wx/file.h' line='39' column='1' id='type-id-268'>
          <underlying-type type-id='type-id-26'/>
          <enumerator name='read' value='0'/>
          <enumerator name='write' value='1'/>
          <enumerator name='read_write' value='2'/>
          <enumerator name='write_append' value='3'/>
          <enumerator name='write_excl' value='4'/>
        </enum-decl>
      </member-type>
      <data-member access='private' layout-offset-in-bits='0'>
        <var-decl name='m_fd' type-id='type-id-19' visibility='default' filepath='include/wx/file.h' line='131' column='1'/>
      </data-member>
      <data-member access='private' layout-offset-in-bits='32'>
        <var-decl name='m_lasterror' type-id='type-id-19' visibility='default' filepath='include/wx/file.h' line='132' column='1'/>
      </data-member>
    </class-decl>
    <enum-decl name='wxSeekMode' filepath='include/wx/filefn.h' line='55' column='1' id='type-id-269'>
      <underlying-type type-id='type-id-26'/>
      <enumerator name='wxFromStart' value='0'/>
      <enumerator name='wxFromCurrent' value='1'/>
      <enumerator name='wxFromEnd' value='2'/>
    </enum-decl>
    <enum-decl name='wxFileKind' filepath='include/wx/filefn.h' line='62' column='1' id='type-id-270'>
      <underlying-type type-id='type-id-26'/>
      <enumerator name='wxFILE_KIND_UNKNOWN' value='0'/>
      <enumerator name='wxFILE_KIND_DISK' value='1'/>
      <enumerator name='wxFILE_KIND_TERMINAL' value='2'/>
      <enumerator name='wxFILE_KIND_PIPE' value='3'/>
    </enum-decl>
    <typedef-decl name='wxFileOffset' type-id='type-id-271' filepath='include/wx/filefn.h' line='343' column='1' id='type-id-272'/>
    <enum-decl name='wxPathFormat' filepath='include/wx/filename.h' line='42' column='1' id='type-id-273'>
      <underlying-type type-id='type-id-26'/>
      <enumerator name='wxPATH_NATIVE' value='0'/>
      <enumerator name='wxPATH_UNIX' value='1'/>
      <enumerator name='wxPATH_BEOS' value='1'/>
      <enumerator name='wxPATH_MAC' value='2'/>
      <enumerator name='wxPATH_DOS' value='3'/>
      <enumerator name='wxPATH_WIN' value='3'/>
      <enumerator name='wxPATH_OS2' value='3'/>
      <enumerator name='wxPATH_VMS' value='4'/>
      <enumerator name='wxPATH_MAX' value='5'/>
    </enum-decl>
    <enum-decl name='wxSizeConvention' filepath='include/wx/filename.h' line='57' column='1' id='type-id-274'>
      <underlying-type type-id='type-id-26'/>
      <enumerator name='wxSIZE_CONV_TRADITIONAL' value='0'/>
      <enumerator name='wxSIZE_CONV_IEC' value='1'/>
      <enumerator name='wxSIZE_CONV_SI' value='2'/>
    </enum-decl>
    <class-decl name='wxFileName' size-in-bits='1536' visibility='default' filepath='include/wx/filename.h' line='136' column='1' id='type-id-275'>
      <data-member access='private' layout-offset-in-bits='0'>
        <var-decl name='m_volume' type-id='type-id-61' visibility='default' filepath='include/wx/filename.h' line='644' column='1'/>
      </data-member>
      <data-member access='private' layout-offset-in-bits='384'>
        <var-decl name='m_dirs' type-id='type-id-55' visibility='default' filepath='include/wx/filename.h' line='647' column='1'/>
      </data-member>
      <data-member access='private' layout-offset-in-bits='704'>
        <var-decl name='m_name' type-id='type-id-61' visibility='default' filepath='include/wx/filename.h' line='650' column='1'/>
      </data-member>
      <data-member access='private' layout-offset-in-bits='1088'>
        <var-decl name='m_ext' type-id='type-id-61' visibility='default' filepath='include/wx/filename.h' line='651' column='1'/>
      </data-member>
      <data-member access='private' layout-offset-in-bits='1472'>
        <var-decl name='m_relative' type-id='type-id-3' visibility='default' filepath='include/wx/filename.h' line='661' column='1'/>
      </data-member>
      <data-member access='private' layout-offset-in-bits='1480'>
        <var-decl name='m_hasExt' type-id='type-id-3' visibility='default' filepath='include/wx/filename.h' line='668' column='1'/>
      </data-member>
      <data-member access='private' layout-offset-in-bits='1488'>
        <var-decl name='m_dontFollowLinks' type-id='type-id-3' visibility='default' filepath='include/wx/filename.h' line='673' column='1'/>
      </data-member>
    </class-decl>
    <enum-decl name='wxFontFamily' filepath='include/wx/font.h' line='38' column='1' id='type-id-276'>
      <underlying-type type-id='type-id-26'/>
      <enumerator name='wxFONTFAMILY_DEFAULT' value='70'/>
      <enumerator name='wxFONTFAMILY_DECORATIVE' value='71'/>
      <enumerator name='wxFONTFAMILY_ROMAN' value='72'/>
      <enumerator name='wxFONTFAMILY_SCRIPT' value='73'/>
      <enumerator name='wxFONTFAMILY_SWISS' value='74'/>
      <enumerator name='wxFONTFAMILY_MODERN' value='75'/>
      <enumerator name='wxFONTFAMILY_TELETYPE' value='76'/>
      <enumerator name='wxFONTFAMILY_MAX' value='77'/>
      <enumerator name='wxFONTFAMILY_UNKNOWN' value='77'/>
    </enum-decl>
    <enum-decl name='wxFontStyle' filepath='include/wx/font.h' line='52' column='1' id='type-id-277'>
      <underlying-type type-id='type-id-26'/>
      <enumerator name='wxFONTSTYLE_NORMAL' value='90'/>
      <enumerator name='wxFONTSTYLE_ITALIC' value='93'/>
      <enumerator name='wxFONTSTYLE_SLANT' value='94'/>
      <enumerator name='wxFONTSTYLE_MAX' value='95'/>
    </enum-decl>
    <enum-decl name='wxFontWeight' filepath='include/wx/font.h' line='61' column='1' id='type-id-278'>
      <underlying-type type-id='type-id-26'/>
      <enumerator name='wxFONTWEIGHT_INVALID' value='0'/>
      <enumerator name='wxFONTWEIGHT_THIN' value='100'/>
      <enumerator name='wxFONTWEIGHT_EXTRALIGHT' value='200'/>
      <enumerator name='wxFONTWEIGHT_LIGHT' value='300'/>
      <enumerator name='wxFONTWEIGHT_NORMAL' value='400'/>
      <enumerator name='wxFONTWEIGHT_MEDIUM' value='500'/>
      <enumerator name='wxFONTWEIGHT_SEMIBOLD' value='600'/>
      <enumerator name='wxFONTWEIGHT_BOLD' value='700'/>
      <enumerator name='wxFONTWEIGHT_EXTRABOLD' value='800'/>
      <enumerator name='wxFONTWEIGHT_HEAVY' value='900'/>
      <enumerator name='wxFONTWEIGHT_EXTRAHEAVY' value='1000'/>
      <enumerator name='wxFONTWEIGHT_MAX' value='1000'/>
    </enum-decl>
    <class-decl name='wxFontDialogBase' size-in-bits='9344' visibility='default' filepath='include/wx/fontdlg.h' line='25' column='1' id='type-id-279'>
      <base-class access='public' layout-offset-in-bits='0' type-id='type-id-280'/>
      <data-member access='protected' layout-offset-in-bits='8128'>
        <var-decl name='m_fontData' type-id='type-id-281' visibility='default' filepath='include/wx/fontdlg.h' line='49' column='1'/>
      </data-member>
      <member-function access='protected' vtable-offset='252'>
        <function-decl name='DoCreate' mangled-name='_ZN16wxFontDialogBase8DoCreateEP8wxWindow' filepath='include/wx/fontdlg.h' line='44' column='1' visibility='default' binding='global' size-in-bits='64'>
          <parameter type-id='type-id-282' is-artificial='yes'/>
          <parameter type-id='type-id-283'/>
          <return type-id='type-id-3'/>
        </function-decl>
      </member-function>
    </class-decl>
    <enum-decl name='wxFontEncoding' filepath='include/wx/fontenc.h' line='15' column='1' id='type-id-284'>
      <underlying-type type-id='type-id-26'/>
      <enumerator name='wxFONTENCODING_SYSTEM' value='-1'/>
      <enumerator name='wxFONTENCODING_DEFAULT' value='0'/>
      <enumerator name='wxFONTENCODING_ISO8859_1' value='1'/>
      <enumerator name='wxFONTENCODING_ISO8859_2' value='2'/>
      <enumerator name='wxFONTENCODING_ISO8859_3' value='3'/>
      <enumerator name='wxFONTENCODING_ISO8859_4' value='4'/>
      <enumerator name='wxFONTENCODING_ISO8859_5' value='5'/>
      <enumerator name='wxFONTENCODING_ISO8859_6' value='6'/>
      <enumerator name='wxFONTENCODING_ISO8859_7' value='7'/>
      <enumerator name='wxFONTENCODING_ISO8859_8' value='8'/>
      <enumerator name='wxFONTENCODING_ISO8859_9' value='9'/>
      <enumerator name='wxFONTENCODING_ISO8859_10' value='10'/>
      <enumerator name='wxFONTENCODING_ISO8859_11' value='11'/>
      <enumerator name='wxFONTENCODING_ISO8859_12' value='12'/>
      <enumerator name='wxFONTENCODING_ISO8859_13' value='13'/>
      <enumerator name='wxFONTENCODING_ISO8859_14' value='14'/>
      <enumerator name='wxFONTENCODING_ISO8859_15' value='15'/>
      <enumerator name='wxFONTENCODING_ISO8859_MAX' value='16'/>
      <enumerator name='wxFONTENCODING_KOI8' value='17'/>
      <enumerator name='wxFONTENCODING_KOI8_U' value='18'/>
      <enumerator name='wxFONTENCODING_ALTERNATIVE' value='19'/>
      <enumerator name='wxFONTENCODING_BULGARIAN' value='20'/>
      <enumerator name='wxFONTENCODING_CP437' value='21'/>
      <enumerator name='wxFONTENCODING_CP850' value='22'/>
      <enumerator name='wxFONTENCODING_CP852' value='23'/>
      <enumerator name='wxFONTENCODING_CP855' value='24'/>
      <enumerator name='wxFONTENCODING_CP866' value='25'/>
      <enumerator name='wxFONTENCODING_CP874' value='26'/>
      <enumerator name='wxFONTENCODING_CP932' value='27'/>
      <enumerator name='wxFONTENCODING_CP936' value='28'/>
      <enumerator name='wxFONTENCODING_CP949' value='29'/>
      <enumerator name='wxFONTENCODING_CP950' value='30'/>
      <enumerator name='wxFONTENCODING_CP1250' value='31'/>
      <enumerator name='wxFONTENCODING_CP1251' value='32'/>
      <enumerator name='wxFONTENCODING_CP1252' value='33'/>
      <enumerator name='wxFONTENCODING_CP1253' value='34'/>
      <enumerator name='wxFONTENCODING_CP1254' value='35'/>
      <enumerator name='wxFONTENCODING_CP1255' value='36'/>
      <enumerator name='wxFONTENCODING_CP1256' value='37'/>
      <enumerator name='wxFONTENCODING_CP1257' value='38'/>
      <enumerator name='wxFONTENCODING_CP1258' value='39'/>
      <enumerator name='wxFONTENCODING_CP1361' value='40'/>
      <enumerator name='wxFONTENCODING_CP12_MAX' value='41'/>
      <enumerator name='wxFONTENCODING_UTF7' value='42'/>
      <enumerator name='wxFONTENCODING_UTF8' value='43'/>
      <enumerator name='wxFONTENCODING_EUC_JP' value='44'/>
      <enumerator name='wxFONTENCODING_UTF16BE' value='45'/>
      <enumerator name='wxFONTENCODING_UTF16LE' value='46'/>
      <enumerator name='wxFONTENCODING_UTF32BE' value='47'/>
      <enumerator name='wxFONTENCODING_UTF32LE' value='48'/>
      <enumerator name='wxFONTENCODING_MACROMAN' value='49'/>
      <enumerator name='wxFONTENCODING_MACJAPANESE' value='50'/>
      <enumerator name='wxFONTENCODING_MACCHINESETRAD' value='51'/>
      <enumerator name='wxFONTENCODING_MACKOREAN' value='52'/>
      <enumerator name='wxFONTENCODING_MACARABIC' value='53'/>
      <enumerator name='wxFONTENCODING_MACHEBREW' value='54'/>
      <enumerator name='wxFONTENCODING_MACGREEK' value='55'/>
      <enumerator name='wxFONTENCODING_MACCYRILLIC' value='56'/>
      <enumerator name='wxFONTENCODING_MACDEVANAGARI' value='57'/>
      <enumerator name='wxFONTENCODING_MACGURMUKHI' value='58'/>
      <enumerator name='wxFONTENCODING_MACGUJARATI' value='59'/>
      <enumerator name='wxFONTENCODING_MACORIYA' value='60'/>
      <enumerator name='wxFONTENCODING_MACBENGALI' value='61'/>
      <enumerator name='wxFONTENCODING_MACTAMIL' value='62'/>
      <enumerator name='wxFONTENCODING_MACTELUGU' value='63'/>
      <enumerator name='wxFONTENCODING_MACKANNADA' value='64'/>
      <enumerator name='wxFONTENCODING_MACMALAJALAM' value='65'/>
      <enumerator name='wxFONTENCODING_MACSINHALESE' value='66'/>
      <enumerator name='wxFONTENCODING_MACBURMESE' value='67'/>
      <enumerator name='wxFONTENCODING_MACKHMER' value='68'/>
      <enumerator name='wxFONTENCODING_MACTHAI' value='69'/>
      <enumerator name='wxFONTENCODING_MACLAOTIAN' value='70'/>
      <enumerator name='wxFONTENCODING_MACGEORGIAN' value='71'/>
      <enumerator name='wxFONTENCODING_MACARMENIAN' value='72'/>
      <enumerator name='wxFONTENCODING_MACCHINESESIMP' value='73'/>
      <enumerator name='wxFONTENCODING_MACTIBETAN' value='74'/>
      <enumerator name='wxFONTENCODING_MACMONGOLIAN' value='75'/>
      <enumerator name='wxFONTENCODING_MACETHIOPIC' value='76'/>
      <enumerator name='wxFONTENCODING_MACCENTRALEUR' value='77'/>
      <enumerator name='wxFONTENCODING_MACVIATNAMESE' value='78'/>
      <enumerator name='wxFONTENCODING_MACARABICEXT' value='79'/>
      <enumerator name='wxFONTENCODING_MACSYMBOL' value='80'/>
      <enumerator name='wxFONTENCODING_MACDINGBATS' value='81'/>
      <enumerator name='wxFONTENCODING_MACTURKISH' value='82'/>
      <enumerator name='wxFONTENCODING_MACCROATIAN' value='83'/>
      <enumerator name='wxFONTENCODING_MACICELANDIC' value='84'/>
      <enumerator name='wxFONTENCODING_MACROMANIAN' value='85'/>
      <enumerator name='wxFONTENCODING_MACCELTIC' value='86'/>
      <enumerator name='wxFONTENCODING_MACGAELIC' value='87'/>
      <enumerator name='wxFONTENCODING_MACKEYBOARD' value='88'/>
      <enumerator name='wxFONTENCODING_ISO2022_JP' value='89'/>
      <enumerator name='wxFONTENCODING_MAX' value='90'/>
      <enumerator name='wxFONTENCODING_MACMIN' value='49'/>
      <enumerator name='wxFONTENCODING_MACMAX' value='88'/>
      <enumerator name='wxFONTENCODING_UTF16' value='46'/>
      <enumerator name='wxFONTENCODING_UTF32' value='48'/>
      <enumerator name='wxFONTENCODING_UNICODE' value='48'/>
      <enumerator name='wxFONTENCODING_GB2312' value='28'/>
      <enumerator name='wxFONTENCODING_BIG5' value='30'/>
      <enumerator name='wxFONTENCODING_SHIFT_JIS' value='27'/>
      <enumerator name='wxFONTENCODING_EUC_KR' value='29'/>
      <enumerator name='wxFONTENCODING_JOHAB' value='40'/>
      <enumerator name='wxFONTENCODING_VIETNAMESE' value='39'/>
    </enum-decl>
    <enum-decl name='wxBitmapType' filepath='include/wx/gdicmn.h' line='47' column='1' id='type-id-285'>
      <underlying-type type-id='type-id-26'/>
      <enumerator name='wxBITMAP_TYPE_INVALID' value='0'/>
      <enumerator name='wxBITMAP_TYPE_BMP' value='1'/>
      <enumerator name='wxBITMAP_TYPE_BMP_RESOURCE' value='2'/>
      <enumerator name='wxBITMAP_TYPE_RESOURCE' value='2'/>
      <enumerator name='wxBITMAP_TYPE_ICO' value='3'/>
      <enumerator name='wxBITMAP_TYPE_ICO_RESOURCE' value='4'/>
      <enumerator name='wxBITMAP_TYPE_CUR' value='5'/>
      <enumerator name='wxBITMAP_TYPE_CUR_RESOURCE' value='6'/>
      <enumerator name='wxBITMAP_TYPE_XBM' value='7'/>
      <enumerator name='wxBITMAP_TYPE_XBM_DATA' value='8'/>
      <enumerator name='wxBITMAP_TYPE_XPM' value='9'/>
      <enumerator name='wxBITMAP_TYPE_XPM_DATA' value='10'/>
      <enumerator name='wxBITMAP_TYPE_TIFF' value='11'/>
      <enumerator name='wxBITMAP_TYPE_TIF' value='11'/>
      <enumerator name='wxBITMAP_TYPE_TIFF_RESOURCE' value='12'/>
      <enumerator name='wxBITMAP_TYPE_TIF_RESOURCE' value='12'/>
      <enumerator name='wxBITMAP_TYPE_GIF' value='13'/>
      <enumerator name='wxBITMAP_TYPE_GIF_RESOURCE' value='14'/>
      <enumerator name='wxBITMAP_TYPE_PNG' value='15'/>
      <enumerator name='wxBITMAP_TYPE_PNG_RESOURCE' value='16'/>
      <enumerator name='wxBITMAP_TYPE_JPEG' value='17'/>
      <enumerator name='wxBITMAP_TYPE_JPEG_RESOURCE' value='18'/>
      <enumerator name='wxBITMAP_TYPE_PNM' value='19'/>
      <enumerator name='wxBITMAP_TYPE_PNM_RESOURCE' value='20'/>
      <enumerator name='wxBITMAP_TYPE_PCX' value='21'/>
      <enumerator name='wxBITMAP_TYPE_PCX_RESOURCE' value='22'/>
      <enumerator name='wxBITMAP_TYPE_PICT' value='23'/>
      <enumerator name='wxBITMAP_TYPE_PICT_RESOURCE' value='24'/>
      <enumerator name='wxBITMAP_TYPE_ICON' value='25'/>
      <enumerator name='wxBITMAP_TYPE_ICON_RESOURCE' value='26'/>
      <enumerator name='wxBITMAP_TYPE_ANI' value='27'/>
      <enumerator name='wxBITMAP_TYPE_IFF' value='28'/>
      <enumerator name='wxBITMAP_TYPE_TGA' value='29'/>
      <enumerator name='wxBITMAP_TYPE_MACCURSOR' value='30'/>
      <enumerator name='wxBITMAP_TYPE_MACCURSOR_RESOURCE' value='31'/>
      <enumerator name='wxBITMAP_TYPE_MAX' value='32'/>
      <enumerator name='wxBITMAP_TYPE_ANY' value='50'/>
    </enum-decl>
    <enum-decl name='wxStockCursor' filepath='include/wx/gdicmn.h' line='97' column='1' id='type-id-286'>
      <underlying-type type-id='type-id-26'/>
      <enumerator name='wxCURSOR_NONE' value='0'/>
      <enumerator name='wxCURSOR_ARROW' value='1'/>
      <enumerator name='wxCURSOR_RIGHT_ARROW' value='2'/>
      <enumerator name='wxCURSOR_BULLSEYE' value='3'/>
      <enumerator name='wxCURSOR_CHAR' value='4'/>
      <enumerator name='wxCURSOR_CROSS' value='5'/>
      <enumerator name='wxCURSOR_HAND' value='6'/>
      <enumerator name='wxCURSOR_IBEAM' value='7'/>
      <enumerator name='wxCURSOR_LEFT_BUTTON' value='8'/>
      <enumerator name='wxCURSOR_MAGNIFIER' value='9'/>
      <enumerator name='wxCURSOR_MIDDLE_BUTTON' value='10'/>
      <enumerator name='wxCURSOR_NO_ENTRY' value='11'/>
      <enumerator name='wxCURSOR_PAINT_BRUSH' value='12'/>
      <enumerator name='wxCURSOR_PENCIL' value='13'/>
      <enumerator name='wxCURSOR_POINT_LEFT' value='14'/>
      <enumerator name='wxCURSOR_POINT_RIGHT' value='15'/>
      <enumerator name='wxCURSOR_QUESTION_ARROW' value='16'/>
      <enumerator name='wxCURSOR_RIGHT_BUTTON' value='17'/>
      <enumerator name='wxCURSOR_SIZENESW' value='18'/>
      <enumerator name='wxCURSOR_SIZENS' value='19'/>
      <enumerator name='wxCURSOR_SIZENWSE' value='20'/>
      <enumerator name='wxCURSOR_SIZEWE' value='21'/>
      <enumerator name='wxCURSOR_SIZING' value='22'/>
      <enumerator name='wxCURSOR_SPRAYCAN' value='23'/>
      <enumerator name='wxCURSOR_WAIT' value='24'/>
      <enumerator name='wxCURSOR_WATCH' value='25'/>
      <enumerator name='wxCURSOR_BLANK' value='26'/>
      <enumerator name='wxCURSOR_DEFAULT' value='27'/>
      <enumerator name='wxCURSOR_ARROWWAIT' value='28'/>
      <enumerator name='wxCURSOR_MAX' value='29'/>
    </enum-decl>
    <class-decl name='wxSize' size-in-bits='64' visibility='default' filepath='include/wx/gdicmn.h' line='282' column='1' id='type-id-287'>
      <data-member access='public' layout-offset-in-bits='0'>
        <var-decl name='x' type-id='type-id-19' visibility='default' filepath='include/wx/gdicmn.h' line='286' column='1'/>
      </data-member>
      <data-member access='public' layout-offset-in-bits='32'>
        <var-decl name='y' type-id='type-id-19' visibility='default' filepath='include/wx/gdicmn.h' line='286' column='1'/>
      </data-member>
    </class-decl>
    <class-decl name='wxRealPoint' size-in-bits='128' visibility='default' filepath='include/wx/gdicmn.h' line='459' column='1' id='type-id-288'>
      <data-member access='public' layout-offset-in-bits='0'>
        <var-decl name='x' type-id='type-id-17' visibility='default' filepath='include/wx/gdicmn.h' line='462' column='1'/>
      </data-member>
      <data-member access='public' layout-offset-in-bits='64'>
        <var-decl name='y' type-id='type-id-17' visibility='default' filepath='include/wx/gdicmn.h' line='463' column='1'/>
      </data-member>
    </class-decl>
    <class-decl name='wxPoint' size-in-bits='64' visibility='default' filepath='include/wx/gdicmn.h' line='577' column='1' id='type-id-144'>
      <data-member access='public' layout-offset-in-bits='0'>
        <var-decl name='x' type-id='type-id-19' visibility='default' filepath='include/wx/gdicmn.h' line='580' column='1'/>
      </data-member>
      <data-member access='public' layout-offset-in-bits='32'>
        <var-decl name='y' type-id='type-id-19' visibility='default' filepath='include/wx/gdicmn.h' line='580' column='1'/>
      </data-member>
    </class-decl>
    <class-decl name='wxRect' size-in-bits='128' visibility='default' filepath='include/wx/gdicmn.h' line='733' column='1' id='type-id-289'>
      <data-member access='public' layout-offset-in-bits='0'>
        <var-decl name='x' type-id='type-id-19' visibility='default' filepath='include/wx/gdicmn.h' line='872' column='1'/>
      </data-member>
      <data-member access='public' layout-offset-in-bits='32'>
        <var-decl name='y' type-id='type-id-19' visibility='default' filepath='include/wx/gdicmn.h' line='872' column='1'/>
      </data-member>
      <data-member access='public' layout-offset-in-bits='64'>
        <var-decl name='width' type-id='type-id-19' visibility='default' filepath='include/wx/gdicmn.h' line='872' column='1'/>
      </data-member>
      <data-member access='public' layout-offset-in-bits='96'>
        <var-decl name='height' type-id='type-id-19' visibility='default' filepath='include/wx/gdicmn.h' line='872' column='1'/>
      </data-member>
    </class-decl>
    <class-decl name='wxGDIRefData' size-in-bits='128' visibility='default' filepath='include/wx/gdiobj.h' line='22' column='1' id='type-id-290'>
      <base-class access='public' layout-offset-in-bits='0' type-id='type-id-291'/>
      <member-function access='public' const='yes' vtable-offset='2'>
        <function-decl name='IsOk' mangled-name='_ZNK12wxGDIRefData4IsOkEv' filepath='include/wx/gdiobj.h' line='31' column='1' visibility='default' binding='global' size-in-bits='64'>
          <parameter type-id='type-id-292' is-artificial='yes'/>
          <return type-id='type-id-3'/>
        </function-decl>
      </member-function>
    </class-decl>
    <typedef-decl name='GdkEventKey' type-id='type-id-293' filepath='include/wx/gtk/window.h' line='25' column='1' id='type-id-294'/>
    <class-decl name='wxArrayGdkWindows' size-in-bits='192' visibility='default' filepath='include/wx/gtk/window.h' line='28' column='1' id='type-id-295'>
      <base-class access='public' layout-offset-in-bits='0' type-id='type-id-201'/>
    </class-decl>
    <class-decl name='_wxHashTable_NodeBase' size-in-bits='64' is-struct='yes' visibility='default' filepath='include/wx/hashmap.h' line='68' column='1' id='type-id-296'>
      <data-member access='public' layout-offset-in-bits='0'>
        <var-decl name='m_next' type-id='type-id-297' visibility='default' filepath='include/wx/hashmap.h' line='72' column='1'/>
      </data-member>
    </class-decl>
    <class-decl name='_wxHashTableBase2' size-in-bits='8' visibility='default' filepath='include/wx/hashmap.h' line='80' column='1' id='type-id-298'>
      <member-type access='public'>
        <typedef-decl name='NodeDtor' type-id='type-id-300' filepath='include/wx/hashmap.h' line='83' column='1' id='type-id-299'/>
      </member-type>
      <member-type access='public'>
        <typedef-decl name='BucketFromNode' type-id='type-id-302' filepath='include/wx/hashmap.h' line='84' column='1' id='type-id-301'/>
      </member-type>
      <member-type access='public'>
        <typedef-decl name='ProcessNode' type-id='type-id-304' filepath='include/wx/hashmap.h' line='85' column='1' id='type-id-303'/>
      </member-type>
    </class-decl>
    <class-decl name='wxStringHash' size-in-bits='8' is-struct='yes' visibility='default' filepath='include/wx/hashmap.h' line='566' column='1' id='type-id-305'/>
    <class-decl name='wxStringEqual' size-in-bits='8' is-struct='yes' visibility='default' filepath='include/wx/hashmap.h' line='589' column='1' id='type-id-306'/>
    <enum-decl name='wxImageResizeQuality' filepath='include/wx/image.h' line='61' column='1' id='type-id-307'>
      <underlying-type type-id='type-id-26'/>
      <enumerator name='wxIMAGE_QUALITY_NEAREST' value='0'/>
      <enumerator name='wxIMAGE_QUALITY_BILINEAR' value='1'/>
      <enumerator name='wxIMAGE_QUALITY_BICUBIC' value='2'/>
      <enumerator name='wxIMAGE_QUALITY_BOX_AVERAGE' value='3'/>
      <enumerator name='wxIMAGE_QUALITY_NORMAL' value='0'/>
      <enumerator name='wxIMAGE_QUALITY_HIGH' value='4'/>
    </enum-decl>
    <union-decl name='wxListKeyValue' size-in-bits='64' visibility='default' filepath='include/wx/list.h' line='320' column='1' id='type-id-308'>
      <data-member access='public'>
        <var-decl name='integer' type-id='type-id-21' visibility='default' filepath='include/wx/list.h' line='322' column='1'/>
      </data-member>
      <data-member access='public'>
        <var-decl name='string' type-id='type-id-86' visibility='default' filepath='include/wx/list.h' line='323' column='1'/>
      </data-member>
    </union-decl>
    <class-decl name='wxListKey' size-in-bits='128' visibility='default' filepath='include/wx/list.h' line='332' column='1' id='type-id-309'>
      <data-member access='private' layout-offset-in-bits='0'>
        <var-decl name='m_keyType' type-id='type-id-169' visibility='default' filepath='include/wx/list.h' line='369' column='1'/>
      </data-member>
      <data-member access='private' layout-offset-in-bits='64'>
        <var-decl name='m_key' type-id='type-id-308' visibility='default' filepath='include/wx/list.h' line='370' column='1'/>
      </data-member>
    </class-decl>
    <class-decl name='wxObjectList' size-in-bits='384' visibility='default' filepath='include/wx/list.h' line='1164' column='1' id='type-id-310'>
      <base-class access='public' layout-offset-in-bits='0' type-id='type-id-311'/>
      <member-type access='public'>
        <class-decl name='const_iterator' size-in-bits='128' visibility='default' filepath='include/wx/list.h' line='1164' column='1' id='type-id-312'>
          <member-type access='public'>
            <typedef-decl name='Node' type-id='type-id-314' filepath='include/wx/list.h' line='1164' column='1' id='type-id-313'/>
          </member-type>
          <member-type access='public'>
            <typedef-decl name='itor' type-id='type-id-312' filepath='include/wx/list.h' line='1164' column='1' id='type-id-315'/>
          </member-type>
          <member-type access='public'>
            <typedef-decl name='reference' type-id='type-id-317' filepath='include/wx/list.h' line='1164' column='1' id='type-id-316'/>
          </member-type>
          <member-type access='public'>
            <typedef-decl name='reference_type' type-id='type-id-316' filepath='include/wx/list.h' line='1164' column='1' id='type-id-318'/>
          </member-type>
          <member-type access='public'>
            <typedef-decl name='value_type' type-id='type-id-252' filepath='include/wx/list.h' line='1164' column='1' id='type-id-319'/>
          </member-type>
          <data-member access='public' layout-offset-in-bits='0'>
            <var-decl name='m_node' type-id='type-id-320' visibility='default' filepath='include/wx/list.h' line='1164' column='1'/>
          </data-member>
          <data-member access='public' layout-offset-in-bits='64'>
            <var-decl name='m_init' type-id='type-id-320' visibility='default' filepath='include/wx/list.h' line='1164' column='1'/>
          </data-member>
        </class-decl>
      </member-type>
      <member-type access='public'>
        <class-decl name='const_reverse_iterator' size-in-bits='128' visibility='default' filepath='include/wx/list.h' line='1164' column='1' id='type-id-321'>
          <member-type access='public'>
            <typedef-decl name='Node' type-id='type-id-314' filepath='include/wx/list.h' line='1164' column='1' id='type-id-322'/>
          </member-type>
          <member-type access='public'>
            <typedef-decl name='itor' type-id='type-id-321' filepath='include/wx/list.h' line='1164' column='1' id='type-id-323'/>
          </member-type>
          <member-type access='public'>
            <typedef-decl name='reference' type-id='type-id-325' filepath='include/wx/list.h' line='1164' column='1' id='type-id-324'/>
          </member-type>
          <member-type access='public'>
            <typedef-decl name='reference_type' type-id='type-id-324' filepath='include/wx/list.h' line='1164' column='1' id='type-id-326'/>
          </member-type>
          <member-type access='public'>
            <typedef-decl name='value_type' type-id='type-id-252' filepath='include/wx/list.h' line='1164' column='1' id='type-id-327'/>
          </member-type>
          <data-member access='public' layout-offset-in-bits='0'>
            <var-decl name='m_node' type-id='type-id-328' visibility='default' filepath='include/wx/list.h' line='1164' column='1'/>
          </data-member>
          <data-member access='public' layout-offset-in-bits='64'>
            <var-decl name='m_init' type-id='type-id-328' visibility='default' filepath='include/wx/list.h' line='1164' column='1'/>
          </data-member>
        </class-decl>
      </member-type>
      <member-type access='public'>
        <class-decl name='iterator' size-in-bits='128' visibility='default' filepath='include/wx/list.h' line='1164' column='1' id='type-id-329'>
          <member-type access='public'>
            <typedef-decl name='Node' type-id='type-id-314' filepath='include/wx/list.h' line='1164' column='1' id='type-id-330'/>
          </member-type>
          <member-type access='public'>
            <typedef-decl name='itor' type-id='type-id-329' filepath='include/wx/list.h' line='1164' column='1' id='type-id-331'/>
          </member-type>
          <member-type access='public'>
            <typedef-decl name='pointer' type-id='type-id-333' filepath='include/wx/list.h' line='1164' column='1' id='type-id-332'/>
          </member-type>
          <member-type access='public'>
            <typedef-decl name='pointer_type' type-id='type-id-332' filepath='include/wx/list.h' line='1164' column='1' id='type-id-334'/>
          </member-type>
          <member-type access='public'>
            <typedef-decl name='reference' type-id='type-id-336' filepath='include/wx/list.h' line='1164' column='1' id='type-id-335'/>
          </member-type>
          <member-type access='public'>
            <typedef-decl name='reference_type' type-id='type-id-335' filepath='include/wx/list.h' line='1164' column='1' id='type-id-337'/>
          </member-type>
          <member-type access='public'>
            <typedef-decl name='value_type' type-id='type-id-252' filepath='include/wx/list.h' line='1164' column='1' id='type-id-338'/>
          </member-type>
          <data-member access='public' layout-offset-in-bits='0'>
            <var-decl name='m_node' type-id='type-id-339' visibility='default' filepath='include/wx/list.h' line='1164' column='1'/>
          </data-member>
          <data-member access='public' layout-offset-in-bits='64'>
            <var-decl name='m_init' type-id='type-id-339' visibility='default' filepath='include/wx/list.h' line='1164' column='1'/>
          </data-member>
        </class-decl>
      </member-type>
      <member-type access='public'>
        <class-decl name='reverse_iterator' size-in-bits='128' visibility='default' filepath='include/wx/list.h' line='1164' column='1' id='type-id-340'>
          <member-type access='public'>
            <typedef-decl name='Node' type-id='type-id-314' filepath='include/wx/list.h' line='1164' column='1' id='type-id-341'/>
          </member-type>
          <member-type access='public'>
            <typedef-decl name='itor' type-id='type-id-340' filepath='include/wx/list.h' line='1164' column='1' id='type-id-342'/>
          </member-type>
          <member-type access='public'>
            <typedef-decl name='reference' type-id='type-id-344' filepath='include/wx/list.h' line='1164' column='1' id='type-id-343'/>
          </member-type>
          <member-type access='public'>
            <typedef-decl name='reference_type' type-id='type-id-343' filepath='include/wx/list.h' line='1164' column='1' id='type-id-345'/>
          </member-type>
          <member-type access='public'>
            <typedef-decl name='value_type' type-id='type-id-252' filepath='include/wx/list.h' line='1164' column='1' id='type-id-346'/>
          </member-type>
          <data-member access='public' layout-offset-in-bits='0'>
            <var-decl name='m_node' type-id='type-id-347' visibility='default' filepath='include/wx/list.h' line='1164' column='1'/>
          </data-member>
          <data-member access='public' layout-offset-in-bits='64'>
            <var-decl name='m_init' type-id='type-id-347' visibility='default' filepath='include/wx/list.h' line='1164' column='1'/>
          </data-member>
        </class-decl>
      </member-type>
      <member-type access='public'>
        <typedef-decl name='const_reference' type-id='type-id-349' filepath='include/wx/list.h' line='1164' column='1' id='type-id-348'/>
      </member-type>
      <member-type access='public'>
        <typedef-decl name='reference' type-id='type-id-351' filepath='include/wx/list.h' line='1164' column='1' id='type-id-350'/>
      </member-type>
      <member-type access='public'>
        <typedef-decl name='size_type' type-id='type-id-71' filepath='include/wx/list.h' line='1164' column='1' id='type-id-352'/>
      </member-type>
      <member-type access='public'>
        <typedef-decl name='value_type' type-id='type-id-252' filepath='include/wx/list.h' line='1164' column='1' id='type-id-353'/>
      </member-type>
      <member-function access='protected' vtable-offset='2'>
        <function-decl name='CreateNode' mangled-name='_ZN12wxObjectList10CreateNodeEP10wxNodeBaseS1_PvRK9wxListKey' filepath='include/wx/list.h' line='1164' column='1' visibility='default' binding='global' size-in-bits='64'>
          <parameter type-id='type-id-354' is-artificial='yes'/>
          <parameter type-id='type-id-355'/>
          <parameter type-id='type-id-355'/>
          <parameter type-id='type-id-16'/>
          <parameter type-id='type-id-356'/>
          <return type-id='type-id-355'/>
        </function-decl>
      </member-function>
      <member-function access='public' const='yes' vtable-offset='3'>
        <function-decl name='Find' mangled-name='_ZNK12wxObjectList4FindERK9wxListKey' filepath='include/wx/list.h' line='1164' column='1' visibility='default' binding='global' size-in-bits='64'>
          <parameter type-id='type-id-357' is-artificial='yes'/>
          <parameter type-id='type-id-356'/>
          <return type-id='type-id-358'/>
        </function-decl>
      </member-function>
    </class-decl>
    <typedef-decl name='wxSortFuncFor_wxObjectList' type-id='type-id-359' filepath='include/wx/list.h' line='1164' column='1' id='type-id-360'/>
    <class-decl name='wxList' size-in-bits='384' visibility='default' filepath='include/wx/list.h' line='1167' column='1' id='type-id-361'>
      <base-class access='public' layout-offset-in-bits='0' type-id='type-id-310'/>
      <member-function access='public' destructor='yes' vtable-offset='-1'>
        <function-decl name='~wxList' mangled-name='_ZN6wxListD4Ev' filepath='include/wx/list.h' line='1178' column='1' visibility='default' binding='global' size-in-bits='64'>
          <parameter type-id='type-id-362' is-artificial='yes'/>
          <parameter type-id='type-id-19'/>
          <return type-id='type-id-30'/>
        </function-decl>
      </member-function>
    </class-decl>
    <enum-decl name='wxLayoutDirection' filepath='include/wx/localedefs.h' line='20' column='1' id='type-id-122'>
      <underlying-type type-id='type-id-26'/>
      <enumerator name='wxLayout_Default' value='0'/>
      <enumerator name='wxLayout_LeftToRight' value='1'/>
      <enumerator name='wxLayout_RightToLeft' value='2'/>
    </enum-decl>
    <typedef-decl name='wxLongLong' type-id='type-id-363' filepath='include/wx/longlong.h' line='90' column='1' id='type-id-161'/>
    <typedef-decl name='wxULongLong' type-id='type-id-364' filepath='include/wx/longlong.h' line='91' column='1' id='type-id-365'/>
    <class-decl name='wxLongLongNative' size-in-bits='64' visibility='default' filepath='include/wx/longlong.h' line='106' column='1' id='type-id-363'>
      <data-member access='private' layout-offset-in-bits='0'>
        <var-decl name='m_ll' type-id='type-id-22' visibility='default' filepath='include/wx/longlong.h' line='343' column='1'/>
      </data-member>
    </class-decl>
    <class-decl name='wxULongLongNative' size-in-bits='64' visibility='default' filepath='include/wx/longlong.h' line='347' column='1' id='type-id-364'>
      <data-member access='private' layout-offset-in-bits='0'>
        <var-decl name='m_ll' type-id='type-id-23' visibility='default' filepath='include/wx/longlong.h' line='562' column='1'/>
      </data-member>
    </class-decl>
    <class-decl name='wxNonOwnedWindowBase' size-in-bits='5312' visibility='default' filepath='include/wx/nonownedwnd.h' line='25' column='1' id='type-id-366'>
      <base-class access='public' layout-offset-in-bits='0' type-id='type-id-367'/>
      <member-function access='public' vtable-offset='151'>
        <function-decl name='InheritAttributes' mangled-name='_ZN20wxNonOwnedWindowBase17InheritAttributesEv' filepath='include/wx/nonownedwnd.h' line='71' column='1' visibility='default' binding='global' size-in-bits='64'>
          <parameter type-id='type-id-368' is-artificial='yes'/>
          <return type-id='type-id-30'/>
        </function-decl>
      </member-function>
      <member-function access='public' const='yes' vtable-offset='185'>
        <function-decl name='AdjustForParentClientOrigin' mangled-name='_ZNK20wxNonOwnedWindowBase27AdjustForParentClientOriginERiS0_i' filepath='include/wx/nonownedwnd.h' line='64' column='1' visibility='default' binding='global' size-in-bits='64'>
          <parameter type-id='type-id-369' is-artificial='yes'/>
          <parameter type-id='type-id-370'/>
          <parameter type-id='type-id-370'/>
          <parameter type-id='type-id-19'/>
          <return type-id='type-id-30'/>
        </function-decl>
      </member-function>
      <member-function access='protected' vtable-offset='206'>
        <function-decl name='DoClearShape' mangled-name='_ZN20wxNonOwnedWindowBase12DoClearShapeEv' filepath='include/wx/nonownedwnd.h' line='79' column='1' visibility='default' binding='global' size-in-bits='64'>
          <parameter type-id='type-id-368' is-artificial='yes'/>
          <return type-id='type-id-3'/>
        </function-decl>
      </member-function>
      <member-function access='protected' vtable-offset='207'>
        <function-decl name='DoSetRegionShape' mangled-name='_ZN20wxNonOwnedWindowBase16DoSetRegionShapeERK8wxRegion' filepath='include/wx/nonownedwnd.h' line='84' column='1' visibility='default' binding='global' size-in-bits='64'>
          <parameter type-id='type-id-368' is-artificial='yes'/>
          <parameter type-id='type-id-371'/>
          <return type-id='type-id-3'/>
        </function-decl>
      </member-function>
      <member-function access='protected' vtable-offset='208'>
        <function-decl name='DoSetPathShape' mangled-name='_ZN20wxNonOwnedWindowBase14DoSetPathShapeERK14wxGraphicsPath' filepath='include/wx/nonownedwnd.h' line='90' column='1' visibility='default' binding='global' size-in-bits='64'>
          <parameter type-id='type-id-368' is-artificial='yes'/>
          <parameter type-id='type-id-372'/>
          <return type-id='type-id-3'/>
        </function-decl>
      </member-function>
    </class-decl>
    <class-decl name='wxRefCounter' size-in-bits='128' visibility='default' filepath='include/wx/object.h' line='228' column='1' id='type-id-291'>
      <data-member access='private' layout-offset-in-bits='64'>
        <var-decl name='m_count' type-id='type-id-19' visibility='default' filepath='include/wx/object.h' line='245' column='1'/>
      </data-member>
      <member-function access='protected' destructor='yes' vtable-offset='-1'>
        <function-decl name='~wxRefCounter' mangled-name='_ZN12wxRefCounterD0Ev' filepath='include/wx/object.h' line='241' column='1' visibility='default' binding='global' size-in-bits='64'>
          <parameter type-id='type-id-373' is-artificial='yes'/>
          <parameter type-id='type-id-19' is-artificial='yes'/>
          <return type-id='type-id-30'/>
        </function-decl>
      </member-function>
      <member-function access='protected' destructor='yes' vtable-offset='-1'>
        <function-decl name='~wxRefCounter' mangled-name='_ZN12wxRefCounterD0Ev' filepath='include/wx/object.h' line='241' column='1' visibility='default' binding='global' size-in-bits='64'>
          <parameter type-id='type-id-373' is-artificial='yes'/>
          <parameter type-id='type-id-19' is-artificial='yes'/>
          <return type-id='type-id-30'/>
        </function-decl>
      </member-function>
      <member-function access='protected' destructor='yes' vtable-offset='-1'>
        <function-decl name='~wxRefCounter' mangled-name='_ZN12wxRefCounterD0Ev' filepath='include/wx/object.h' line='241' column='1' visibility='default' binding='global' size-in-bits='64'>
          <parameter type-id='type-id-373' is-artificial='yes'/>
          <parameter type-id='type-id-19' is-artificial='yes'/>
          <return type-id='type-id-30'/>
        </function-decl>
      </member-function>
      <member-function access='protected' destructor='yes' vtable-offset='-1'>
        <function-decl name='~wxRefCounter' mangled-name='_ZN12wxRefCounterD0Ev' filepath='include/wx/object.h' line='241' column='1' visibility='default' binding='global' size-in-bits='64'>
          <parameter type-id='type-id-373' is-artificial='yes'/>
          <parameter type-id='type-id-19' is-artificial='yes'/>
          <return type-id='type-id-30'/>
        </function-decl>
      </member-function>
      <member-function access='protected' destructor='yes' vtable-offset='-1'>
        <function-decl name='~wxRefCounter' mangled-name='_ZN12wxRefCounterD0Ev' filepath='include/wx/object.h' line='241' column='1' visibility='default' binding='global' size-in-bits='64'>
          <parameter type-id='type-id-373' is-artificial='yes'/>
          <parameter type-id='type-id-19' is-artificial='yes'/>
          <return type-id='type-id-30'/>
        </function-decl>
      </member-function>
      <member-function access='protected' destructor='yes' vtable-offset='-1'>
        <function-decl name='~wxRefCounter' mangled-name='_ZN12wxRefCounterD2Ev' filepath='include/wx/object.h' line='241' column='1' visibility='default' binding='global' size-in-bits='64'>
          <parameter type-id='type-id-373' is-artificial='yes'/>
          <parameter type-id='type-id-19' is-artificial='yes'/>
          <return type-id='type-id-30'/>
        </function-decl>
      </member-function>
      <member-function access='protected' destructor='yes' vtable-offset='-1'>
        <function-decl name='~wxRefCounter' mangled-name='_ZN12wxRefCounterD2Ev' filepath='include/wx/object.h' line='241' column='1' visibility='default' binding='global' size-in-bits='64'>
          <parameter type-id='type-id-373' is-artificial='yes'/>
          <parameter type-id='type-id-19' is-artificial='yes'/>
          <return type-id='type-id-30'/>
        </function-decl>
      </member-function>
      <member-function access='protected' destructor='yes' vtable-offset='-1'>
        <function-decl name='~wxRefCounter' mangled-name='_ZN12wxRefCounterD2Ev' filepath='include/wx/object.h' line='241' column='1' visibility='default' binding='global' size-in-bits='64'>
          <parameter type-id='type-id-373' is-artificial='yes'/>
          <parameter type-id='type-id-19' is-artificial='yes'/>
          <return type-id='type-id-30'/>
        </function-decl>
      </member-function>
      <member-function access='protected' destructor='yes' vtable-offset='-1'>
        <function-decl name='~wxRefCounter' mangled-name='_ZN12wxRefCounterD2Ev' filepath='include/wx/object.h' line='241' column='1' visibility='default' binding='global' size-in-bits='64'>
          <parameter type-id='type-id-373' is-artificial='yes'/>
          <parameter type-id='type-id-19' is-artificial='yes'/>
          <return type-id='type-id-30'/>
        </function-decl>
      </member-function>
      <member-function access='protected' destructor='yes' vtable-offset='-1'>
        <function-decl name='~wxRefCounter' mangled-name='_ZN12wxRefCounterD2Ev' filepath='include/wx/object.h' line='241' column='1' visibility='default' binding='global' size-in-bits='64'>
          <parameter type-id='type-id-373' is-artificial='yes'/>
          <parameter type-id='type-id-19' is-artificial='yes'/>
          <return type-id='type-id-30'/>
        </function-decl>
      </member-function>
      <member-function access='protected' destructor='yes' vtable-offset='-1'>
        <function-decl name='~wxRefCounter' mangled-name='_ZN12wxRefCounterD4Ev' filepath='include/wx/object.h' line='241' column='1' visibility='default' binding='global' size-in-bits='64'>
          <parameter type-id='type-id-373' is-artificial='yes'/>
          <parameter type-id='type-id-19' is-artificial='yes'/>
          <return type-id='type-id-30'/>
        </function-decl>
      </member-function>
    </class-decl>
    <typedef-decl name='wxObjectRefData' type-id='type-id-291' filepath='include/wx/object.h' line='258' column='1' id='type-id-374'/>
    <class-decl name='wxObjectDataPtr&lt;wxBitmapBundleImpl&gt;' size-in-bits='64' visibility='default' filepath='include/wx/object.h' line='266' column='1' id='type-id-89'>
      <data-member access='private' layout-offset-in-bits='0'>
        <var-decl name='m_ptr' type-id='type-id-375' visibility='default' filepath='include/wx/object.h' line='366' column='1'/>
      </data-member>
    </class-decl>
    <class-decl name='wxColourPropertyValue' size-in-bits='320' visibility='default' filepath='include/wx/propgrid/advprops.h' line='54' column='1' id='type-id-376'>
      <base-class access='public' layout-offset-in-bits='0' type-id='type-id-377'/>
      <data-member access='public' layout-offset-in-bits='128'>
        <var-decl name='m_type' type-id='type-id-378' visibility='default' filepath='include/wx/propgrid/advprops.h' line='67' column='1'/>
      </data-member>
      <data-member access='public' layout-offset-in-bits='192'>
        <var-decl name='m_colour' type-id='type-id-379' visibility='default' filepath='include/wx/propgrid/advprops.h' line='70' column='1'/>
      </data-member>
      <data-member access='public' static='yes'>
        <var-decl name='ms_classInfo' type-id='type-id-380' mangled-name='_ZN21wxColourPropertyValue12ms_classInfoE' visibility='default' filepath='src/propgrid/advprops.cpp' line='75' column='1' elf-symbol-id='_ZN21wxColourPropertyValue12ms_classInfoE@@WXU_3.2'/>
      </data-member>
      <member-function access='public' static='yes'>
        <function-decl name='wxCreateObject' mangled-name='_ZN21wxColourPropertyValue14wxCreateObjectEv' filepath='src/propgrid/advprops.cpp' line='75' column='1' visibility='default' binding='global' size-in-bits='64' elf-symbol-id='_ZN21wxColourPropertyValue14wxCreateObjectEv@@WXU_3.2'>
          <return type-id='type-id-252'/>
        </function-decl>
      </member-function>
      <member-function access='public' destructor='yes' vtable-offset='-1'>
        <function-decl name='~wxColourPropertyValue' mangled-name='_ZN21wxColourPropertyValueD0Ev' filepath='include/wx/propgrid/advprops.h' line='78' column='1' visibility='default' binding='global' size-in-bits='64'>
          <parameter type-id='type-id-381' is-artificial='yes'/>
          <parameter type-id='type-id-19' is-artificial='yes'/>
          <return type-id='type-id-30'/>
        </function-decl>
      </member-function>
      <member-function access='public' destructor='yes' vtable-offset='-1'>
        <function-decl name='~wxColourPropertyValue' mangled-name='_ZN21wxColourPropertyValueD2Ev' filepath='include/wx/propgrid/advprops.h' line='78' column='1' visibility='default' binding='global' size-in-bits='64'>
          <parameter type-id='type-id-381' is-artificial='yes'/>
          <parameter type-id='type-id-19' is-artificial='yes'/>
          <return type-id='type-id-30'/>
        </function-decl>
      </member-function>
      <member-function access='public' destructor='yes' vtable-offset='-1'>
        <function-decl name='~wxColourPropertyValue' mangled-name='_ZN21wxColourPropertyValueD4Ev' filepath='include/wx/propgrid/advprops.h' line='78' column='1' visibility='default' binding='global' size-in-bits='64'>
          <parameter type-id='type-id-381' is-artificial='yes'/>
          <parameter type-id='type-id-19' is-artificial='yes'/>
          <return type-id='type-id-30'/>
        </function-decl>
      </member-function>
      <member-function access='public' const='yes' vtable-offset='2'>
        <function-decl name='GetClassInfo' mangled-name='_ZNK21wxColourPropertyValue12GetClassInfoEv' filepath='src/propgrid/advprops.cpp' line='75' column='1' visibility='default' binding='global' size-in-bits='64' elf-symbol-id='_ZNK21wxColourPropertyValue12GetClassInfoEv@@WXU_3.2'>
          <parameter type-id='type-id-382' is-artificial='yes'/>
          <return type-id='type-id-383'/>
        </function-decl>
      </member-function>
    </class-decl>
    <class-decl name='wxFontProperty' size-in-bits='3712' visibility='default' filepath='include/wx/propgrid/advprops.h' line='133' column='1' id='type-id-384'>
      <base-class access='public' layout-offset-in-bits='0' type-id='type-id-385'/>
      <data-member access='public' static='yes'>
        <var-decl name='ms_classInfo' type-id='type-id-380' mangled-name='_ZN14wxFontProperty12ms_classInfoE' visibility='default' filepath='src/propgrid/advprops.cpp' line='550' column='1' elf-symbol-id='_ZN14wxFontProperty12ms_classInfoE@@WXU_3.2'/>
      </data-member>
      <member-function access='public' constructor='yes'>
        <function-decl name='wxFontProperty' mangled-name='_ZN14wxFontPropertyC2ERK8wxStringS2_RK6wxFont' filepath='src/propgrid/advprops.cpp' line='553' column='1' visibility='default' binding='global' size-in-bits='64' elf-symbol-id='_ZN14wxFontPropertyC2ERK8wxStringS2_RK6wxFont@@WXU_3.2'>
          <parameter type-id='type-id-386' name='this' is-artificial='yes'/>
          <parameter type-id='type-id-126' name='label' filepath='src/propgrid/advprops.cpp' line='553' column='1'/>
          <parameter type-id='type-id-126' name='name' filepath='src/propgrid/advprops.cpp' line='553' column='1'/>
          <parameter type-id='type-id-124' name='value' filepath='src/propgrid/advprops.cpp' line='554' column='1'/>
          <return type-id='type-id-30'/>
        </function-decl>
      </member-function>
      <member-function access='public' static='yes'>
        <function-decl name='wxCreateObject' mangled-name='_ZN14wxFontProperty14wxCreateObjectEv' filepath='src/propgrid/advprops.cpp' line='550' column='1' visibility='default' binding='global' size-in-bits='64' elf-symbol-id='_ZN14wxFontProperty14wxCreateObjectEv@@WXU_3.2'>
          <return type-id='type-id-252'/>
        </function-decl>
      </member-function>
      <member-function access='public' destructor='yes' vtable-offset='-1'>
        <function-decl name='~wxFontProperty' mangled-name='_ZN14wxFontPropertyD4Ev' filepath='src/propgrid/advprops.cpp' line='610' column='1' visibility='default' binding='global' size-in-bits='64'>
          <parameter type-id='type-id-387' is-artificial='yes'/>
          <parameter type-id='type-id-19' is-artificial='yes'/>
          <return type-id='type-id-30'/>
        </function-decl>
      </member-function>
      <member-function access='public' destructor='yes' vtable-offset='-1'>
        <function-decl name='~wxFontProperty' mangled-name='_ZN14wxFontPropertyD0Ev' filepath='src/propgrid/advprops.cpp' line='610' column='1' visibility='default' binding='global' size-in-bits='64' elf-symbol-id='_ZN14wxFontPropertyD0Ev@@WXU_3.2'>
          <parameter type-id='type-id-387' is-artificial='yes'/>
          <parameter type-id='type-id-19' is-artificial='yes'/>
          <return type-id='type-id-30'/>
        </function-decl>
      </member-function>
      <member-function access='public' destructor='yes' vtable-offset='-1'>
        <function-decl name='~wxFontProperty' mangled-name='_ZN14wxFontPropertyD2Ev' filepath='src/propgrid/advprops.cpp' line='610' column='1' visibility='default' binding='global' size-in-bits='64' elf-symbol-id='_ZN14wxFontPropertyD2Ev@@WXU_3.2'>
          <parameter type-id='type-id-387' is-artificial='yes'/>
          <parameter type-id='type-id-19' is-artificial='yes'/>
          <return type-id='type-id-30'/>
        </function-decl>
      </member-function>
      <member-function access='public' const='yes' vtable-offset='2'>
        <function-decl name='GetClassInfo' mangled-name='_ZNK14wxFontProperty12GetClassInfoEv' filepath='src/propgrid/advprops.cpp' line='550' column='1' visibility='default' binding='global' size-in-bits='64' elf-symbol-id='_ZNK14wxFontProperty12GetClassInfoEv@@WXU_3.2'>
          <parameter type-id='type-id-388' is-artificial='yes'/>
          <return type-id='type-id-383'/>
        </function-decl>
      </member-function>
      <member-function access='public' vtable-offset='5'>
        <function-decl name='OnSetValue' mangled-name='_ZN14wxFontProperty10OnSetValueEv' filepath='src/propgrid/advprops.cpp' line='612' column='1' visibility='default' binding='global' size-in-bits='64' elf-symbol-id='_ZN14wxFontProperty10OnSetValueEv@@WXU_3.2'>
          <parameter type-id='type-id-387' is-artificial='yes'/>
          <return type-id='type-id-30'/>
        </function-decl>
      </member-function>
      <member-function access='public' const='yes' vtable-offset='10'>
        <function-decl name='ValueToString' mangled-name='_ZNK14wxFontProperty13ValueToStringER9wxVarianti' filepath='src/propgrid/advprops.cpp' line='623' column='1' visibility='default' binding='global' size-in-bits='64' elf-symbol-id='_ZNK14wxFontProperty13ValueToStringER9wxVarianti@@WXU_3.2'>
          <parameter type-id='type-id-388' is-artificial='yes'/>
          <parameter type-id='type-id-389'/>
          <parameter type-id='type-id-19'/>
          <return type-id='type-id-61'/>
        </function-decl>
      </member-function>
      <member-function access='public' const='yes' vtable-offset='13'>
        <function-decl name='ChildChanged' mangled-name='_ZNK14wxFontProperty12ChildChangedER9wxVariantiS1_' filepath='src/propgrid/advprops.cpp' line='668' column='1' visibility='default' binding='global' size-in-bits='64' elf-symbol-id='_ZNK14wxFontProperty12ChildChangedER9wxVariantiS1_@@WXU_3.2'>
          <parameter type-id='type-id-388' is-artificial='yes'/>
          <parameter type-id='type-id-389'/>
          <parameter type-id='type-id-19'/>
          <parameter type-id='type-id-389'/>
          <return type-id='type-id-390'/>
        </function-decl>
      </member-function>
      <member-function access='public' const='yes' vtable-offset='14'>
        <function-decl name='DoGetEditorClass' mangled-name='_ZNK14wxFontProperty16DoGetEditorClassEv' filepath='src/propgrid/advprops.cpp' line='550' column='1' visibility='default' binding='global' size-in-bits='64' elf-symbol-id='_ZNK14wxFontProperty16DoGetEditorClassEv@@WXU_3.2'>
          <parameter type-id='type-id-388' is-artificial='yes'/>
          <return type-id='type-id-391'/>
        </function-decl>
      </member-function>
      <member-function access='public' vtable-offset='19'>
        <function-decl name='RefreshChildren' mangled-name='_ZN14wxFontProperty15RefreshChildrenEv' filepath='src/propgrid/advprops.cpp' line='655' column='1' visibility='default' binding='global' size-in-bits='64' elf-symbol-id='_ZN14wxFontProperty15RefreshChildrenEv@@WXU_3.2'>
          <parameter type-id='type-id-387' is-artificial='yes'/>
          <return type-id='type-id-30'/>
        </function-decl>
      </member-function>
      <member-function access='protected' vtable-offset='25'>
        <function-decl name='DisplayEditorDialog' mangled-name='_ZN14wxFontProperty19DisplayEditorDialogEP14wxPropertyGridR9wxVariant' filepath='src/propgrid/advprops.cpp' line='629' column='1' visibility='default' binding='global' size-in-bits='64' elf-symbol-id='_ZN14wxFontProperty19DisplayEditorDialogEP14wxPropertyGridR9wxVariant@@WXU_3.2'>
          <parameter type-id='type-id-387' is-artificial='yes'/>
          <parameter type-id='type-id-392'/>
          <parameter type-id='type-id-389'/>
          <return type-id='type-id-3'/>
        </function-decl>
      </member-function>
    </class-decl>
    <class-decl name='wxSystemColourProperty' size-in-bits='3264' visibility='default' filepath='include/wx/propgrid/advprops.h' line='162' column='1' id='type-id-393'>
      <base-class access='public' layout-offset-in-bits='0' type-id='type-id-394'/>
      <data-member access='public' static='yes'>
        <var-decl name='ms_classInfo' type-id='type-id-380' mangled-name='_ZN22wxSystemColourProperty12ms_classInfoE' visibility='default' filepath='src/propgrid/advprops.cpp' line='842' column='1' elf-symbol-id='_ZN22wxSystemColourProperty12ms_classInfoE@@WXU_3.2'/>
      </data-member>
      <member-function access='public' const='yes'>
        <function-decl name='QueryColourFromUser' mangled-name='_ZNK22wxSystemColourProperty19QueryColourFromUserER9wxVariant' filepath='src/propgrid/advprops.cpp' line='1141' column='1' visibility='default' binding='global' size-in-bits='64' elf-symbol-id='_ZNK22wxSystemColourProperty19QueryColourFromUserER9wxVariant@@WXU_3.2'>
          <parameter type-id='type-id-395' name='this' is-artificial='yes'/>
          <parameter type-id='type-id-389' name='variant' filepath='src/propgrid/advprops.cpp' line='1141' column='1'/>
          <return type-id='type-id-3'/>
        </function-decl>
      </member-function>
      <member-function access='protected' const='yes'>
        <function-decl name='ColToInd' mangled-name='_ZNK22wxSystemColourProperty8ColToIndERK8wxColour' filepath='src/propgrid/advprops.cpp' line='970' column='1' visibility='default' binding='global' size-in-bits='64' elf-symbol-id='_ZNK22wxSystemColourProperty8ColToIndERK8wxColour@@WXU_3.2'>
          <parameter type-id='type-id-395' name='this' is-artificial='yes'/>
          <parameter type-id='type-id-123' name='colour' filepath='src/propgrid/advprops.cpp' line='970' column='1'/>
          <return type-id='type-id-19'/>
        </function-decl>
      </member-function>
      <member-function access='public' const='yes'>
        <function-decl name='GetVal' mangled-name='_ZNK22wxSystemColourProperty6GetValEPK9wxVariant' filepath='src/propgrid/advprops.cpp' line='895' column='1' visibility='default' binding='global' size-in-bits='64' elf-symbol-id='_ZNK22wxSystemColourProperty6GetValEPK9wxVariant@@WXU_3.2'>
          <parameter type-id='type-id-395' name='this' is-artificial='yes'/>
          <parameter type-id='type-id-396' name='pVariant' filepath='src/propgrid/advprops.cpp' line='895' column='1'/>
          <return type-id='type-id-376'/>
        </function-decl>
      </member-function>
      <member-function access='protected' constructor='yes'>
        <function-decl name='wxSystemColourProperty' mangled-name='_ZN22wxSystemColourPropertyC2ERK8wxStringS2_PKPKcPKlP11wxPGChoicesRK8wxColour' filepath='src/propgrid/advprops.cpp' line='883' column='1' visibility='default' binding='global' size-in-bits='64' elf-symbol-id='_ZN22wxSystemColourPropertyC2ERK8wxStringS2_PKPKcPKlP11wxPGChoicesRK8wxColour@@WXU_3.2'>
          <parameter type-id='type-id-397' name='this' is-artificial='yes'/>
          <parameter type-id='type-id-126' name='label' filepath='src/propgrid/advprops.cpp' line='883' column='1'/>
          <parameter type-id='type-id-126' name='name' filepath='src/propgrid/advprops.cpp' line='883' column='1'/>
          <parameter type-id='type-id-398' name='labels' filepath='src/propgrid/advprops.cpp' line='884' column='1'/>
          <parameter type-id='type-id-399' name='values' filepath='src/propgrid/advprops.cpp' line='884' column='1'/>
          <parameter type-id='type-id-400' name='choicesCache' filepath='src/propgrid/advprops.cpp' line='884' column='1'/>
          <parameter type-id='type-id-123' name='value' filepath='src/propgrid/advprops.cpp' line='885' column='1'/>
          <return type-id='type-id-30'/>
        </function-decl>
      </member-function>
      <member-function access='protected' constructor='yes'>
        <function-decl name='wxSystemColourProperty' mangled-name='_ZN22wxSystemColourPropertyC2ERK8wxStringS2_PKPKcPKlP11wxPGChoicesRK21wxColourPropertyValue' filepath='src/propgrid/advprops.cpp' line='874' column='1' visibility='default' binding='global' size-in-bits='64' elf-symbol-id='_ZN22wxSystemColourPropertyC2ERK8wxStringS2_PKPKcPKlP11wxPGChoicesRK21wxColourPropertyValue@@WXU_3.2'>
          <parameter type-id='type-id-397' name='this' is-artificial='yes'/>
          <parameter type-id='type-id-126' name='label' filepath='src/propgrid/advprops.cpp' line='874' column='1'/>
          <parameter type-id='type-id-126' name='name' filepath='src/propgrid/advprops.cpp' line='874' column='1'/>
          <parameter type-id='type-id-398' name='labels' filepath='src/propgrid/advprops.cpp' line='875' column='1'/>
          <parameter type-id='type-id-399' name='values' filepath='src/propgrid/advprops.cpp' line='875' column='1'/>
          <parameter type-id='type-id-400' name='choicesCache' filepath='src/propgrid/advprops.cpp' line='875' column='1'/>
          <parameter type-id='type-id-401' name='value' filepath='src/propgrid/advprops.cpp' line='876' column='1'/>
          <return type-id='type-id-30'/>
        </function-decl>
      </member-function>
      <member-function access='public' constructor='yes'>
        <function-decl name='wxSystemColourProperty' mangled-name='_ZN22wxSystemColourPropertyC2ERK8wxStringS2_RK21wxColourPropertyValue' filepath='src/propgrid/advprops.cpp' line='862' column='1' visibility='default' binding='global' size-in-bits='64' elf-symbol-id='_ZN22wxSystemColourPropertyC2ERK8wxStringS2_RK21wxColourPropertyValue@@WXU_3.2'>
          <parameter type-id='type-id-397' name='this' is-artificial='yes'/>
          <parameter type-id='type-id-126' name='label' filepath='src/propgrid/advprops.cpp' line='862' column='1'/>
          <parameter type-id='type-id-126' name='name' filepath='src/propgrid/advprops.cpp' line='862' column='1'/>
          <parameter type-id='type-id-401' name='value' filepath='src/propgrid/advprops.cpp' line='863' column='1'/>
          <return type-id='type-id-30'/>
        </function-decl>
      </member-function>
      <member-function access='protected'>
        <function-decl name='Init' mangled-name='_ZN22wxSystemColourProperty4InitEiRK8wxColour' filepath='src/propgrid/advprops.cpp' line='845' column='1' visibility='default' binding='global' size-in-bits='64' elf-symbol-id='_ZN22wxSystemColourProperty4InitEiRK8wxColour@@WXU_3.2'>
          <parameter type-id='type-id-397' name='this' is-artificial='yes'/>
          <parameter type-id='type-id-19' name='type' filepath='src/propgrid/advprops.cpp' line='845' column='1'/>
          <parameter type-id='type-id-123' name='colour' filepath='src/propgrid/advprops.cpp' line='845' column='1'/>
          <return type-id='type-id-30'/>
        </function-decl>
      </member-function>
      <member-function access='public' static='yes'>
        <function-decl name='wxCreateObject' mangled-name='_ZN22wxSystemColourProperty14wxCreateObjectEv' filepath='src/propgrid/advprops.cpp' line='842' column='1' visibility='default' binding='global' size-in-bits='64' elf-symbol-id='_ZN22wxSystemColourProperty14wxCreateObjectEv@@WXU_3.2'>
          <return type-id='type-id-252'/>
        </function-decl>
      </member-function>
      <member-function access='public' destructor='yes' vtable-offset='-1'>
        <function-decl name='~wxSystemColourProperty' mangled-name='_ZN22wxSystemColourPropertyD4Ev' filepath='src/propgrid/advprops.cpp' line='892' column='1' visibility='default' binding='global' size-in-bits='64'>
          <parameter type-id='type-id-402' is-artificial='yes'/>
          <parameter type-id='type-id-19' is-artificial='yes'/>
          <return type-id='type-id-30'/>
        </function-decl>
      </member-function>
      <member-function access='public' destructor='yes' vtable-offset='-1'>
        <function-decl name='~wxSystemColourProperty' mangled-name='_ZN22wxSystemColourPropertyD0Ev' filepath='src/propgrid/advprops.cpp' line='892' column='1' visibility='default' binding='global' size-in-bits='64' elf-symbol-id='_ZN22wxSystemColourPropertyD0Ev@@WXU_3.2'>
          <parameter type-id='type-id-402' is-artificial='yes'/>
          <parameter type-id='type-id-19' is-artificial='yes'/>
          <return type-id='type-id-30'/>
        </function-decl>
      </member-function>
      <member-function access='public' destructor='yes' vtable-offset='-1'>
        <function-decl name='~wxSystemColourProperty' mangled-name='_ZN22wxSystemColourPropertyD2Ev' filepath='src/propgrid/advprops.cpp' line='892' column='1' visibility='default' binding='global' size-in-bits='64' elf-symbol-id='_ZN22wxSystemColourPropertyD2Ev@@WXU_3.2'>
          <parameter type-id='type-id-402' is-artificial='yes'/>
          <parameter type-id='type-id-19' is-artificial='yes'/>
          <return type-id='type-id-30'/>
        </function-decl>
      </member-function>
      <member-function access='public' const='yes' vtable-offset='2'>
        <function-decl name='GetClassInfo' mangled-name='_ZNK22wxSystemColourProperty12GetClassInfoEv' filepath='src/propgrid/advprops.cpp' line='842' column='1' visibility='default' binding='global' size-in-bits='64' elf-symbol-id='_ZNK22wxSystemColourProperty12GetClassInfoEv@@WXU_3.2'>
          <parameter type-id='type-id-403' is-artificial='yes'/>
          <return type-id='type-id-383'/>
        </function-decl>
      </member-function>
      <member-function access='public' vtable-offset='5'>
        <function-decl name='OnSetValue' mangled-name='_ZN22wxSystemColourProperty10OnSetValueEv' filepath='src/propgrid/advprops.cpp' line='992' column='1' visibility='default' binding='global' size-in-bits='64' elf-symbol-id='_ZN22wxSystemColourProperty10OnSetValueEv@@WXU_3.2'>
          <parameter type-id='type-id-402' is-artificial='yes'/>
          <return type-id='type-id-30'/>
        </function-decl>
      </member-function>
      <member-function access='public' const='yes' vtable-offset='8'>
        <function-decl name='StringToValue' mangled-name='_ZNK22wxSystemColourProperty13StringToValueER9wxVariantRK8wxStringi' filepath='src/propgrid/advprops.cpp' line='1358' column='1' visibility='default' binding='global' size-in-bits='64' elf-symbol-id='_ZNK22wxSystemColourProperty13StringToValueER9wxVariantRK8wxStringi@@WXU_3.2'>
          <parameter type-id='type-id-403' is-artificial='yes'/>
          <parameter type-id='type-id-389'/>
          <parameter type-id='type-id-126'/>
          <parameter type-id='type-id-19'/>
          <return type-id='type-id-3'/>
        </function-decl>
      </member-function>
      <member-function access='public' const='yes' vtable-offset='9'>
        <function-decl name='IntToValue' mangled-name='_ZNK22wxSystemColourProperty10IntToValueER9wxVariantii' filepath='src/propgrid/advprops.cpp' line='1184' column='1' visibility='default' binding='global' size-in-bits='64' elf-symbol-id='_ZNK22wxSystemColourProperty10IntToValueER9wxVariantii@@WXU_3.2'>
          <parameter type-id='type-id-403' is-artificial='yes'/>
          <parameter type-id='type-id-389'/>
          <parameter type-id='type-id-19'/>
          <parameter type-id='type-id-19'/>
          <return type-id='type-id-3'/>
        </function-decl>
      </member-function>
      <member-function access='public' const='yes' vtable-offset='10'>
        <function-decl name='ValueToString' mangled-name='_ZNK22wxSystemColourProperty13ValueToStringER9wxVarianti' filepath='src/propgrid/advprops.cpp' line='1101' column='1' visibility='default' binding='global' size-in-bits='64' elf-symbol-id='_ZNK22wxSystemColourProperty13ValueToStringER9wxVarianti@@WXU_3.2'>
          <parameter type-id='type-id-403' is-artificial='yes'/>
          <parameter type-id='type-id-389'/>
          <parameter type-id='type-id-19'/>
          <return type-id='type-id-61'/>
        </function-decl>
      </member-function>
      <member-function access='public' const='yes' vtable-offset='11'>
        <function-decl name='OnMeasureImage' mangled-name='_ZNK22wxSystemColourProperty14OnMeasureImageEi' filepath='src/propgrid/advprops.cpp' line='1129' column='1' visibility='default' binding='global' size-in-bits='64' elf-symbol-id='_ZNK22wxSystemColourProperty14OnMeasureImageEi@@WXU_3.2'>
          <parameter type-id='type-id-403' is-artificial='yes'/>
          <parameter type-id='type-id-19'/>
          <return type-id='type-id-287'/>
        </function-decl>
      </member-function>
      <member-function access='public' vtable-offset='12'>
        <function-decl name='OnEvent' mangled-name='_ZN22wxSystemColourProperty7OnEventEP14wxPropertyGridP8wxWindowR7wxEvent' filepath='src/propgrid/advprops.cpp' line='1208' column='1' visibility='default' binding='global' size-in-bits='64' elf-symbol-id='_ZN22wxSystemColourProperty7OnEventEP14wxPropertyGridP8wxWindowR7wxEvent@@WXU_3.2'>
          <parameter type-id='type-id-402' is-artificial='yes'/>
          <parameter type-id='type-id-392'/>
          <parameter type-id='type-id-283'/>
          <parameter type-id='type-id-231'/>
          <return type-id='type-id-3'/>
        </function-decl>
      </member-function>
      <member-function access='public' const='yes' vtable-offset='14'>
        <function-decl name='DoGetEditorClass' mangled-name='_ZNK22wxSystemColourProperty16DoGetEditorClassEv' filepath='src/propgrid/advprops.cpp' line='842' column='1' visibility='default' binding='global' size-in-bits='64' elf-symbol-id='_ZNK22wxSystemColourProperty16DoGetEditorClassEv@@WXU_3.2'>
          <parameter type-id='type-id-403' is-artificial='yes'/>
          <return type-id='type-id-391'/>
        </function-decl>
      </member-function>
      <member-function access='public' vtable-offset='16'>
        <function-decl name='OnCustomPaint' mangled-name='_ZN22wxSystemColourProperty13OnCustomPaintER4wxDCRK6wxRectR13wxPGPaintData' filepath='src/propgrid/advprops.cpp' line='1298' column='1' visibility='default' binding='global' size-in-bits='64' elf-symbol-id='_ZN22wxSystemColourProperty13OnCustomPaintER4wxDCRK6wxRectR13wxPGPaintData@@WXU_3.2'>
          <parameter type-id='type-id-402' is-artificial='yes'/>
          <parameter type-id='type-id-404'/>
          <parameter type-id='type-id-405'/>
          <parameter type-id='type-id-406'/>
          <return type-id='type-id-30'/>
        </function-decl>
      </member-function>
      <member-function access='public' vtable-offset='20'>
        <function-decl name='DoSetAttribute' mangled-name='_ZN22wxSystemColourProperty14DoSetAttributeERK8wxStringR9wxVariant' filepath='src/propgrid/advprops.cpp' line='1466' column='1' visibility='default' binding='global' size-in-bits='64' elf-symbol-id='_ZN22wxSystemColourProperty14DoSetAttributeERK8wxStringR9wxVariant@@WXU_3.2'>
          <parameter type-id='type-id-402' is-artificial='yes'/>
          <parameter type-id='type-id-126'/>
          <parameter type-id='type-id-389'/>
          <return type-id='type-id-3'/>
        </function-decl>
      </member-function>
      <member-function access='public' const='yes' vtable-offset='26'>
        <function-decl name='ColourToString' mangled-name='_ZNK22wxSystemColourProperty14ColourToStringERK8wxColourii' filepath='src/propgrid/advprops.cpp' line='1071' column='1' visibility='default' binding='global' size-in-bits='64' elf-symbol-id='_ZNK22wxSystemColourProperty14ColourToStringERK8wxColourii@@WXU_3.2'>
          <parameter type-id='type-id-403' is-artificial='yes'/>
          <parameter type-id='type-id-123'/>
          <parameter type-id='type-id-19'/>
          <parameter type-id='type-id-19'/>
          <return type-id='type-id-61'/>
        </function-decl>
      </member-function>
      <member-function access='public' const='yes' vtable-offset='27'>
        <function-decl name='GetCustomColourIndex' mangled-name='_ZNK22wxSystemColourProperty20GetCustomColourIndexEv' filepath='src/propgrid/advprops.cpp' line='1135' column='1' visibility='default' binding='global' size-in-bits='64' elf-symbol-id='_ZNK22wxSystemColourProperty20GetCustomColourIndexEv@@WXU_3.2'>
          <parameter type-id='type-id-403' is-artificial='yes'/>
          <return type-id='type-id-19'/>
        </function-decl>
      </member-function>
      <member-function access='public' const='yes' vtable-offset='28'>
        <function-decl name='GetColour' mangled-name='_ZNK22wxSystemColourProperty9GetColourEi' filepath='src/propgrid/advprops.cpp' line='1066' column='1' visibility='default' binding='global' size-in-bits='64' elf-symbol-id='_ZNK22wxSystemColourProperty9GetColourEi@@WXU_3.2'>
          <parameter type-id='type-id-403' is-artificial='yes'/>
          <parameter type-id='type-id-19'/>
          <return type-id='type-id-379'/>
        </function-decl>
      </member-function>
      <member-function access='protected' const='yes' vtable-offset='29'>
        <function-decl name='DoTranslateVal' mangled-name='_ZNK22wxSystemColourProperty14DoTranslateValER21wxColourPropertyValue' filepath='src/propgrid/advprops.cpp' line='965' column='1' visibility='default' binding='global' size-in-bits='64' elf-symbol-id='_ZNK22wxSystemColourProperty14DoTranslateValER21wxColourPropertyValue@@WXU_3.2'>
          <parameter type-id='type-id-403' is-artificial='yes'/>
          <parameter type-id='type-id-407'/>
          <return type-id='type-id-390'/>
        </function-decl>
      </member-function>
    </class-decl>
    <class-decl name='wxColourProperty' size-in-bits='3264' visibility='default' filepath='include/wx/propgrid/advprops.h' line='237' column='1' id='type-id-408'>
      <base-class access='public' layout-offset-in-bits='0' type-id='type-id-393'/>
      <data-member access='public' static='yes'>
        <var-decl name='ms_classInfo' type-id='type-id-380' mangled-name='_ZN16wxColourProperty12ms_classInfoE' visibility='default' filepath='src/propgrid/advprops.cpp' line='1567' column='1' elf-symbol-id='_ZN16wxColourProperty12ms_classInfoE@@WXU_3.2'/>
      </data-member>
      <member-function access='private'>
        <function-decl name='Init' mangled-name='_ZN16wxColourProperty4InitE8wxColour' filepath='src/propgrid/advprops.cpp' line='1610' column='1' visibility='default' binding='global' size-in-bits='64' elf-symbol-id='_ZN16wxColourProperty4InitE8wxColour@@WXU_3.2'>
          <parameter type-id='type-id-409' name='this' is-artificial='yes'/>
          <parameter type-id='type-id-379' name='colour' filepath='src/propgrid/advprops.cpp' line='1610' column='1'/>
          <return type-id='type-id-30'/>
        </function-decl>
      </member-function>
      <member-function access='public' constructor='yes'>
        <function-decl name='wxColourProperty' mangled-name='_ZN16wxColourPropertyC2ERK8wxStringS2_RK8wxColour' filepath='src/propgrid/advprops.cpp' line='1572' column='1' visibility='default' binding='global' size-in-bits='64' elf-symbol-id='_ZN16wxColourPropertyC2ERK8wxStringS2_RK8wxColour@@WXU_3.2'>
          <parameter type-id='type-id-409' name='this' is-artificial='yes'/>
          <parameter type-id='type-id-126' name='label' filepath='src/propgrid/advprops.cpp' line='1572' column='1'/>
          <parameter type-id='type-id-126' name='name' filepath='src/propgrid/advprops.cpp' line='1573' column='1'/>
          <parameter type-id='type-id-123' name='value' filepath='src/propgrid/advprops.cpp' line='1574' column='1'/>
          <return type-id='type-id-30'/>
        </function-decl>
      </member-function>
      <member-function access='public' static='yes'>
        <function-decl name='wxCreateObject' mangled-name='_ZN16wxColourProperty14wxCreateObjectEv' filepath='src/propgrid/advprops.cpp' line='1567' column='1' visibility='default' binding='global' size-in-bits='64' elf-symbol-id='_ZN16wxColourProperty14wxCreateObjectEv@@WXU_3.2'>
          <return type-id='type-id-252'/>
        </function-decl>
      </member-function>
      <member-function access='public' destructor='yes' vtable-offset='-1'>
        <function-decl name='~wxColourProperty' mangled-name='_ZN16wxColourPropertyD4Ev' filepath='src/propgrid/advprops.cpp' line='1606' column='1' visibility='default' binding='global' size-in-bits='64'>
          <parameter type-id='type-id-410' is-artificial='yes'/>
          <parameter type-id='type-id-19' is-artificial='yes'/>
          <return type-id='type-id-30'/>
        </function-decl>
      </member-function>
      <member-function access='public' destructor='yes' vtable-offset='-1'>
        <function-decl name='~wxColourProperty' mangled-name='_ZN16wxColourPropertyD0Ev' filepath='src/propgrid/advprops.cpp' line='1606' column='1' visibility='default' binding='global' size-in-bits='64' elf-symbol-id='_ZN16wxColourPropertyD0Ev@@WXU_3.2'>
          <parameter type-id='type-id-410' is-artificial='yes'/>
          <parameter type-id='type-id-19' is-artificial='yes'/>
          <return type-id='type-id-30'/>
        </function-decl>
      </member-function>
      <member-function access='public' destructor='yes' vtable-offset='-1'>
        <function-decl name='~wxColourProperty' mangled-name='_ZN16wxColourPropertyD2Ev' filepath='src/propgrid/advprops.cpp' line='1606' column='1' visibility='default' binding='global' size-in-bits='64' elf-symbol-id='_ZN16wxColourPropertyD2Ev@@WXU_3.2'>
          <parameter type-id='type-id-410' is-artificial='yes'/>
          <parameter type-id='type-id-19' is-artificial='yes'/>
          <return type-id='type-id-30'/>
        </function-decl>
      </member-function>
      <member-function access='public' const='yes' vtable-offset='2'>
        <function-decl name='GetClassInfo' mangled-name='_ZNK16wxColourProperty12GetClassInfoEv' filepath='src/propgrid/advprops.cpp' line='1567' column='1' visibility='default' binding='global' size-in-bits='64' elf-symbol-id='_ZNK16wxColourProperty12GetClassInfoEv@@WXU_3.2'>
          <parameter type-id='type-id-411' is-artificial='yes'/>
          <return type-id='type-id-383'/>
        </function-decl>
      </member-function>
      <member-function access='public' const='yes' vtable-offset='10'>
        <function-decl name='ValueToString' mangled-name='_ZNK16wxColourProperty13ValueToStringER9wxVarianti' filepath='src/propgrid/advprops.cpp' line='1621' column='1' visibility='default' binding='global' size-in-bits='64' elf-symbol-id='_ZNK16wxColourProperty13ValueToStringER9wxVarianti@@WXU_3.2'>
          <parameter type-id='type-id-411' is-artificial='yes'/>
          <parameter type-id='type-id-389'/>
          <parameter type-id='type-id-19'/>
          <return type-id='type-id-61'/>
        </function-decl>
      </member-function>
      <member-function access='public' const='yes' vtable-offset='14'>
        <function-decl name='DoGetEditorClass' mangled-name='_ZNK16wxColourProperty16DoGetEditorClassEv' filepath='src/propgrid/advprops.cpp' line='1567' column='1' visibility='default' binding='global' size-in-bits='64' elf-symbol-id='_ZNK16wxColourProperty16DoGetEditorClassEv@@WXU_3.2'>
          <parameter type-id='type-id-411' is-artificial='yes'/>
          <return type-id='type-id-391'/>
        </function-decl>
      </member-function>
      <member-function access='public' const='yes' vtable-offset='28'>
        <function-decl name='GetColour' mangled-name='_ZNK16wxColourProperty9GetColourEi' filepath='src/propgrid/advprops.cpp' line='1633' column='1' visibility='default' binding='global' size-in-bits='64' elf-symbol-id='_ZNK16wxColourProperty9GetColourEi@@WXU_3.2'>
          <parameter type-id='type-id-411' is-artificial='yes'/>
          <parameter type-id='type-id-19'/>
          <return type-id='type-id-379'/>
        </function-decl>
      </member-function>
      <member-function access='protected' const='yes' vtable-offset='29'>
        <function-decl name='DoTranslateVal' mangled-name='_ZNK16wxColourProperty14DoTranslateValER21wxColourPropertyValue' filepath='src/propgrid/advprops.cpp' line='1638' column='1' visibility='default' binding='global' size-in-bits='64' elf-symbol-id='_ZNK16wxColourProperty14DoTranslateValER21wxColourPropertyValue@@WXU_3.2'>
          <parameter type-id='type-id-411' is-artificial='yes'/>
          <parameter type-id='type-id-407'/>
          <return type-id='type-id-390'/>
        </function-decl>
      </member-function>
    </class-decl>
    <class-decl name='wxCursorProperty' size-in-bits='3264' visibility='default' filepath='include/wx/propgrid/advprops.h' line='259' column='1' id='type-id-412'>
      <base-class access='public' layout-offset-in-bits='0' type-id='type-id-394'/>
      <data-member access='public' static='yes'>
        <var-decl name='ms_classInfo' type-id='type-id-380' mangled-name='_ZN16wxCursorProperty12ms_classInfoE' visibility='default' filepath='src/propgrid/advprops.cpp' line='1716' column='1' elf-symbol-id='_ZN16wxCursorProperty12ms_classInfoE@@WXU_3.2'/>
      </data-member>
      <member-function access='public' constructor='yes'>
        <function-decl name='wxCursorProperty' mangled-name='_ZN16wxCursorPropertyC2ERK8wxStringS2_i' filepath='src/propgrid/advprops.cpp' line='1720' column='1' visibility='default' binding='global' size-in-bits='64' elf-symbol-id='_ZN16wxCursorPropertyC2ERK8wxStringS2_i@@WXU_3.2'>
          <parameter type-id='type-id-413' name='this' is-artificial='yes'/>
          <parameter type-id='type-id-126' name='label' filepath='src/propgrid/advprops.cpp' line='1720' column='1'/>
          <parameter type-id='type-id-126' name='name' filepath='src/propgrid/advprops.cpp' line='1720' column='1'/>
          <parameter type-id='type-id-19' name='value' filepath='src/propgrid/advprops.cpp' line='1721' column='1'/>
          <return type-id='type-id-30'/>
        </function-decl>
      </member-function>
      <member-function access='public' static='yes'>
        <function-decl name='wxCreateObject' mangled-name='_ZN16wxCursorProperty14wxCreateObjectEv' filepath='src/propgrid/advprops.cpp' line='1716' column='1' visibility='default' binding='global' size-in-bits='64' elf-symbol-id='_ZN16wxCursorProperty14wxCreateObjectEv@@WXU_3.2'>
          <return type-id='type-id-252'/>
        </function-decl>
      </member-function>
      <member-function access='public' destructor='yes' vtable-offset='-1'>
        <function-decl name='~wxCursorProperty' mangled-name='_ZN16wxCursorPropertyD4Ev' filepath='src/propgrid/advprops.cpp' line='1732' column='1' visibility='default' binding='global' size-in-bits='64'>
          <parameter type-id='type-id-414' is-artificial='yes'/>
          <parameter type-id='type-id-19' is-artificial='yes'/>
          <return type-id='type-id-30'/>
        </function-decl>
      </member-function>
      <member-function access='public' destructor='yes' vtable-offset='-1'>
        <function-decl name='~wxCursorProperty' mangled-name='_ZN16wxCursorPropertyD0Ev' filepath='src/propgrid/advprops.cpp' line='1732' column='1' visibility='default' binding='global' size-in-bits='64' elf-symbol-id='_ZN16wxCursorPropertyD0Ev@@WXU_3.2'>
          <parameter type-id='type-id-414' is-artificial='yes'/>
          <parameter type-id='type-id-19' is-artificial='yes'/>
          <return type-id='type-id-30'/>
        </function-decl>
      </member-function>
      <member-function access='public' destructor='yes' vtable-offset='-1'>
        <function-decl name='~wxCursorProperty' mangled-name='_ZN16wxCursorPropertyD2Ev' filepath='src/propgrid/advprops.cpp' line='1732' column='1' visibility='default' binding='global' size-in-bits='64' elf-symbol-id='_ZN16wxCursorPropertyD2Ev@@WXU_3.2'>
          <parameter type-id='type-id-414' is-artificial='yes'/>
          <parameter type-id='type-id-19' is-artificial='yes'/>
          <return type-id='type-id-30'/>
        </function-decl>
      </member-function>
      <member-function access='public' const='yes' vtable-offset='2'>
        <function-decl name='GetClassInfo' mangled-name='_ZNK16wxCursorProperty12GetClassInfoEv' filepath='src/propgrid/advprops.cpp' line='1716' column='1' visibility='default' binding='global' size-in-bits='64' elf-symbol-id='_ZNK16wxCursorProperty12GetClassInfoEv@@WXU_3.2'>
          <parameter type-id='type-id-415' is-artificial='yes'/>
          <return type-id='type-id-383'/>
        </function-decl>
      </member-function>
      <member-function access='public' const='yes' vtable-offset='10'>
        <function-decl name='ValueToString' mangled-name='_ZNK16wxCursorProperty13ValueToStringER9wxVarianti' filepath='src/propgrid/advprops.cpp' line='1736' column='1' visibility='default' binding='global' size-in-bits='64' elf-symbol-id='_ZNK16wxCursorProperty13ValueToStringER9wxVarianti@@WXU_3.2'>
          <parameter type-id='type-id-415' is-artificial='yes'/>
          <parameter type-id='type-id-389'/>
          <parameter type-id='type-id-19'/>
          <return type-id='type-id-61'/>
        </function-decl>
      </member-function>
      <member-function access='public' const='yes' vtable-offset='11'>
        <function-decl name='OnMeasureImage' mangled-name='_ZNK16wxCursorProperty14OnMeasureImageEi' filepath='src/propgrid/advprops.cpp' line='1742' column='1' visibility='default' binding='global' size-in-bits='64' elf-symbol-id='_ZNK16wxCursorProperty14OnMeasureImageEi@@WXU_3.2'>
          <parameter type-id='type-id-415' is-artificial='yes'/>
          <parameter type-id='type-id-19'/>
          <return type-id='type-id-287'/>
        </function-decl>
      </member-function>
      <member-function access='public' vtable-offset='16'>
        <function-decl name='OnCustomPaint' mangled-name='_ZN16wxCursorProperty13OnCustomPaintER4wxDCRK6wxRectR13wxPGPaintData' filepath='src/propgrid/advprops.cpp' line='1755' column='1' visibility='default' binding='global' size-in-bits='64' elf-symbol-id='_ZN16wxCursorProperty13OnCustomPaintER4wxDCRK6wxRectR13wxPGPaintData@@WXU_3.2'>
          <parameter type-id='type-id-414' is-artificial='yes'/>
          <parameter type-id='type-id-404'/>
          <parameter type-id='type-id-405'/>
          <parameter type-id='type-id-406'/>
          <return type-id='type-id-30'/>
        </function-decl>
      </member-function>
    </class-decl>
    <class-decl name='wxImageFileProperty' size-in-bits='5184' visibility='default' filepath='include/wx/propgrid/advprops.h' line='283' column='1' id='type-id-416'>
      <base-class access='public' layout-offset-in-bits='0' type-id='type-id-417'/>
      <data-member access='public' static='yes'>
        <var-decl name='ms_classInfo' type-id='type-id-380' mangled-name='_ZN19wxImageFileProperty12ms_classInfoE' visibility='default' filepath='src/propgrid/advprops.cpp' line='1840' column='1' elf-symbol-id='_ZN19wxImageFileProperty12ms_classInfoE@@WXU_3.2'/>
      </data-member>
      <data-member access='protected' layout-offset-in-bits='4928'>
        <var-decl name='m_image' type-id='type-id-418' visibility='default' filepath='include/wx/propgrid/advprops.h' line='301' column='1'/>
      </data-member>
      <data-member access='private' layout-offset-in-bits='5056'>
        <var-decl name='m_bitmap' type-id='type-id-419' visibility='default' filepath='include/wx/propgrid/advprops.h' line='307' column='1'/>
      </data-member>
      <member-function access='private'>
        <function-decl name='LoadImageFromFile' mangled-name='_ZN19wxImageFileProperty17LoadImageFromFileEv' filepath='src/propgrid/advprops.cpp' line='1871' column='1' visibility='default' binding='global' size-in-bits='64' elf-symbol-id='_ZN19wxImageFileProperty17LoadImageFromFileEv@@WXU_3.2'>
          <parameter type-id='type-id-420' name='this' is-artificial='yes'/>
          <return type-id='type-id-30'/>
        </function-decl>
      </member-function>
      <member-function access='protected'>
        <function-decl name='SetImage' mangled-name='_ZN19wxImageFileProperty8SetImageERK7wxImage' filepath='src/propgrid/advprops.cpp' line='1865' column='1' visibility='default' binding='global' size-in-bits='64' elf-symbol-id='_ZN19wxImageFileProperty8SetImageERK7wxImage@@WXU_3.2'>
          <parameter type-id='type-id-420' name='this' is-artificial='yes'/>
          <parameter type-id='type-id-421' name='img' filepath='src/propgrid/advprops.cpp' line='1865' column='1'/>
          <return type-id='type-id-30'/>
        </function-decl>
      </member-function>
      <member-function access='public' constructor='yes'>
        <function-decl name='wxImageFileProperty' mangled-name='_ZN19wxImageFilePropertyC2ERK8wxStringS2_S2_' filepath='src/propgrid/advprops.cpp' line='1842' column='1' visibility='default' binding='global' size-in-bits='64' elf-symbol-id='_ZN19wxImageFilePropertyC2ERK8wxStringS2_S2_@@WXU_3.2'>
          <parameter type-id='type-id-420' name='this' is-artificial='yes'/>
          <parameter type-id='type-id-126' name='label' filepath='src/propgrid/advprops.cpp' line='1842' column='1'/>
          <parameter type-id='type-id-126' name='name' filepath='src/propgrid/advprops.cpp' line='1842' column='1'/>
          <parameter type-id='type-id-126' name='value' filepath='src/propgrid/advprops.cpp' line='1843' column='1'/>
          <return type-id='type-id-30'/>
        </function-decl>
      </member-function>
      <member-function access='public' static='yes'>
        <function-decl name='wxCreateObject' mangled-name='_ZN19wxImageFileProperty14wxCreateObjectEv' filepath='src/propgrid/advprops.cpp' line='1840' column='1' visibility='default' binding='global' size-in-bits='64' elf-symbol-id='_ZN19wxImageFileProperty14wxCreateObjectEv@@WXU_3.2'>
          <return type-id='type-id-252'/>
        </function-decl>
      </member-function>
      <member-function access='public' destructor='yes' vtable-offset='-1'>
        <function-decl name='~wxImageFileProperty' mangled-name='_ZN19wxImageFilePropertyD4Ev' filepath='src/propgrid/advprops.cpp' line='1851' column='1' visibility='default' binding='global' size-in-bits='64'>
          <parameter type-id='type-id-422' is-artificial='yes'/>
          <parameter type-id='type-id-19' is-artificial='yes'/>
          <return type-id='type-id-30'/>
        </function-decl>
      </member-function>
      <member-function access='public' destructor='yes' vtable-offset='-1'>
        <function-decl name='~wxImageFileProperty' mangled-name='_ZN19wxImageFilePropertyD0Ev' filepath='src/propgrid/advprops.cpp' line='1851' column='1' visibility='default' binding='global' size-in-bits='64' elf-symbol-id='_ZN19wxImageFilePropertyD0Ev@@WXU_3.2'>
          <parameter type-id='type-id-422' is-artificial='yes'/>
          <parameter type-id='type-id-19' is-artificial='yes'/>
          <return type-id='type-id-30'/>
        </function-decl>
      </member-function>
      <member-function access='public' destructor='yes' vtable-offset='-1'>
        <function-decl name='~wxImageFileProperty' mangled-name='_ZN19wxImageFilePropertyD2Ev' filepath='src/propgrid/advprops.cpp' line='1851' column='1' visibility='default' binding='global' size-in-bits='64' elf-symbol-id='_ZN19wxImageFilePropertyD2Ev@@WXU_3.2'>
          <parameter type-id='type-id-422' is-artificial='yes'/>
          <parameter type-id='type-id-19' is-artificial='yes'/>
          <return type-id='type-id-30'/>
        </function-decl>
      </member-function>
      <member-function access='public' const='yes' vtable-offset='2'>
        <function-decl name='GetClassInfo' mangled-name='_ZNK19wxImageFileProperty12GetClassInfoEv' filepath='src/propgrid/advprops.cpp' line='1840' column='1' visibility='default' binding='global' size-in-bits='64' elf-symbol-id='_ZNK19wxImageFileProperty12GetClassInfoEv@@WXU_3.2'>
          <parameter type-id='type-id-423' is-artificial='yes'/>
          <return type-id='type-id-383'/>
        </function-decl>
      </member-function>
      <member-function access='public' vtable-offset='5'>
        <function-decl name='OnSetValue' mangled-name='_ZN19wxImageFileProperty10OnSetValueEv' filepath='src/propgrid/advprops.cpp' line='1855' column='1' visibility='default' binding='global' size-in-bits='64' elf-symbol-id='_ZN19wxImageFileProperty10OnSetValueEv@@WXU_3.2'>
          <parameter type-id='type-id-422' is-artificial='yes'/>
          <return type-id='type-id-30'/>
        </function-decl>
      </member-function>
      <member-function access='public' const='yes' vtable-offset='11'>
        <function-decl name='OnMeasureImage' mangled-name='_ZNK19wxImageFileProperty14OnMeasureImageEi' filepath='src/propgrid/advprops.cpp' line='1882' column='1' visibility='default' binding='global' size-in-bits='64' elf-symbol-id='_ZNK19wxImageFileProperty14OnMeasureImageEi@@WXU_3.2'>
          <parameter type-id='type-id-423' is-artificial='yes'/>
          <parameter type-id='type-id-19'/>
          <return type-id='type-id-287'/>
        </function-decl>
      </member-function>
      <member-function access='public' vtable-offset='16'>
        <function-decl name='OnCustomPaint' mangled-name='_ZN19wxImageFileProperty13OnCustomPaintER4wxDCRK6wxRectR13wxPGPaintData' filepath='src/propgrid/advprops.cpp' line='1887' column='1' visibility='default' binding='global' size-in-bits='64' elf-symbol-id='_ZN19wxImageFileProperty13OnCustomPaintER4wxDCRK6wxRectR13wxPGPaintData@@WXU_3.2'>
          <parameter type-id='type-id-422' is-artificial='yes'/>
          <parameter type-id='type-id-404'/>
          <parameter type-id='type-id-405'/>
          <parameter type-id='type-id-406'/>
          <return type-id='type-id-30'/>
        </function-decl>
      </member-function>
    </class-decl>
    <class-decl name='wxMultiChoiceProperty' size-in-bits='4160' visibility='default' filepath='include/wx/propgrid/advprops.h' line='317' column='1' id='type-id-424'>
      <base-class access='public' layout-offset-in-bits='0' type-id='type-id-385'/>
      <data-member access='public' static='yes'>
        <var-decl name='ms_classInfo' type-id='type-id-380' mangled-name='_ZN21wxMultiChoiceProperty12ms_classInfoE' visibility='default' filepath='src/propgrid/advprops.cpp' line='1932' column='1' elf-symbol-id='_ZN21wxMultiChoiceProperty12ms_classInfoE@@WXU_3.2'/>
      </data-member>
      <data-member access='protected' layout-offset-in-bits='3712'>
        <var-decl name='m_display' type-id='type-id-61' visibility='default' filepath='include/wx/propgrid/advprops.h' line='365' column='1'/>
      </data-member>
      <data-member access='protected' layout-offset-in-bits='4096'>
        <var-decl name='m_userStringMode' type-id='type-id-19' visibility='default' filepath='include/wx/propgrid/advprops.h' line='367' column='1'/>
      </data-member>
      <member-function access='protected' const='yes'>
        <function-decl name='GetValueAsIndices' mangled-name='_ZNK21wxMultiChoiceProperty17GetValueAsIndicesEv' filepath='src/propgrid/advprops.cpp' line='2013' column='1' visibility='default' binding='global' size-in-bits='64' elf-symbol-id='_ZNK21wxMultiChoiceProperty17GetValueAsIndicesEv@@WXU_3.2'>
          <parameter type-id='type-id-425' name='this' is-artificial='yes'/>
          <return type-id='type-id-219'/>
        </function-decl>
      </member-function>
      <member-function access='protected' const='yes'>
        <function-decl name='GenerateValueAsString' mangled-name='_ZNK21wxMultiChoiceProperty21GenerateValueAsStringERK9wxVariant' filepath='src/propgrid/advprops.cpp' line='1990' column='1' visibility='default' binding='global' size-in-bits='64' elf-symbol-id='_ZNK21wxMultiChoiceProperty21GenerateValueAsStringERK9wxVariant@@WXU_3.2'>
          <parameter type-id='type-id-425' name='this' is-artificial='yes'/>
          <parameter type-id='type-id-426' name='value' filepath='src/propgrid/advprops.cpp' line='1990' column='1'/>
          <return type-id='type-id-61'/>
        </function-decl>
      </member-function>
      <member-function access='public' constructor='yes'>
        <function-decl name='wxMultiChoiceProperty' mangled-name='_ZN21wxMultiChoicePropertyC2ERK8wxStringS2_RK13wxArrayString' filepath='src/propgrid/advprops.cpp' line='1959' column='1' visibility='default' binding='global' size-in-bits='64' elf-symbol-id='_ZN21wxMultiChoicePropertyC2ERK8wxStringS2_RK13wxArrayString@@WXU_3.2'>
          <parameter type-id='type-id-427' name='this' is-artificial='yes'/>
          <parameter type-id='type-id-126' name='label' filepath='src/propgrid/advprops.cpp' line='1959' column='1'/>
          <parameter type-id='type-id-126' name='name' filepath='src/propgrid/advprops.cpp' line='1960' column='1'/>
          <parameter type-id='type-id-428' name='value' filepath='src/propgrid/advprops.cpp' line='1961' column='1'/>
          <return type-id='type-id-30'/>
        </function-decl>
      </member-function>
      <member-function access='public' constructor='yes'>
        <function-decl name='wxMultiChoiceProperty' mangled-name='_ZN21wxMultiChoicePropertyC2ERK8wxStringS2_RK13wxArrayStringS5_' filepath='src/propgrid/advprops.cpp' line='1947' column='1' visibility='default' binding='global' size-in-bits='64' elf-symbol-id='_ZN21wxMultiChoicePropertyC2ERK8wxStringS2_RK13wxArrayStringS5_@@WXU_3.2'>
          <parameter type-id='type-id-427' name='this' is-artificial='yes'/>
          <parameter type-id='type-id-126' name='label' filepath='src/propgrid/advprops.cpp' line='1947' column='1'/>
          <parameter type-id='type-id-126' name='name' filepath='src/propgrid/advprops.cpp' line='1948' column='1'/>
          <parameter type-id='type-id-428' name='strings' filepath='src/propgrid/advprops.cpp' line='1949' column='1'/>
          <parameter type-id='type-id-428' name='value' filepath='src/propgrid/advprops.cpp' line='1950' column='1'/>
          <return type-id='type-id-30'/>
        </function-decl>
      </member-function>
      <member-function access='public' constructor='yes'>
        <function-decl name='wxMultiChoiceProperty' mangled-name='_ZN21wxMultiChoicePropertyC2ERK8wxStringS2_RK11wxPGChoicesRK13wxArrayString' filepath='src/propgrid/advprops.cpp' line='1935' column='1' visibility='default' binding='global' size-in-bits='64' elf-symbol-id='_ZN21wxMultiChoicePropertyC2ERK8wxStringS2_RK11wxPGChoicesRK13wxArrayString@@WXU_3.2'>
          <parameter type-id='type-id-427' name='this' is-artificial='yes'/>
          <parameter type-id='type-id-126' name='label' filepath='src/propgrid/advprops.cpp' line='1935' column='1'/>
          <parameter type-id='type-id-126' name='name' filepath='src/propgrid/advprops.cpp' line='1936' column='1'/>
          <parameter type-id='type-id-429' name='choices' filepath='src/propgrid/advprops.cpp' line='1937' column='1'/>
          <parameter type-id='type-id-428' name='value' filepath='src/propgrid/advprops.cpp' line='1938' column='1'/>
          <return type-id='type-id-30'/>
        </function-decl>
      </member-function>
      <member-function access='public' static='yes'>
        <function-decl name='wxCreateObject' mangled-name='_ZN21wxMultiChoiceProperty14wxCreateObjectEv' filepath='src/propgrid/advprops.cpp' line='1932' column='1' visibility='default' binding='global' size-in-bits='64' elf-symbol-id='_ZN21wxMultiChoiceProperty14wxCreateObjectEv@@WXU_3.2'>
          <return type-id='type-id-252'/>
        </function-decl>
      </member-function>
      <member-function access='public' destructor='yes' vtable-offset='-1'>
        <function-decl name='~wxMultiChoiceProperty' mangled-name='_ZN21wxMultiChoicePropertyD4Ev' filepath='src/propgrid/advprops.cpp' line='1971' column='1' visibility='default' binding='global' size-in-bits='64'>
          <parameter type-id='type-id-430' is-artificial='yes'/>
          <parameter type-id='type-id-19' is-artificial='yes'/>
          <return type-id='type-id-30'/>
        </function-decl>
      </member-function>
      <member-function access='public' destructor='yes' vtable-offset='-1'>
        <function-decl name='~wxMultiChoiceProperty' mangled-name='_ZN21wxMultiChoicePropertyD0Ev' filepath='src/propgrid/advprops.cpp' line='1971' column='1' visibility='default' binding='global' size-in-bits='64' elf-symbol-id='_ZN21wxMultiChoicePropertyD0Ev@@WXU_3.2'>
          <parameter type-id='type-id-430' is-artificial='yes'/>
          <parameter type-id='type-id-19' is-artificial='yes'/>
          <return type-id='type-id-30'/>
        </function-decl>
      </member-function>
      <member-function access='public' destructor='yes' vtable-offset='-1'>
        <function-decl name='~wxMultiChoiceProperty' mangled-name='_ZN21wxMultiChoicePropertyD2Ev' filepath='src/propgrid/advprops.cpp' line='1971' column='1' visibility='default' binding='global' size-in-bits='64' elf-symbol-id='_ZN21wxMultiChoicePropertyD2Ev@@WXU_3.2'>
          <parameter type-id='type-id-430' is-artificial='yes'/>
          <parameter type-id='type-id-19' is-artificial='yes'/>
          <return type-id='type-id-30'/>
        </function-decl>
      </member-function>
      <member-function access='public' const='yes' vtable-offset='2'>
        <function-decl name='GetClassInfo' mangled-name='_ZNK21wxMultiChoiceProperty12GetClassInfoEv' filepath='src/propgrid/advprops.cpp' line='1932' column='1' visibility='default' binding='global' size-in-bits='64' elf-symbol-id='_ZNK21wxMultiChoiceProperty12GetClassInfoEv@@WXU_3.2'>
          <parameter type-id='type-id-431' is-artificial='yes'/>
          <return type-id='type-id-383'/>
        </function-decl>
      </member-function>
      <member-function access='public' vtable-offset='5'>
        <function-decl name='OnSetValue' mangled-name='_ZN21wxMultiChoiceProperty10OnSetValueEv' filepath='src/propgrid/advprops.cpp' line='1975' column='1' visibility='default' binding='global' size-in-bits='64' elf-symbol-id='_ZN21wxMultiChoiceProperty10OnSetValueEv@@WXU_3.2'>
          <parameter type-id='type-id-430' is-artificial='yes'/>
          <return type-id='type-id-30'/>
        </function-decl>
      </member-function>
      <member-function access='public' const='yes' vtable-offset='8'>
        <function-decl name='StringToValue' mangled-name='_ZNK21wxMultiChoiceProperty13StringToValueER9wxVariantRK8wxStringi' filepath='src/propgrid/advprops.cpp' line='2097' column='1' visibility='default' binding='global' size-in-bits='64' elf-symbol-id='_ZNK21wxMultiChoiceProperty13StringToValueER9wxVariantRK8wxStringi@@WXU_3.2'>
          <parameter type-id='type-id-431' is-artificial='yes'/>
          <parameter type-id='type-id-389'/>
          <parameter type-id='type-id-126'/>
          <parameter type-id='type-id-19'/>
          <return type-id='type-id-3'/>
        </function-decl>
      </member-function>
      <member-function access='public' const='yes' vtable-offset='10'>
        <function-decl name='ValueToString' mangled-name='_ZNK21wxMultiChoiceProperty13ValueToStringER9wxVarianti' filepath='src/propgrid/advprops.cpp' line='1980' column='1' visibility='default' binding='global' size-in-bits='64' elf-symbol-id='_ZNK21wxMultiChoiceProperty13ValueToStringER9wxVarianti@@WXU_3.2'>
          <parameter type-id='type-id-431' is-artificial='yes'/>
          <parameter type-id='type-id-389'/>
          <parameter type-id='type-id-19'/>
          <return type-id='type-id-61'/>
        </function-decl>
      </member-function>
      <member-function access='public' const='yes' vtable-offset='14'>
        <function-decl name='DoGetEditorClass' mangled-name='_ZNK21wxMultiChoiceProperty16DoGetEditorClassEv' filepath='src/propgrid/advprops.cpp' line='1932' column='1' visibility='default' binding='global' size-in-bits='64' elf-symbol-id='_ZNK21wxMultiChoiceProperty16DoGetEditorClassEv@@WXU_3.2'>
          <parameter type-id='type-id-431' is-artificial='yes'/>
          <return type-id='type-id-391'/>
        </function-decl>
      </member-function>
      <member-function access='public' vtable-offset='20'>
        <function-decl name='DoSetAttribute' mangled-name='_ZN21wxMultiChoiceProperty14DoSetAttributeERK8wxStringR9wxVariant' filepath='src/propgrid/advprops.cpp' line='2112' column='1' visibility='default' binding='global' size-in-bits='64' elf-symbol-id='_ZN21wxMultiChoiceProperty14DoSetAttributeERK8wxStringR9wxVariant@@WXU_3.2'>
          <parameter type-id='type-id-430' is-artificial='yes'/>
          <parameter type-id='type-id-126'/>
          <parameter type-id='type-id-389'/>
          <return type-id='type-id-3'/>
        </function-decl>
      </member-function>
      <member-function access='protected' vtable-offset='25'>
        <function-decl name='DisplayEditorDialog' mangled-name='_ZN21wxMultiChoiceProperty19DisplayEditorDialogEP14wxPropertyGridR9wxVariant' filepath='src/propgrid/advprops.cpp' line='2040' column='1' visibility='default' binding='global' size-in-bits='64' elf-symbol-id='_ZN21wxMultiChoiceProperty19DisplayEditorDialogEP14wxPropertyGridR9wxVariant@@WXU_3.2'>
          <parameter type-id='type-id-430' is-artificial='yes'/>
          <parameter type-id='type-id-392'/>
          <parameter type-id='type-id-389'/>
          <return type-id='type-id-3'/>
        </function-decl>
      </member-function>
    </class-decl>
    <class-decl name='wxDateProperty' size-in-bits='3712' visibility='default' filepath='include/wx/propgrid/advprops.h' line='377' column='1' id='type-id-432'>
      <base-class access='public' layout-offset-in-bits='0' type-id='type-id-433'/>
      <data-member access='public' static='yes'>
        <var-decl name='ms_classInfo' type-id='type-id-380' mangled-name='_ZN14wxDateProperty12ms_classInfoE' visibility='default' filepath='src/propgrid/advprops.cpp' line='2138' column='1' elf-symbol-id='_ZN14wxDateProperty12ms_classInfoE@@WXU_3.2'/>
      </data-member>
      <data-member access='protected' layout-offset-in-bits='3264'>
        <var-decl name='m_format' type-id='type-id-61' visibility='default' filepath='include/wx/propgrid/advprops.h' line='423' column='1'/>
      </data-member>
      <data-member access='protected' layout-offset-in-bits='3648'>
        <var-decl name='m_dpStyle' type-id='type-id-21' visibility='default' filepath='include/wx/propgrid/advprops.h' line='424' column='1'/>
      </data-member>
      <data-member access='protected' static='yes'>
        <var-decl name='ms_defaultDateFormat' type-id='type-id-61' mangled-name='_ZN14wxDateProperty20ms_defaultDateFormatE' visibility='default' filepath='src/propgrid/advprops.cpp' line='2142' column='1' elf-symbol-id='_ZN14wxDateProperty20ms_defaultDateFormatE@@WXU_3.2'/>
      </data-member>
      <member-function access='protected' static='yes'>
        <function-decl name='DetermineDefaultDateFormat' mangled-name='_ZN14wxDateProperty26DetermineDefaultDateFormatEb' filepath='src/propgrid/advprops.cpp' line='2226' column='1' visibility='default' binding='global' size-in-bits='64' elf-symbol-id='_ZN14wxDateProperty26DetermineDefaultDateFormatEb@@WXU_3.2'>
          <parameter type-id='type-id-3'/>
          <return type-id='type-id-61'/>
        </function-decl>
      </member-function>
      <member-function access='public' constructor='yes'>
        <function-decl name='wxDateProperty' mangled-name='_ZN14wxDatePropertyC2ERK8wxStringS2_RK10wxDateTime' filepath='src/propgrid/advprops.cpp' line='2145' column='1' visibility='default' binding='global' size-in-bits='64' elf-symbol-id='_ZN14wxDatePropertyC2ERK8wxStringS2_RK10wxDateTime@@WXU_3.2'>
          <parameter type-id='type-id-434' name='this' is-artificial='yes'/>
          <parameter type-id='type-id-126' name='label' filepath='src/propgrid/advprops.cpp' line='2145' column='1'/>
          <parameter type-id='type-id-126' name='name' filepath='src/propgrid/advprops.cpp' line='2146' column='1'/>
          <parameter type-id='type-id-147' name='value' filepath='src/propgrid/advprops.cpp' line='2147' column='1'/>
          <return type-id='type-id-30'/>
        </function-decl>
      </member-function>
      <member-function access='public' static='yes'>
        <function-decl name='wxCreateObject' mangled-name='_ZN14wxDateProperty14wxCreateObjectEv' filepath='src/propgrid/advprops.cpp' line='2138' column='1' visibility='default' binding='global' size-in-bits='64' elf-symbol-id='_ZN14wxDateProperty14wxCreateObjectEv@@WXU_3.2'>
          <return type-id='type-id-252'/>
        </function-decl>
      </member-function>
      <member-function access='public' destructor='yes' vtable-offset='-1'>
        <function-decl name='~wxDateProperty' mangled-name='_ZN14wxDatePropertyD4Ev' filepath='src/propgrid/advprops.cpp' line='2163' column='1' visibility='default' binding='global' size-in-bits='64'>
          <parameter type-id='type-id-435' is-artificial='yes'/>
          <parameter type-id='type-id-19' is-artificial='yes'/>
          <return type-id='type-id-30'/>
        </function-decl>
      </member-function>
      <member-function access='public' destructor='yes' vtable-offset='-1'>
        <function-decl name='~wxDateProperty' mangled-name='_ZN14wxDatePropertyD0Ev' filepath='src/propgrid/advprops.cpp' line='2163' column='1' visibility='default' binding='global' size-in-bits='64' elf-symbol-id='_ZN14wxDatePropertyD0Ev@@WXU_3.2'>
          <parameter type-id='type-id-435' is-artificial='yes'/>
          <parameter type-id='type-id-19' is-artificial='yes'/>
          <return type-id='type-id-30'/>
        </function-decl>
      </member-function>
      <member-function access='public' destructor='yes' vtable-offset='-1'>
        <function-decl name='~wxDateProperty' mangled-name='_ZN14wxDatePropertyD2Ev' filepath='src/propgrid/advprops.cpp' line='2163' column='1' visibility='default' binding='global' size-in-bits='64' elf-symbol-id='_ZN14wxDatePropertyD2Ev@@WXU_3.2'>
          <parameter type-id='type-id-435' is-artificial='yes'/>
          <parameter type-id='type-id-19' is-artificial='yes'/>
          <return type-id='type-id-30'/>
        </function-decl>
      </member-function>
      <member-function access='public' const='yes' vtable-offset='2'>
